
ATMEGA32_Drivers.elf:     file format elf32-avr


Disassembly of section .text:

00000000 <__vectors>:
   0:	0c 94 2a 00 	jmp	0x54	; 0x54 <__ctors_end>
   4:	0c 94 3f 00 	jmp	0x7e	; 0x7e <__bad_interrupt>
   8:	0c 94 3f 00 	jmp	0x7e	; 0x7e <__bad_interrupt>
   c:	0c 94 3f 00 	jmp	0x7e	; 0x7e <__bad_interrupt>
  10:	0c 94 3f 00 	jmp	0x7e	; 0x7e <__bad_interrupt>
  14:	0c 94 3f 00 	jmp	0x7e	; 0x7e <__bad_interrupt>
  18:	0c 94 3f 00 	jmp	0x7e	; 0x7e <__bad_interrupt>
  1c:	0c 94 3f 00 	jmp	0x7e	; 0x7e <__bad_interrupt>
  20:	0c 94 3f 00 	jmp	0x7e	; 0x7e <__bad_interrupt>
  24:	0c 94 3f 00 	jmp	0x7e	; 0x7e <__bad_interrupt>
  28:	0c 94 3f 00 	jmp	0x7e	; 0x7e <__bad_interrupt>
  2c:	0c 94 3f 00 	jmp	0x7e	; 0x7e <__bad_interrupt>
  30:	0c 94 3f 00 	jmp	0x7e	; 0x7e <__bad_interrupt>
  34:	0c 94 3f 00 	jmp	0x7e	; 0x7e <__bad_interrupt>
  38:	0c 94 3f 00 	jmp	0x7e	; 0x7e <__bad_interrupt>
  3c:	0c 94 3f 00 	jmp	0x7e	; 0x7e <__bad_interrupt>
  40:	0c 94 3f 00 	jmp	0x7e	; 0x7e <__bad_interrupt>
  44:	0c 94 3f 00 	jmp	0x7e	; 0x7e <__bad_interrupt>
  48:	0c 94 3f 00 	jmp	0x7e	; 0x7e <__bad_interrupt>
  4c:	0c 94 3f 00 	jmp	0x7e	; 0x7e <__bad_interrupt>
  50:	0c 94 3f 00 	jmp	0x7e	; 0x7e <__bad_interrupt>

00000054 <__ctors_end>:
  54:	11 24       	eor	r1, r1
  56:	1f be       	out	0x3f, r1	; 63
  58:	cf e5       	ldi	r28, 0x5F	; 95
  5a:	d8 e0       	ldi	r29, 0x08	; 8
  5c:	de bf       	out	0x3e, r29	; 62
  5e:	cd bf       	out	0x3d, r28	; 61

00000060 <__do_copy_data>:
  60:	10 e0       	ldi	r17, 0x00	; 0
  62:	a0 e6       	ldi	r26, 0x60	; 96
  64:	b0 e0       	ldi	r27, 0x00	; 0
  66:	ec ec       	ldi	r30, 0xCC	; 204
  68:	fc e0       	ldi	r31, 0x0C	; 12
  6a:	02 c0       	rjmp	.+4      	; 0x70 <.do_copy_data_start>

0000006c <.do_copy_data_loop>:
  6c:	05 90       	lpm	r0, Z+
  6e:	0d 92       	st	X+, r0

00000070 <.do_copy_data_start>:
  70:	a8 36       	cpi	r26, 0x68	; 104
  72:	b1 07       	cpc	r27, r17
  74:	d9 f7       	brne	.-10     	; 0x6c <.do_copy_data_loop>
  76:	0e 94 9b 05 	call	0xb36	; 0xb36 <main>
  7a:	0c 94 64 06 	jmp	0xcc8	; 0xcc8 <_exit>

0000007e <__bad_interrupt>:
  7e:	0c 94 00 00 	jmp	0	; 0x0 <__vectors>

00000082 <__fixunssfsi>:
  82:	ef 92       	push	r14
  84:	ff 92       	push	r15
  86:	0f 93       	push	r16
  88:	1f 93       	push	r17
  8a:	7b 01       	movw	r14, r22
  8c:	8c 01       	movw	r16, r24
  8e:	20 e0       	ldi	r18, 0x00	; 0
  90:	30 e0       	ldi	r19, 0x00	; 0
  92:	40 e0       	ldi	r20, 0x00	; 0
  94:	5f e4       	ldi	r21, 0x4F	; 79
  96:	0e 94 41 03 	call	0x682	; 0x682 <__gesf2>
  9a:	88 23       	and	r24, r24
  9c:	8c f0       	brlt	.+34     	; 0xc0 <__fixunssfsi+0x3e>
  9e:	c8 01       	movw	r24, r16
  a0:	b7 01       	movw	r22, r14
  a2:	20 e0       	ldi	r18, 0x00	; 0
  a4:	30 e0       	ldi	r19, 0x00	; 0
  a6:	40 e0       	ldi	r20, 0x00	; 0
  a8:	5f e4       	ldi	r21, 0x4F	; 79
  aa:	0e 94 b9 01 	call	0x372	; 0x372 <__subsf3>
  ae:	0e 94 a1 03 	call	0x742	; 0x742 <__fixsfsi>
  b2:	9b 01       	movw	r18, r22
  b4:	ac 01       	movw	r20, r24
  b6:	20 50       	subi	r18, 0x00	; 0
  b8:	30 40       	sbci	r19, 0x00	; 0
  ba:	40 40       	sbci	r20, 0x00	; 0
  bc:	50 48       	sbci	r21, 0x80	; 128
  be:	06 c0       	rjmp	.+12     	; 0xcc <__fixunssfsi+0x4a>
  c0:	c8 01       	movw	r24, r16
  c2:	b7 01       	movw	r22, r14
  c4:	0e 94 a1 03 	call	0x742	; 0x742 <__fixsfsi>
  c8:	9b 01       	movw	r18, r22
  ca:	ac 01       	movw	r20, r24
  cc:	b9 01       	movw	r22, r18
  ce:	ca 01       	movw	r24, r20
  d0:	1f 91       	pop	r17
  d2:	0f 91       	pop	r16
  d4:	ff 90       	pop	r15
  d6:	ef 90       	pop	r14
  d8:	08 95       	ret

000000da <_fpadd_parts>:
  da:	a0 e0       	ldi	r26, 0x00	; 0
  dc:	b0 e0       	ldi	r27, 0x00	; 0
  de:	e3 e7       	ldi	r30, 0x73	; 115
  e0:	f0 e0       	ldi	r31, 0x00	; 0
  e2:	0c 94 2d 06 	jmp	0xc5a	; 0xc5a <__prologue_saves__>
  e6:	dc 01       	movw	r26, r24
  e8:	2b 01       	movw	r4, r22
  ea:	fa 01       	movw	r30, r20
  ec:	9c 91       	ld	r25, X
  ee:	92 30       	cpi	r25, 0x02	; 2
  f0:	08 f4       	brcc	.+2      	; 0xf4 <_fpadd_parts+0x1a>
  f2:	39 c1       	rjmp	.+626    	; 0x366 <_fpadd_parts+0x28c>
  f4:	eb 01       	movw	r28, r22
  f6:	88 81       	ld	r24, Y
  f8:	82 30       	cpi	r24, 0x02	; 2
  fa:	08 f4       	brcc	.+2      	; 0xfe <_fpadd_parts+0x24>
  fc:	33 c1       	rjmp	.+614    	; 0x364 <_fpadd_parts+0x28a>
  fe:	94 30       	cpi	r25, 0x04	; 4
 100:	69 f4       	brne	.+26     	; 0x11c <_fpadd_parts+0x42>
 102:	84 30       	cpi	r24, 0x04	; 4
 104:	09 f0       	breq	.+2      	; 0x108 <_fpadd_parts+0x2e>
 106:	2f c1       	rjmp	.+606    	; 0x366 <_fpadd_parts+0x28c>
 108:	11 96       	adiw	r26, 0x01	; 1
 10a:	9c 91       	ld	r25, X
 10c:	11 97       	sbiw	r26, 0x01	; 1
 10e:	89 81       	ldd	r24, Y+1	; 0x01
 110:	98 17       	cp	r25, r24
 112:	09 f4       	brne	.+2      	; 0x116 <_fpadd_parts+0x3c>
 114:	28 c1       	rjmp	.+592    	; 0x366 <_fpadd_parts+0x28c>
 116:	a0 e6       	ldi	r26, 0x60	; 96
 118:	b0 e0       	ldi	r27, 0x00	; 0
 11a:	25 c1       	rjmp	.+586    	; 0x366 <_fpadd_parts+0x28c>
 11c:	84 30       	cpi	r24, 0x04	; 4
 11e:	09 f4       	brne	.+2      	; 0x122 <_fpadd_parts+0x48>
 120:	21 c1       	rjmp	.+578    	; 0x364 <_fpadd_parts+0x28a>
 122:	82 30       	cpi	r24, 0x02	; 2
 124:	a9 f4       	brne	.+42     	; 0x150 <_fpadd_parts+0x76>
 126:	92 30       	cpi	r25, 0x02	; 2
 128:	09 f0       	breq	.+2      	; 0x12c <_fpadd_parts+0x52>
 12a:	1d c1       	rjmp	.+570    	; 0x366 <_fpadd_parts+0x28c>
 12c:	9a 01       	movw	r18, r20
 12e:	ad 01       	movw	r20, r26
 130:	88 e0       	ldi	r24, 0x08	; 8
 132:	ea 01       	movw	r28, r20
 134:	09 90       	ld	r0, Y+
 136:	ae 01       	movw	r20, r28
 138:	e9 01       	movw	r28, r18
 13a:	09 92       	st	Y+, r0
 13c:	9e 01       	movw	r18, r28
 13e:	81 50       	subi	r24, 0x01	; 1
 140:	c1 f7       	brne	.-16     	; 0x132 <_fpadd_parts+0x58>
 142:	e2 01       	movw	r28, r4
 144:	89 81       	ldd	r24, Y+1	; 0x01
 146:	11 96       	adiw	r26, 0x01	; 1
 148:	9c 91       	ld	r25, X
 14a:	89 23       	and	r24, r25
 14c:	81 83       	std	Z+1, r24	; 0x01
 14e:	08 c1       	rjmp	.+528    	; 0x360 <_fpadd_parts+0x286>
 150:	92 30       	cpi	r25, 0x02	; 2
 152:	09 f4       	brne	.+2      	; 0x156 <_fpadd_parts+0x7c>
 154:	07 c1       	rjmp	.+526    	; 0x364 <_fpadd_parts+0x28a>
 156:	12 96       	adiw	r26, 0x02	; 2
 158:	2d 90       	ld	r2, X+
 15a:	3c 90       	ld	r3, X
 15c:	13 97       	sbiw	r26, 0x03	; 3
 15e:	eb 01       	movw	r28, r22
 160:	8a 81       	ldd	r24, Y+2	; 0x02
 162:	9b 81       	ldd	r25, Y+3	; 0x03
 164:	14 96       	adiw	r26, 0x04	; 4
 166:	ad 90       	ld	r10, X+
 168:	bd 90       	ld	r11, X+
 16a:	cd 90       	ld	r12, X+
 16c:	dc 90       	ld	r13, X
 16e:	17 97       	sbiw	r26, 0x07	; 7
 170:	ec 80       	ldd	r14, Y+4	; 0x04
 172:	fd 80       	ldd	r15, Y+5	; 0x05
 174:	0e 81       	ldd	r16, Y+6	; 0x06
 176:	1f 81       	ldd	r17, Y+7	; 0x07
 178:	91 01       	movw	r18, r2
 17a:	28 1b       	sub	r18, r24
 17c:	39 0b       	sbc	r19, r25
 17e:	b9 01       	movw	r22, r18
 180:	37 ff       	sbrs	r19, 7
 182:	04 c0       	rjmp	.+8      	; 0x18c <_fpadd_parts+0xb2>
 184:	66 27       	eor	r22, r22
 186:	77 27       	eor	r23, r23
 188:	62 1b       	sub	r22, r18
 18a:	73 0b       	sbc	r23, r19
 18c:	60 32       	cpi	r22, 0x20	; 32
 18e:	71 05       	cpc	r23, r1
 190:	0c f0       	brlt	.+2      	; 0x194 <_fpadd_parts+0xba>
 192:	61 c0       	rjmp	.+194    	; 0x256 <_fpadd_parts+0x17c>
 194:	12 16       	cp	r1, r18
 196:	13 06       	cpc	r1, r19
 198:	6c f5       	brge	.+90     	; 0x1f4 <_fpadd_parts+0x11a>
 19a:	37 01       	movw	r6, r14
 19c:	48 01       	movw	r8, r16
 19e:	06 2e       	mov	r0, r22
 1a0:	04 c0       	rjmp	.+8      	; 0x1aa <_fpadd_parts+0xd0>
 1a2:	96 94       	lsr	r9
 1a4:	87 94       	ror	r8
 1a6:	77 94       	ror	r7
 1a8:	67 94       	ror	r6
 1aa:	0a 94       	dec	r0
 1ac:	d2 f7       	brpl	.-12     	; 0x1a2 <_fpadd_parts+0xc8>
 1ae:	21 e0       	ldi	r18, 0x01	; 1
 1b0:	30 e0       	ldi	r19, 0x00	; 0
 1b2:	40 e0       	ldi	r20, 0x00	; 0
 1b4:	50 e0       	ldi	r21, 0x00	; 0
 1b6:	04 c0       	rjmp	.+8      	; 0x1c0 <_fpadd_parts+0xe6>
 1b8:	22 0f       	add	r18, r18
 1ba:	33 1f       	adc	r19, r19
 1bc:	44 1f       	adc	r20, r20
 1be:	55 1f       	adc	r21, r21
 1c0:	6a 95       	dec	r22
 1c2:	d2 f7       	brpl	.-12     	; 0x1b8 <_fpadd_parts+0xde>
 1c4:	21 50       	subi	r18, 0x01	; 1
 1c6:	30 40       	sbci	r19, 0x00	; 0
 1c8:	40 40       	sbci	r20, 0x00	; 0
 1ca:	50 40       	sbci	r21, 0x00	; 0
 1cc:	2e 21       	and	r18, r14
 1ce:	3f 21       	and	r19, r15
 1d0:	40 23       	and	r20, r16
 1d2:	51 23       	and	r21, r17
 1d4:	21 15       	cp	r18, r1
 1d6:	31 05       	cpc	r19, r1
 1d8:	41 05       	cpc	r20, r1
 1da:	51 05       	cpc	r21, r1
 1dc:	21 f0       	breq	.+8      	; 0x1e6 <_fpadd_parts+0x10c>
 1de:	21 e0       	ldi	r18, 0x01	; 1
 1e0:	30 e0       	ldi	r19, 0x00	; 0
 1e2:	40 e0       	ldi	r20, 0x00	; 0
 1e4:	50 e0       	ldi	r21, 0x00	; 0
 1e6:	79 01       	movw	r14, r18
 1e8:	8a 01       	movw	r16, r20
 1ea:	e6 28       	or	r14, r6
 1ec:	f7 28       	or	r15, r7
 1ee:	08 29       	or	r16, r8
 1f0:	19 29       	or	r17, r9
 1f2:	3c c0       	rjmp	.+120    	; 0x26c <_fpadd_parts+0x192>
 1f4:	23 2b       	or	r18, r19
 1f6:	d1 f1       	breq	.+116    	; 0x26c <_fpadd_parts+0x192>
 1f8:	26 0e       	add	r2, r22
 1fa:	37 1e       	adc	r3, r23
 1fc:	35 01       	movw	r6, r10
 1fe:	46 01       	movw	r8, r12
 200:	06 2e       	mov	r0, r22
 202:	04 c0       	rjmp	.+8      	; 0x20c <_fpadd_parts+0x132>
 204:	96 94       	lsr	r9
 206:	87 94       	ror	r8
 208:	77 94       	ror	r7
 20a:	67 94       	ror	r6
 20c:	0a 94       	dec	r0
 20e:	d2 f7       	brpl	.-12     	; 0x204 <_fpadd_parts+0x12a>
 210:	21 e0       	ldi	r18, 0x01	; 1
 212:	30 e0       	ldi	r19, 0x00	; 0
 214:	40 e0       	ldi	r20, 0x00	; 0
 216:	50 e0       	ldi	r21, 0x00	; 0
 218:	04 c0       	rjmp	.+8      	; 0x222 <_fpadd_parts+0x148>
 21a:	22 0f       	add	r18, r18
 21c:	33 1f       	adc	r19, r19
 21e:	44 1f       	adc	r20, r20
 220:	55 1f       	adc	r21, r21
 222:	6a 95       	dec	r22
 224:	d2 f7       	brpl	.-12     	; 0x21a <_fpadd_parts+0x140>
 226:	21 50       	subi	r18, 0x01	; 1
 228:	30 40       	sbci	r19, 0x00	; 0
 22a:	40 40       	sbci	r20, 0x00	; 0
 22c:	50 40       	sbci	r21, 0x00	; 0
 22e:	2a 21       	and	r18, r10
 230:	3b 21       	and	r19, r11
 232:	4c 21       	and	r20, r12
 234:	5d 21       	and	r21, r13
 236:	21 15       	cp	r18, r1
 238:	31 05       	cpc	r19, r1
 23a:	41 05       	cpc	r20, r1
 23c:	51 05       	cpc	r21, r1
 23e:	21 f0       	breq	.+8      	; 0x248 <_fpadd_parts+0x16e>
 240:	21 e0       	ldi	r18, 0x01	; 1
 242:	30 e0       	ldi	r19, 0x00	; 0
 244:	40 e0       	ldi	r20, 0x00	; 0
 246:	50 e0       	ldi	r21, 0x00	; 0
 248:	59 01       	movw	r10, r18
 24a:	6a 01       	movw	r12, r20
 24c:	a6 28       	or	r10, r6
 24e:	b7 28       	or	r11, r7
 250:	c8 28       	or	r12, r8
 252:	d9 28       	or	r13, r9
 254:	0b c0       	rjmp	.+22     	; 0x26c <_fpadd_parts+0x192>
 256:	82 15       	cp	r24, r2
 258:	93 05       	cpc	r25, r3
 25a:	2c f0       	brlt	.+10     	; 0x266 <_fpadd_parts+0x18c>
 25c:	1c 01       	movw	r2, r24
 25e:	aa 24       	eor	r10, r10
 260:	bb 24       	eor	r11, r11
 262:	65 01       	movw	r12, r10
 264:	03 c0       	rjmp	.+6      	; 0x26c <_fpadd_parts+0x192>
 266:	ee 24       	eor	r14, r14
 268:	ff 24       	eor	r15, r15
 26a:	87 01       	movw	r16, r14
 26c:	11 96       	adiw	r26, 0x01	; 1
 26e:	9c 91       	ld	r25, X
 270:	d2 01       	movw	r26, r4
 272:	11 96       	adiw	r26, 0x01	; 1
 274:	8c 91       	ld	r24, X
 276:	98 17       	cp	r25, r24
 278:	09 f4       	brne	.+2      	; 0x27c <_fpadd_parts+0x1a2>
 27a:	45 c0       	rjmp	.+138    	; 0x306 <_fpadd_parts+0x22c>
 27c:	99 23       	and	r25, r25
 27e:	39 f0       	breq	.+14     	; 0x28e <_fpadd_parts+0x1b4>
 280:	a8 01       	movw	r20, r16
 282:	97 01       	movw	r18, r14
 284:	2a 19       	sub	r18, r10
 286:	3b 09       	sbc	r19, r11
 288:	4c 09       	sbc	r20, r12
 28a:	5d 09       	sbc	r21, r13
 28c:	06 c0       	rjmp	.+12     	; 0x29a <_fpadd_parts+0x1c0>
 28e:	a6 01       	movw	r20, r12
 290:	95 01       	movw	r18, r10
 292:	2e 19       	sub	r18, r14
 294:	3f 09       	sbc	r19, r15
 296:	40 0b       	sbc	r20, r16
 298:	51 0b       	sbc	r21, r17
 29a:	57 fd       	sbrc	r21, 7
 29c:	08 c0       	rjmp	.+16     	; 0x2ae <_fpadd_parts+0x1d4>
 29e:	11 82       	std	Z+1, r1	; 0x01
 2a0:	33 82       	std	Z+3, r3	; 0x03
 2a2:	22 82       	std	Z+2, r2	; 0x02
 2a4:	24 83       	std	Z+4, r18	; 0x04
 2a6:	35 83       	std	Z+5, r19	; 0x05
 2a8:	46 83       	std	Z+6, r20	; 0x06
 2aa:	57 83       	std	Z+7, r21	; 0x07
 2ac:	1d c0       	rjmp	.+58     	; 0x2e8 <_fpadd_parts+0x20e>
 2ae:	81 e0       	ldi	r24, 0x01	; 1
 2b0:	81 83       	std	Z+1, r24	; 0x01
 2b2:	33 82       	std	Z+3, r3	; 0x03
 2b4:	22 82       	std	Z+2, r2	; 0x02
 2b6:	88 27       	eor	r24, r24
 2b8:	99 27       	eor	r25, r25
 2ba:	dc 01       	movw	r26, r24
 2bc:	82 1b       	sub	r24, r18
 2be:	93 0b       	sbc	r25, r19
 2c0:	a4 0b       	sbc	r26, r20
 2c2:	b5 0b       	sbc	r27, r21
 2c4:	84 83       	std	Z+4, r24	; 0x04
 2c6:	95 83       	std	Z+5, r25	; 0x05
 2c8:	a6 83       	std	Z+6, r26	; 0x06
 2ca:	b7 83       	std	Z+7, r27	; 0x07
 2cc:	0d c0       	rjmp	.+26     	; 0x2e8 <_fpadd_parts+0x20e>
 2ce:	22 0f       	add	r18, r18
 2d0:	33 1f       	adc	r19, r19
 2d2:	44 1f       	adc	r20, r20
 2d4:	55 1f       	adc	r21, r21
 2d6:	24 83       	std	Z+4, r18	; 0x04
 2d8:	35 83       	std	Z+5, r19	; 0x05
 2da:	46 83       	std	Z+6, r20	; 0x06
 2dc:	57 83       	std	Z+7, r21	; 0x07
 2de:	82 81       	ldd	r24, Z+2	; 0x02
 2e0:	93 81       	ldd	r25, Z+3	; 0x03
 2e2:	01 97       	sbiw	r24, 0x01	; 1
 2e4:	93 83       	std	Z+3, r25	; 0x03
 2e6:	82 83       	std	Z+2, r24	; 0x02
 2e8:	24 81       	ldd	r18, Z+4	; 0x04
 2ea:	35 81       	ldd	r19, Z+5	; 0x05
 2ec:	46 81       	ldd	r20, Z+6	; 0x06
 2ee:	57 81       	ldd	r21, Z+7	; 0x07
 2f0:	da 01       	movw	r26, r20
 2f2:	c9 01       	movw	r24, r18
 2f4:	01 97       	sbiw	r24, 0x01	; 1
 2f6:	a1 09       	sbc	r26, r1
 2f8:	b1 09       	sbc	r27, r1
 2fa:	8f 5f       	subi	r24, 0xFF	; 255
 2fc:	9f 4f       	sbci	r25, 0xFF	; 255
 2fe:	af 4f       	sbci	r26, 0xFF	; 255
 300:	bf 43       	sbci	r27, 0x3F	; 63
 302:	28 f3       	brcs	.-54     	; 0x2ce <_fpadd_parts+0x1f4>
 304:	0b c0       	rjmp	.+22     	; 0x31c <_fpadd_parts+0x242>
 306:	91 83       	std	Z+1, r25	; 0x01
 308:	33 82       	std	Z+3, r3	; 0x03
 30a:	22 82       	std	Z+2, r2	; 0x02
 30c:	ea 0c       	add	r14, r10
 30e:	fb 1c       	adc	r15, r11
 310:	0c 1d       	adc	r16, r12
 312:	1d 1d       	adc	r17, r13
 314:	e4 82       	std	Z+4, r14	; 0x04
 316:	f5 82       	std	Z+5, r15	; 0x05
 318:	06 83       	std	Z+6, r16	; 0x06
 31a:	17 83       	std	Z+7, r17	; 0x07
 31c:	83 e0       	ldi	r24, 0x03	; 3
 31e:	80 83       	st	Z, r24
 320:	24 81       	ldd	r18, Z+4	; 0x04
 322:	35 81       	ldd	r19, Z+5	; 0x05
 324:	46 81       	ldd	r20, Z+6	; 0x06
 326:	57 81       	ldd	r21, Z+7	; 0x07
 328:	57 ff       	sbrs	r21, 7
 32a:	1a c0       	rjmp	.+52     	; 0x360 <_fpadd_parts+0x286>
 32c:	c9 01       	movw	r24, r18
 32e:	aa 27       	eor	r26, r26
 330:	97 fd       	sbrc	r25, 7
 332:	a0 95       	com	r26
 334:	ba 2f       	mov	r27, r26
 336:	81 70       	andi	r24, 0x01	; 1
 338:	90 70       	andi	r25, 0x00	; 0
 33a:	a0 70       	andi	r26, 0x00	; 0
 33c:	b0 70       	andi	r27, 0x00	; 0
 33e:	56 95       	lsr	r21
 340:	47 95       	ror	r20
 342:	37 95       	ror	r19
 344:	27 95       	ror	r18
 346:	82 2b       	or	r24, r18
 348:	93 2b       	or	r25, r19
 34a:	a4 2b       	or	r26, r20
 34c:	b5 2b       	or	r27, r21
 34e:	84 83       	std	Z+4, r24	; 0x04
 350:	95 83       	std	Z+5, r25	; 0x05
 352:	a6 83       	std	Z+6, r26	; 0x06
 354:	b7 83       	std	Z+7, r27	; 0x07
 356:	82 81       	ldd	r24, Z+2	; 0x02
 358:	93 81       	ldd	r25, Z+3	; 0x03
 35a:	01 96       	adiw	r24, 0x01	; 1
 35c:	93 83       	std	Z+3, r25	; 0x03
 35e:	82 83       	std	Z+2, r24	; 0x02
 360:	df 01       	movw	r26, r30
 362:	01 c0       	rjmp	.+2      	; 0x366 <_fpadd_parts+0x28c>
 364:	d2 01       	movw	r26, r4
 366:	cd 01       	movw	r24, r26
 368:	cd b7       	in	r28, 0x3d	; 61
 36a:	de b7       	in	r29, 0x3e	; 62
 36c:	e2 e1       	ldi	r30, 0x12	; 18
 36e:	0c 94 49 06 	jmp	0xc92	; 0xc92 <__epilogue_restores__>

00000372 <__subsf3>:
 372:	a0 e2       	ldi	r26, 0x20	; 32
 374:	b0 e0       	ldi	r27, 0x00	; 0
 376:	ef eb       	ldi	r30, 0xBF	; 191
 378:	f1 e0       	ldi	r31, 0x01	; 1
 37a:	0c 94 39 06 	jmp	0xc72	; 0xc72 <__prologue_saves__+0x18>
 37e:	69 83       	std	Y+1, r22	; 0x01
 380:	7a 83       	std	Y+2, r23	; 0x02
 382:	8b 83       	std	Y+3, r24	; 0x03
 384:	9c 83       	std	Y+4, r25	; 0x04
 386:	2d 83       	std	Y+5, r18	; 0x05
 388:	3e 83       	std	Y+6, r19	; 0x06
 38a:	4f 83       	std	Y+7, r20	; 0x07
 38c:	58 87       	std	Y+8, r21	; 0x08
 38e:	e9 e0       	ldi	r30, 0x09	; 9
 390:	ee 2e       	mov	r14, r30
 392:	f1 2c       	mov	r15, r1
 394:	ec 0e       	add	r14, r28
 396:	fd 1e       	adc	r15, r29
 398:	ce 01       	movw	r24, r28
 39a:	01 96       	adiw	r24, 0x01	; 1
 39c:	b7 01       	movw	r22, r14
 39e:	0e 94 ca 04 	call	0x994	; 0x994 <__unpack_f>
 3a2:	8e 01       	movw	r16, r28
 3a4:	0f 5e       	subi	r16, 0xEF	; 239
 3a6:	1f 4f       	sbci	r17, 0xFF	; 255
 3a8:	ce 01       	movw	r24, r28
 3aa:	05 96       	adiw	r24, 0x05	; 5
 3ac:	b8 01       	movw	r22, r16
 3ae:	0e 94 ca 04 	call	0x994	; 0x994 <__unpack_f>
 3b2:	8a 89       	ldd	r24, Y+18	; 0x12
 3b4:	91 e0       	ldi	r25, 0x01	; 1
 3b6:	89 27       	eor	r24, r25
 3b8:	8a 8b       	std	Y+18, r24	; 0x12
 3ba:	c7 01       	movw	r24, r14
 3bc:	b8 01       	movw	r22, r16
 3be:	ae 01       	movw	r20, r28
 3c0:	47 5e       	subi	r20, 0xE7	; 231
 3c2:	5f 4f       	sbci	r21, 0xFF	; 255
 3c4:	0e 94 6d 00 	call	0xda	; 0xda <_fpadd_parts>
 3c8:	0e 94 f5 03 	call	0x7ea	; 0x7ea <__pack_f>
 3cc:	a0 96       	adiw	r28, 0x20	; 32
 3ce:	e6 e0       	ldi	r30, 0x06	; 6
 3d0:	0c 94 55 06 	jmp	0xcaa	; 0xcaa <__epilogue_restores__+0x18>

000003d4 <__addsf3>:
 3d4:	a0 e2       	ldi	r26, 0x20	; 32
 3d6:	b0 e0       	ldi	r27, 0x00	; 0
 3d8:	e0 ef       	ldi	r30, 0xF0	; 240
 3da:	f1 e0       	ldi	r31, 0x01	; 1
 3dc:	0c 94 39 06 	jmp	0xc72	; 0xc72 <__prologue_saves__+0x18>
 3e0:	69 83       	std	Y+1, r22	; 0x01
 3e2:	7a 83       	std	Y+2, r23	; 0x02
 3e4:	8b 83       	std	Y+3, r24	; 0x03
 3e6:	9c 83       	std	Y+4, r25	; 0x04
 3e8:	2d 83       	std	Y+5, r18	; 0x05
 3ea:	3e 83       	std	Y+6, r19	; 0x06
 3ec:	4f 83       	std	Y+7, r20	; 0x07
 3ee:	58 87       	std	Y+8, r21	; 0x08
 3f0:	f9 e0       	ldi	r31, 0x09	; 9
 3f2:	ef 2e       	mov	r14, r31
 3f4:	f1 2c       	mov	r15, r1
 3f6:	ec 0e       	add	r14, r28
 3f8:	fd 1e       	adc	r15, r29
 3fa:	ce 01       	movw	r24, r28
 3fc:	01 96       	adiw	r24, 0x01	; 1
 3fe:	b7 01       	movw	r22, r14
 400:	0e 94 ca 04 	call	0x994	; 0x994 <__unpack_f>
 404:	8e 01       	movw	r16, r28
 406:	0f 5e       	subi	r16, 0xEF	; 239
 408:	1f 4f       	sbci	r17, 0xFF	; 255
 40a:	ce 01       	movw	r24, r28
 40c:	05 96       	adiw	r24, 0x05	; 5
 40e:	b8 01       	movw	r22, r16
 410:	0e 94 ca 04 	call	0x994	; 0x994 <__unpack_f>
 414:	c7 01       	movw	r24, r14
 416:	b8 01       	movw	r22, r16
 418:	ae 01       	movw	r20, r28
 41a:	47 5e       	subi	r20, 0xE7	; 231
 41c:	5f 4f       	sbci	r21, 0xFF	; 255
 41e:	0e 94 6d 00 	call	0xda	; 0xda <_fpadd_parts>
 422:	0e 94 f5 03 	call	0x7ea	; 0x7ea <__pack_f>
 426:	a0 96       	adiw	r28, 0x20	; 32
 428:	e6 e0       	ldi	r30, 0x06	; 6
 42a:	0c 94 55 06 	jmp	0xcaa	; 0xcaa <__epilogue_restores__+0x18>

0000042e <__mulsf3>:
 42e:	a0 e2       	ldi	r26, 0x20	; 32
 430:	b0 e0       	ldi	r27, 0x00	; 0
 432:	ed e1       	ldi	r30, 0x1D	; 29
 434:	f2 e0       	ldi	r31, 0x02	; 2
 436:	0c 94 2d 06 	jmp	0xc5a	; 0xc5a <__prologue_saves__>
 43a:	69 83       	std	Y+1, r22	; 0x01
 43c:	7a 83       	std	Y+2, r23	; 0x02
 43e:	8b 83       	std	Y+3, r24	; 0x03
 440:	9c 83       	std	Y+4, r25	; 0x04
 442:	2d 83       	std	Y+5, r18	; 0x05
 444:	3e 83       	std	Y+6, r19	; 0x06
 446:	4f 83       	std	Y+7, r20	; 0x07
 448:	58 87       	std	Y+8, r21	; 0x08
 44a:	ce 01       	movw	r24, r28
 44c:	01 96       	adiw	r24, 0x01	; 1
 44e:	be 01       	movw	r22, r28
 450:	67 5f       	subi	r22, 0xF7	; 247
 452:	7f 4f       	sbci	r23, 0xFF	; 255
 454:	0e 94 ca 04 	call	0x994	; 0x994 <__unpack_f>
 458:	ce 01       	movw	r24, r28
 45a:	05 96       	adiw	r24, 0x05	; 5
 45c:	be 01       	movw	r22, r28
 45e:	6f 5e       	subi	r22, 0xEF	; 239
 460:	7f 4f       	sbci	r23, 0xFF	; 255
 462:	0e 94 ca 04 	call	0x994	; 0x994 <__unpack_f>
 466:	99 85       	ldd	r25, Y+9	; 0x09
 468:	92 30       	cpi	r25, 0x02	; 2
 46a:	88 f0       	brcs	.+34     	; 0x48e <__mulsf3+0x60>
 46c:	89 89       	ldd	r24, Y+17	; 0x11
 46e:	82 30       	cpi	r24, 0x02	; 2
 470:	c8 f0       	brcs	.+50     	; 0x4a4 <__mulsf3+0x76>
 472:	94 30       	cpi	r25, 0x04	; 4
 474:	19 f4       	brne	.+6      	; 0x47c <__mulsf3+0x4e>
 476:	82 30       	cpi	r24, 0x02	; 2
 478:	51 f4       	brne	.+20     	; 0x48e <__mulsf3+0x60>
 47a:	04 c0       	rjmp	.+8      	; 0x484 <__mulsf3+0x56>
 47c:	84 30       	cpi	r24, 0x04	; 4
 47e:	29 f4       	brne	.+10     	; 0x48a <__mulsf3+0x5c>
 480:	92 30       	cpi	r25, 0x02	; 2
 482:	81 f4       	brne	.+32     	; 0x4a4 <__mulsf3+0x76>
 484:	80 e6       	ldi	r24, 0x60	; 96
 486:	90 e0       	ldi	r25, 0x00	; 0
 488:	c6 c0       	rjmp	.+396    	; 0x616 <__mulsf3+0x1e8>
 48a:	92 30       	cpi	r25, 0x02	; 2
 48c:	49 f4       	brne	.+18     	; 0x4a0 <__mulsf3+0x72>
 48e:	20 e0       	ldi	r18, 0x00	; 0
 490:	9a 85       	ldd	r25, Y+10	; 0x0a
 492:	8a 89       	ldd	r24, Y+18	; 0x12
 494:	98 13       	cpse	r25, r24
 496:	21 e0       	ldi	r18, 0x01	; 1
 498:	2a 87       	std	Y+10, r18	; 0x0a
 49a:	ce 01       	movw	r24, r28
 49c:	09 96       	adiw	r24, 0x09	; 9
 49e:	bb c0       	rjmp	.+374    	; 0x616 <__mulsf3+0x1e8>
 4a0:	82 30       	cpi	r24, 0x02	; 2
 4a2:	49 f4       	brne	.+18     	; 0x4b6 <__mulsf3+0x88>
 4a4:	20 e0       	ldi	r18, 0x00	; 0
 4a6:	9a 85       	ldd	r25, Y+10	; 0x0a
 4a8:	8a 89       	ldd	r24, Y+18	; 0x12
 4aa:	98 13       	cpse	r25, r24
 4ac:	21 e0       	ldi	r18, 0x01	; 1
 4ae:	2a 8b       	std	Y+18, r18	; 0x12
 4b0:	ce 01       	movw	r24, r28
 4b2:	41 96       	adiw	r24, 0x11	; 17
 4b4:	b0 c0       	rjmp	.+352    	; 0x616 <__mulsf3+0x1e8>
 4b6:	2d 84       	ldd	r2, Y+13	; 0x0d
 4b8:	3e 84       	ldd	r3, Y+14	; 0x0e
 4ba:	4f 84       	ldd	r4, Y+15	; 0x0f
 4bc:	58 88       	ldd	r5, Y+16	; 0x10
 4be:	6d 88       	ldd	r6, Y+21	; 0x15
 4c0:	7e 88       	ldd	r7, Y+22	; 0x16
 4c2:	8f 88       	ldd	r8, Y+23	; 0x17
 4c4:	98 8c       	ldd	r9, Y+24	; 0x18
 4c6:	ee 24       	eor	r14, r14
 4c8:	ff 24       	eor	r15, r15
 4ca:	87 01       	movw	r16, r14
 4cc:	aa 24       	eor	r10, r10
 4ce:	bb 24       	eor	r11, r11
 4d0:	65 01       	movw	r12, r10
 4d2:	40 e0       	ldi	r20, 0x00	; 0
 4d4:	50 e0       	ldi	r21, 0x00	; 0
 4d6:	60 e0       	ldi	r22, 0x00	; 0
 4d8:	70 e0       	ldi	r23, 0x00	; 0
 4da:	e0 e0       	ldi	r30, 0x00	; 0
 4dc:	f0 e0       	ldi	r31, 0x00	; 0
 4de:	c1 01       	movw	r24, r2
 4e0:	81 70       	andi	r24, 0x01	; 1
 4e2:	90 70       	andi	r25, 0x00	; 0
 4e4:	89 2b       	or	r24, r25
 4e6:	e9 f0       	breq	.+58     	; 0x522 <__mulsf3+0xf4>
 4e8:	e6 0c       	add	r14, r6
 4ea:	f7 1c       	adc	r15, r7
 4ec:	08 1d       	adc	r16, r8
 4ee:	19 1d       	adc	r17, r9
 4f0:	9a 01       	movw	r18, r20
 4f2:	ab 01       	movw	r20, r22
 4f4:	2a 0d       	add	r18, r10
 4f6:	3b 1d       	adc	r19, r11
 4f8:	4c 1d       	adc	r20, r12
 4fa:	5d 1d       	adc	r21, r13
 4fc:	80 e0       	ldi	r24, 0x00	; 0
 4fe:	90 e0       	ldi	r25, 0x00	; 0
 500:	a0 e0       	ldi	r26, 0x00	; 0
 502:	b0 e0       	ldi	r27, 0x00	; 0
 504:	e6 14       	cp	r14, r6
 506:	f7 04       	cpc	r15, r7
 508:	08 05       	cpc	r16, r8
 50a:	19 05       	cpc	r17, r9
 50c:	20 f4       	brcc	.+8      	; 0x516 <__mulsf3+0xe8>
 50e:	81 e0       	ldi	r24, 0x01	; 1
 510:	90 e0       	ldi	r25, 0x00	; 0
 512:	a0 e0       	ldi	r26, 0x00	; 0
 514:	b0 e0       	ldi	r27, 0x00	; 0
 516:	ba 01       	movw	r22, r20
 518:	a9 01       	movw	r20, r18
 51a:	48 0f       	add	r20, r24
 51c:	59 1f       	adc	r21, r25
 51e:	6a 1f       	adc	r22, r26
 520:	7b 1f       	adc	r23, r27
 522:	aa 0c       	add	r10, r10
 524:	bb 1c       	adc	r11, r11
 526:	cc 1c       	adc	r12, r12
 528:	dd 1c       	adc	r13, r13
 52a:	97 fe       	sbrs	r9, 7
 52c:	08 c0       	rjmp	.+16     	; 0x53e <__mulsf3+0x110>
 52e:	81 e0       	ldi	r24, 0x01	; 1
 530:	90 e0       	ldi	r25, 0x00	; 0
 532:	a0 e0       	ldi	r26, 0x00	; 0
 534:	b0 e0       	ldi	r27, 0x00	; 0
 536:	a8 2a       	or	r10, r24
 538:	b9 2a       	or	r11, r25
 53a:	ca 2a       	or	r12, r26
 53c:	db 2a       	or	r13, r27
 53e:	31 96       	adiw	r30, 0x01	; 1
 540:	e0 32       	cpi	r30, 0x20	; 32
 542:	f1 05       	cpc	r31, r1
 544:	49 f0       	breq	.+18     	; 0x558 <__mulsf3+0x12a>
 546:	66 0c       	add	r6, r6
 548:	77 1c       	adc	r7, r7
 54a:	88 1c       	adc	r8, r8
 54c:	99 1c       	adc	r9, r9
 54e:	56 94       	lsr	r5
 550:	47 94       	ror	r4
 552:	37 94       	ror	r3
 554:	27 94       	ror	r2
 556:	c3 cf       	rjmp	.-122    	; 0x4de <__mulsf3+0xb0>
 558:	fa 85       	ldd	r31, Y+10	; 0x0a
 55a:	ea 89       	ldd	r30, Y+18	; 0x12
 55c:	2b 89       	ldd	r18, Y+19	; 0x13
 55e:	3c 89       	ldd	r19, Y+20	; 0x14
 560:	8b 85       	ldd	r24, Y+11	; 0x0b
 562:	9c 85       	ldd	r25, Y+12	; 0x0c
 564:	28 0f       	add	r18, r24
 566:	39 1f       	adc	r19, r25
 568:	2e 5f       	subi	r18, 0xFE	; 254
 56a:	3f 4f       	sbci	r19, 0xFF	; 255
 56c:	17 c0       	rjmp	.+46     	; 0x59c <__mulsf3+0x16e>
 56e:	ca 01       	movw	r24, r20
 570:	81 70       	andi	r24, 0x01	; 1
 572:	90 70       	andi	r25, 0x00	; 0
 574:	89 2b       	or	r24, r25
 576:	61 f0       	breq	.+24     	; 0x590 <__mulsf3+0x162>
 578:	16 95       	lsr	r17
 57a:	07 95       	ror	r16
 57c:	f7 94       	ror	r15
 57e:	e7 94       	ror	r14
 580:	80 e0       	ldi	r24, 0x00	; 0
 582:	90 e0       	ldi	r25, 0x00	; 0
 584:	a0 e0       	ldi	r26, 0x00	; 0
 586:	b0 e8       	ldi	r27, 0x80	; 128
 588:	e8 2a       	or	r14, r24
 58a:	f9 2a       	or	r15, r25
 58c:	0a 2b       	or	r16, r26
 58e:	1b 2b       	or	r17, r27
 590:	76 95       	lsr	r23
 592:	67 95       	ror	r22
 594:	57 95       	ror	r21
 596:	47 95       	ror	r20
 598:	2f 5f       	subi	r18, 0xFF	; 255
 59a:	3f 4f       	sbci	r19, 0xFF	; 255
 59c:	77 fd       	sbrc	r23, 7
 59e:	e7 cf       	rjmp	.-50     	; 0x56e <__mulsf3+0x140>
 5a0:	0c c0       	rjmp	.+24     	; 0x5ba <__mulsf3+0x18c>
 5a2:	44 0f       	add	r20, r20
 5a4:	55 1f       	adc	r21, r21
 5a6:	66 1f       	adc	r22, r22
 5a8:	77 1f       	adc	r23, r23
 5aa:	17 fd       	sbrc	r17, 7
 5ac:	41 60       	ori	r20, 0x01	; 1
 5ae:	ee 0c       	add	r14, r14
 5b0:	ff 1c       	adc	r15, r15
 5b2:	00 1f       	adc	r16, r16
 5b4:	11 1f       	adc	r17, r17
 5b6:	21 50       	subi	r18, 0x01	; 1
 5b8:	30 40       	sbci	r19, 0x00	; 0
 5ba:	40 30       	cpi	r20, 0x00	; 0
 5bc:	90 e0       	ldi	r25, 0x00	; 0
 5be:	59 07       	cpc	r21, r25
 5c0:	90 e0       	ldi	r25, 0x00	; 0
 5c2:	69 07       	cpc	r22, r25
 5c4:	90 e4       	ldi	r25, 0x40	; 64
 5c6:	79 07       	cpc	r23, r25
 5c8:	60 f3       	brcs	.-40     	; 0x5a2 <__mulsf3+0x174>
 5ca:	2b 8f       	std	Y+27, r18	; 0x1b
 5cc:	3c 8f       	std	Y+28, r19	; 0x1c
 5ce:	db 01       	movw	r26, r22
 5d0:	ca 01       	movw	r24, r20
 5d2:	8f 77       	andi	r24, 0x7F	; 127
 5d4:	90 70       	andi	r25, 0x00	; 0
 5d6:	a0 70       	andi	r26, 0x00	; 0
 5d8:	b0 70       	andi	r27, 0x00	; 0
 5da:	80 34       	cpi	r24, 0x40	; 64
 5dc:	91 05       	cpc	r25, r1
 5de:	a1 05       	cpc	r26, r1
 5e0:	b1 05       	cpc	r27, r1
 5e2:	61 f4       	brne	.+24     	; 0x5fc <__mulsf3+0x1ce>
 5e4:	47 fd       	sbrc	r20, 7
 5e6:	0a c0       	rjmp	.+20     	; 0x5fc <__mulsf3+0x1ce>
 5e8:	e1 14       	cp	r14, r1
 5ea:	f1 04       	cpc	r15, r1
 5ec:	01 05       	cpc	r16, r1
 5ee:	11 05       	cpc	r17, r1
 5f0:	29 f0       	breq	.+10     	; 0x5fc <__mulsf3+0x1ce>
 5f2:	40 5c       	subi	r20, 0xC0	; 192
 5f4:	5f 4f       	sbci	r21, 0xFF	; 255
 5f6:	6f 4f       	sbci	r22, 0xFF	; 255
 5f8:	7f 4f       	sbci	r23, 0xFF	; 255
 5fa:	40 78       	andi	r20, 0x80	; 128
 5fc:	1a 8e       	std	Y+26, r1	; 0x1a
 5fe:	fe 17       	cp	r31, r30
 600:	11 f0       	breq	.+4      	; 0x606 <__mulsf3+0x1d8>
 602:	81 e0       	ldi	r24, 0x01	; 1
 604:	8a 8f       	std	Y+26, r24	; 0x1a
 606:	4d 8f       	std	Y+29, r20	; 0x1d
 608:	5e 8f       	std	Y+30, r21	; 0x1e
 60a:	6f 8f       	std	Y+31, r22	; 0x1f
 60c:	78 a3       	std	Y+32, r23	; 0x20
 60e:	83 e0       	ldi	r24, 0x03	; 3
 610:	89 8f       	std	Y+25, r24	; 0x19
 612:	ce 01       	movw	r24, r28
 614:	49 96       	adiw	r24, 0x19	; 25
 616:	0e 94 f5 03 	call	0x7ea	; 0x7ea <__pack_f>
 61a:	a0 96       	adiw	r28, 0x20	; 32
 61c:	e2 e1       	ldi	r30, 0x12	; 18
 61e:	0c 94 49 06 	jmp	0xc92	; 0xc92 <__epilogue_restores__>

00000622 <__gtsf2>:
 622:	a8 e1       	ldi	r26, 0x18	; 24
 624:	b0 e0       	ldi	r27, 0x00	; 0
 626:	e7 e1       	ldi	r30, 0x17	; 23
 628:	f3 e0       	ldi	r31, 0x03	; 3
 62a:	0c 94 39 06 	jmp	0xc72	; 0xc72 <__prologue_saves__+0x18>
 62e:	69 83       	std	Y+1, r22	; 0x01
 630:	7a 83       	std	Y+2, r23	; 0x02
 632:	8b 83       	std	Y+3, r24	; 0x03
 634:	9c 83       	std	Y+4, r25	; 0x04
 636:	2d 83       	std	Y+5, r18	; 0x05
 638:	3e 83       	std	Y+6, r19	; 0x06
 63a:	4f 83       	std	Y+7, r20	; 0x07
 63c:	58 87       	std	Y+8, r21	; 0x08
 63e:	89 e0       	ldi	r24, 0x09	; 9
 640:	e8 2e       	mov	r14, r24
 642:	f1 2c       	mov	r15, r1
 644:	ec 0e       	add	r14, r28
 646:	fd 1e       	adc	r15, r29
 648:	ce 01       	movw	r24, r28
 64a:	01 96       	adiw	r24, 0x01	; 1
 64c:	b7 01       	movw	r22, r14
 64e:	0e 94 ca 04 	call	0x994	; 0x994 <__unpack_f>
 652:	8e 01       	movw	r16, r28
 654:	0f 5e       	subi	r16, 0xEF	; 239
 656:	1f 4f       	sbci	r17, 0xFF	; 255
 658:	ce 01       	movw	r24, r28
 65a:	05 96       	adiw	r24, 0x05	; 5
 65c:	b8 01       	movw	r22, r16
 65e:	0e 94 ca 04 	call	0x994	; 0x994 <__unpack_f>
 662:	89 85       	ldd	r24, Y+9	; 0x09
 664:	82 30       	cpi	r24, 0x02	; 2
 666:	40 f0       	brcs	.+16     	; 0x678 <__gtsf2+0x56>
 668:	89 89       	ldd	r24, Y+17	; 0x11
 66a:	82 30       	cpi	r24, 0x02	; 2
 66c:	28 f0       	brcs	.+10     	; 0x678 <__gtsf2+0x56>
 66e:	c7 01       	movw	r24, r14
 670:	b8 01       	movw	r22, r16
 672:	0e 94 42 05 	call	0xa84	; 0xa84 <__fpcmp_parts_f>
 676:	01 c0       	rjmp	.+2      	; 0x67a <__gtsf2+0x58>
 678:	8f ef       	ldi	r24, 0xFF	; 255
 67a:	68 96       	adiw	r28, 0x18	; 24
 67c:	e6 e0       	ldi	r30, 0x06	; 6
 67e:	0c 94 55 06 	jmp	0xcaa	; 0xcaa <__epilogue_restores__+0x18>

00000682 <__gesf2>:
 682:	a8 e1       	ldi	r26, 0x18	; 24
 684:	b0 e0       	ldi	r27, 0x00	; 0
 686:	e7 e4       	ldi	r30, 0x47	; 71
 688:	f3 e0       	ldi	r31, 0x03	; 3
 68a:	0c 94 39 06 	jmp	0xc72	; 0xc72 <__prologue_saves__+0x18>
 68e:	69 83       	std	Y+1, r22	; 0x01
 690:	7a 83       	std	Y+2, r23	; 0x02
 692:	8b 83       	std	Y+3, r24	; 0x03
 694:	9c 83       	std	Y+4, r25	; 0x04
 696:	2d 83       	std	Y+5, r18	; 0x05
 698:	3e 83       	std	Y+6, r19	; 0x06
 69a:	4f 83       	std	Y+7, r20	; 0x07
 69c:	58 87       	std	Y+8, r21	; 0x08
 69e:	89 e0       	ldi	r24, 0x09	; 9
 6a0:	e8 2e       	mov	r14, r24
 6a2:	f1 2c       	mov	r15, r1
 6a4:	ec 0e       	add	r14, r28
 6a6:	fd 1e       	adc	r15, r29
 6a8:	ce 01       	movw	r24, r28
 6aa:	01 96       	adiw	r24, 0x01	; 1
 6ac:	b7 01       	movw	r22, r14
 6ae:	0e 94 ca 04 	call	0x994	; 0x994 <__unpack_f>
 6b2:	8e 01       	movw	r16, r28
 6b4:	0f 5e       	subi	r16, 0xEF	; 239
 6b6:	1f 4f       	sbci	r17, 0xFF	; 255
 6b8:	ce 01       	movw	r24, r28
 6ba:	05 96       	adiw	r24, 0x05	; 5
 6bc:	b8 01       	movw	r22, r16
 6be:	0e 94 ca 04 	call	0x994	; 0x994 <__unpack_f>
 6c2:	89 85       	ldd	r24, Y+9	; 0x09
 6c4:	82 30       	cpi	r24, 0x02	; 2
 6c6:	40 f0       	brcs	.+16     	; 0x6d8 <__gesf2+0x56>
 6c8:	89 89       	ldd	r24, Y+17	; 0x11
 6ca:	82 30       	cpi	r24, 0x02	; 2
 6cc:	28 f0       	brcs	.+10     	; 0x6d8 <__gesf2+0x56>
 6ce:	c7 01       	movw	r24, r14
 6d0:	b8 01       	movw	r22, r16
 6d2:	0e 94 42 05 	call	0xa84	; 0xa84 <__fpcmp_parts_f>
 6d6:	01 c0       	rjmp	.+2      	; 0x6da <__gesf2+0x58>
 6d8:	8f ef       	ldi	r24, 0xFF	; 255
 6da:	68 96       	adiw	r28, 0x18	; 24
 6dc:	e6 e0       	ldi	r30, 0x06	; 6
 6de:	0c 94 55 06 	jmp	0xcaa	; 0xcaa <__epilogue_restores__+0x18>

000006e2 <__ltsf2>:
 6e2:	a8 e1       	ldi	r26, 0x18	; 24
 6e4:	b0 e0       	ldi	r27, 0x00	; 0
 6e6:	e7 e7       	ldi	r30, 0x77	; 119
 6e8:	f3 e0       	ldi	r31, 0x03	; 3
 6ea:	0c 94 39 06 	jmp	0xc72	; 0xc72 <__prologue_saves__+0x18>
 6ee:	69 83       	std	Y+1, r22	; 0x01
 6f0:	7a 83       	std	Y+2, r23	; 0x02
 6f2:	8b 83       	std	Y+3, r24	; 0x03
 6f4:	9c 83       	std	Y+4, r25	; 0x04
 6f6:	2d 83       	std	Y+5, r18	; 0x05
 6f8:	3e 83       	std	Y+6, r19	; 0x06
 6fa:	4f 83       	std	Y+7, r20	; 0x07
 6fc:	58 87       	std	Y+8, r21	; 0x08
 6fe:	89 e0       	ldi	r24, 0x09	; 9
 700:	e8 2e       	mov	r14, r24
 702:	f1 2c       	mov	r15, r1
 704:	ec 0e       	add	r14, r28
 706:	fd 1e       	adc	r15, r29
 708:	ce 01       	movw	r24, r28
 70a:	01 96       	adiw	r24, 0x01	; 1
 70c:	b7 01       	movw	r22, r14
 70e:	0e 94 ca 04 	call	0x994	; 0x994 <__unpack_f>
 712:	8e 01       	movw	r16, r28
 714:	0f 5e       	subi	r16, 0xEF	; 239
 716:	1f 4f       	sbci	r17, 0xFF	; 255
 718:	ce 01       	movw	r24, r28
 71a:	05 96       	adiw	r24, 0x05	; 5
 71c:	b8 01       	movw	r22, r16
 71e:	0e 94 ca 04 	call	0x994	; 0x994 <__unpack_f>
 722:	89 85       	ldd	r24, Y+9	; 0x09
 724:	82 30       	cpi	r24, 0x02	; 2
 726:	40 f0       	brcs	.+16     	; 0x738 <__ltsf2+0x56>
 728:	89 89       	ldd	r24, Y+17	; 0x11
 72a:	82 30       	cpi	r24, 0x02	; 2
 72c:	28 f0       	brcs	.+10     	; 0x738 <__ltsf2+0x56>
 72e:	c7 01       	movw	r24, r14
 730:	b8 01       	movw	r22, r16
 732:	0e 94 42 05 	call	0xa84	; 0xa84 <__fpcmp_parts_f>
 736:	01 c0       	rjmp	.+2      	; 0x73a <__ltsf2+0x58>
 738:	81 e0       	ldi	r24, 0x01	; 1
 73a:	68 96       	adiw	r28, 0x18	; 24
 73c:	e6 e0       	ldi	r30, 0x06	; 6
 73e:	0c 94 55 06 	jmp	0xcaa	; 0xcaa <__epilogue_restores__+0x18>

00000742 <__fixsfsi>:
 742:	ac e0       	ldi	r26, 0x0C	; 12
 744:	b0 e0       	ldi	r27, 0x00	; 0
 746:	e7 ea       	ldi	r30, 0xA7	; 167
 748:	f3 e0       	ldi	r31, 0x03	; 3
 74a:	0c 94 3d 06 	jmp	0xc7a	; 0xc7a <__prologue_saves__+0x20>
 74e:	69 83       	std	Y+1, r22	; 0x01
 750:	7a 83       	std	Y+2, r23	; 0x02
 752:	8b 83       	std	Y+3, r24	; 0x03
 754:	9c 83       	std	Y+4, r25	; 0x04
 756:	ce 01       	movw	r24, r28
 758:	01 96       	adiw	r24, 0x01	; 1
 75a:	be 01       	movw	r22, r28
 75c:	6b 5f       	subi	r22, 0xFB	; 251
 75e:	7f 4f       	sbci	r23, 0xFF	; 255
 760:	0e 94 ca 04 	call	0x994	; 0x994 <__unpack_f>
 764:	8d 81       	ldd	r24, Y+5	; 0x05
 766:	82 30       	cpi	r24, 0x02	; 2
 768:	61 f1       	breq	.+88     	; 0x7c2 <__fixsfsi+0x80>
 76a:	82 30       	cpi	r24, 0x02	; 2
 76c:	50 f1       	brcs	.+84     	; 0x7c2 <__fixsfsi+0x80>
 76e:	84 30       	cpi	r24, 0x04	; 4
 770:	21 f4       	brne	.+8      	; 0x77a <__fixsfsi+0x38>
 772:	8e 81       	ldd	r24, Y+6	; 0x06
 774:	88 23       	and	r24, r24
 776:	51 f1       	breq	.+84     	; 0x7cc <__fixsfsi+0x8a>
 778:	2e c0       	rjmp	.+92     	; 0x7d6 <__fixsfsi+0x94>
 77a:	2f 81       	ldd	r18, Y+7	; 0x07
 77c:	38 85       	ldd	r19, Y+8	; 0x08
 77e:	37 fd       	sbrc	r19, 7
 780:	20 c0       	rjmp	.+64     	; 0x7c2 <__fixsfsi+0x80>
 782:	6e 81       	ldd	r22, Y+6	; 0x06
 784:	2f 31       	cpi	r18, 0x1F	; 31
 786:	31 05       	cpc	r19, r1
 788:	1c f0       	brlt	.+6      	; 0x790 <__fixsfsi+0x4e>
 78a:	66 23       	and	r22, r22
 78c:	f9 f0       	breq	.+62     	; 0x7cc <__fixsfsi+0x8a>
 78e:	23 c0       	rjmp	.+70     	; 0x7d6 <__fixsfsi+0x94>
 790:	8e e1       	ldi	r24, 0x1E	; 30
 792:	90 e0       	ldi	r25, 0x00	; 0
 794:	82 1b       	sub	r24, r18
 796:	93 0b       	sbc	r25, r19
 798:	29 85       	ldd	r18, Y+9	; 0x09
 79a:	3a 85       	ldd	r19, Y+10	; 0x0a
 79c:	4b 85       	ldd	r20, Y+11	; 0x0b
 79e:	5c 85       	ldd	r21, Y+12	; 0x0c
 7a0:	04 c0       	rjmp	.+8      	; 0x7aa <__fixsfsi+0x68>
 7a2:	56 95       	lsr	r21
 7a4:	47 95       	ror	r20
 7a6:	37 95       	ror	r19
 7a8:	27 95       	ror	r18
 7aa:	8a 95       	dec	r24
 7ac:	d2 f7       	brpl	.-12     	; 0x7a2 <__fixsfsi+0x60>
 7ae:	66 23       	and	r22, r22
 7b0:	b1 f0       	breq	.+44     	; 0x7de <__fixsfsi+0x9c>
 7b2:	50 95       	com	r21
 7b4:	40 95       	com	r20
 7b6:	30 95       	com	r19
 7b8:	21 95       	neg	r18
 7ba:	3f 4f       	sbci	r19, 0xFF	; 255
 7bc:	4f 4f       	sbci	r20, 0xFF	; 255
 7be:	5f 4f       	sbci	r21, 0xFF	; 255
 7c0:	0e c0       	rjmp	.+28     	; 0x7de <__fixsfsi+0x9c>
 7c2:	20 e0       	ldi	r18, 0x00	; 0
 7c4:	30 e0       	ldi	r19, 0x00	; 0
 7c6:	40 e0       	ldi	r20, 0x00	; 0
 7c8:	50 e0       	ldi	r21, 0x00	; 0
 7ca:	09 c0       	rjmp	.+18     	; 0x7de <__fixsfsi+0x9c>
 7cc:	2f ef       	ldi	r18, 0xFF	; 255
 7ce:	3f ef       	ldi	r19, 0xFF	; 255
 7d0:	4f ef       	ldi	r20, 0xFF	; 255
 7d2:	5f e7       	ldi	r21, 0x7F	; 127
 7d4:	04 c0       	rjmp	.+8      	; 0x7de <__fixsfsi+0x9c>
 7d6:	20 e0       	ldi	r18, 0x00	; 0
 7d8:	30 e0       	ldi	r19, 0x00	; 0
 7da:	40 e0       	ldi	r20, 0x00	; 0
 7dc:	50 e8       	ldi	r21, 0x80	; 128
 7de:	b9 01       	movw	r22, r18
 7e0:	ca 01       	movw	r24, r20
 7e2:	2c 96       	adiw	r28, 0x0c	; 12
 7e4:	e2 e0       	ldi	r30, 0x02	; 2
 7e6:	0c 94 59 06 	jmp	0xcb2	; 0xcb2 <__epilogue_restores__+0x20>

000007ea <__pack_f>:
 7ea:	df 92       	push	r13
 7ec:	ef 92       	push	r14
 7ee:	ff 92       	push	r15
 7f0:	0f 93       	push	r16
 7f2:	1f 93       	push	r17
 7f4:	fc 01       	movw	r30, r24
 7f6:	e4 80       	ldd	r14, Z+4	; 0x04
 7f8:	f5 80       	ldd	r15, Z+5	; 0x05
 7fa:	06 81       	ldd	r16, Z+6	; 0x06
 7fc:	17 81       	ldd	r17, Z+7	; 0x07
 7fe:	d1 80       	ldd	r13, Z+1	; 0x01
 800:	80 81       	ld	r24, Z
 802:	82 30       	cpi	r24, 0x02	; 2
 804:	48 f4       	brcc	.+18     	; 0x818 <__pack_f+0x2e>
 806:	80 e0       	ldi	r24, 0x00	; 0
 808:	90 e0       	ldi	r25, 0x00	; 0
 80a:	a0 e1       	ldi	r26, 0x10	; 16
 80c:	b0 e0       	ldi	r27, 0x00	; 0
 80e:	e8 2a       	or	r14, r24
 810:	f9 2a       	or	r15, r25
 812:	0a 2b       	or	r16, r26
 814:	1b 2b       	or	r17, r27
 816:	a5 c0       	rjmp	.+330    	; 0x962 <__stack+0x103>
 818:	84 30       	cpi	r24, 0x04	; 4
 81a:	09 f4       	brne	.+2      	; 0x81e <__pack_f+0x34>
 81c:	9f c0       	rjmp	.+318    	; 0x95c <__stack+0xfd>
 81e:	82 30       	cpi	r24, 0x02	; 2
 820:	21 f4       	brne	.+8      	; 0x82a <__pack_f+0x40>
 822:	ee 24       	eor	r14, r14
 824:	ff 24       	eor	r15, r15
 826:	87 01       	movw	r16, r14
 828:	05 c0       	rjmp	.+10     	; 0x834 <__pack_f+0x4a>
 82a:	e1 14       	cp	r14, r1
 82c:	f1 04       	cpc	r15, r1
 82e:	01 05       	cpc	r16, r1
 830:	11 05       	cpc	r17, r1
 832:	19 f4       	brne	.+6      	; 0x83a <__pack_f+0x50>
 834:	e0 e0       	ldi	r30, 0x00	; 0
 836:	f0 e0       	ldi	r31, 0x00	; 0
 838:	96 c0       	rjmp	.+300    	; 0x966 <__stack+0x107>
 83a:	62 81       	ldd	r22, Z+2	; 0x02
 83c:	73 81       	ldd	r23, Z+3	; 0x03
 83e:	9f ef       	ldi	r25, 0xFF	; 255
 840:	62 38       	cpi	r22, 0x82	; 130
 842:	79 07       	cpc	r23, r25
 844:	0c f0       	brlt	.+2      	; 0x848 <__pack_f+0x5e>
 846:	5b c0       	rjmp	.+182    	; 0x8fe <__stack+0x9f>
 848:	22 e8       	ldi	r18, 0x82	; 130
 84a:	3f ef       	ldi	r19, 0xFF	; 255
 84c:	26 1b       	sub	r18, r22
 84e:	37 0b       	sbc	r19, r23
 850:	2a 31       	cpi	r18, 0x1A	; 26
 852:	31 05       	cpc	r19, r1
 854:	2c f0       	brlt	.+10     	; 0x860 <__stack+0x1>
 856:	20 e0       	ldi	r18, 0x00	; 0
 858:	30 e0       	ldi	r19, 0x00	; 0
 85a:	40 e0       	ldi	r20, 0x00	; 0
 85c:	50 e0       	ldi	r21, 0x00	; 0
 85e:	2a c0       	rjmp	.+84     	; 0x8b4 <__stack+0x55>
 860:	b8 01       	movw	r22, r16
 862:	a7 01       	movw	r20, r14
 864:	02 2e       	mov	r0, r18
 866:	04 c0       	rjmp	.+8      	; 0x870 <__stack+0x11>
 868:	76 95       	lsr	r23
 86a:	67 95       	ror	r22
 86c:	57 95       	ror	r21
 86e:	47 95       	ror	r20
 870:	0a 94       	dec	r0
 872:	d2 f7       	brpl	.-12     	; 0x868 <__stack+0x9>
 874:	81 e0       	ldi	r24, 0x01	; 1
 876:	90 e0       	ldi	r25, 0x00	; 0
 878:	a0 e0       	ldi	r26, 0x00	; 0
 87a:	b0 e0       	ldi	r27, 0x00	; 0
 87c:	04 c0       	rjmp	.+8      	; 0x886 <__stack+0x27>
 87e:	88 0f       	add	r24, r24
 880:	99 1f       	adc	r25, r25
 882:	aa 1f       	adc	r26, r26
 884:	bb 1f       	adc	r27, r27
 886:	2a 95       	dec	r18
 888:	d2 f7       	brpl	.-12     	; 0x87e <__stack+0x1f>
 88a:	01 97       	sbiw	r24, 0x01	; 1
 88c:	a1 09       	sbc	r26, r1
 88e:	b1 09       	sbc	r27, r1
 890:	8e 21       	and	r24, r14
 892:	9f 21       	and	r25, r15
 894:	a0 23       	and	r26, r16
 896:	b1 23       	and	r27, r17
 898:	00 97       	sbiw	r24, 0x00	; 0
 89a:	a1 05       	cpc	r26, r1
 89c:	b1 05       	cpc	r27, r1
 89e:	21 f0       	breq	.+8      	; 0x8a8 <__stack+0x49>
 8a0:	81 e0       	ldi	r24, 0x01	; 1
 8a2:	90 e0       	ldi	r25, 0x00	; 0
 8a4:	a0 e0       	ldi	r26, 0x00	; 0
 8a6:	b0 e0       	ldi	r27, 0x00	; 0
 8a8:	9a 01       	movw	r18, r20
 8aa:	ab 01       	movw	r20, r22
 8ac:	28 2b       	or	r18, r24
 8ae:	39 2b       	or	r19, r25
 8b0:	4a 2b       	or	r20, r26
 8b2:	5b 2b       	or	r21, r27
 8b4:	da 01       	movw	r26, r20
 8b6:	c9 01       	movw	r24, r18
 8b8:	8f 77       	andi	r24, 0x7F	; 127
 8ba:	90 70       	andi	r25, 0x00	; 0
 8bc:	a0 70       	andi	r26, 0x00	; 0
 8be:	b0 70       	andi	r27, 0x00	; 0
 8c0:	80 34       	cpi	r24, 0x40	; 64
 8c2:	91 05       	cpc	r25, r1
 8c4:	a1 05       	cpc	r26, r1
 8c6:	b1 05       	cpc	r27, r1
 8c8:	39 f4       	brne	.+14     	; 0x8d8 <__stack+0x79>
 8ca:	27 ff       	sbrs	r18, 7
 8cc:	09 c0       	rjmp	.+18     	; 0x8e0 <__stack+0x81>
 8ce:	20 5c       	subi	r18, 0xC0	; 192
 8d0:	3f 4f       	sbci	r19, 0xFF	; 255
 8d2:	4f 4f       	sbci	r20, 0xFF	; 255
 8d4:	5f 4f       	sbci	r21, 0xFF	; 255
 8d6:	04 c0       	rjmp	.+8      	; 0x8e0 <__stack+0x81>
 8d8:	21 5c       	subi	r18, 0xC1	; 193
 8da:	3f 4f       	sbci	r19, 0xFF	; 255
 8dc:	4f 4f       	sbci	r20, 0xFF	; 255
 8de:	5f 4f       	sbci	r21, 0xFF	; 255
 8e0:	e0 e0       	ldi	r30, 0x00	; 0
 8e2:	f0 e0       	ldi	r31, 0x00	; 0
 8e4:	20 30       	cpi	r18, 0x00	; 0
 8e6:	a0 e0       	ldi	r26, 0x00	; 0
 8e8:	3a 07       	cpc	r19, r26
 8ea:	a0 e0       	ldi	r26, 0x00	; 0
 8ec:	4a 07       	cpc	r20, r26
 8ee:	a0 e4       	ldi	r26, 0x40	; 64
 8f0:	5a 07       	cpc	r21, r26
 8f2:	10 f0       	brcs	.+4      	; 0x8f8 <__stack+0x99>
 8f4:	e1 e0       	ldi	r30, 0x01	; 1
 8f6:	f0 e0       	ldi	r31, 0x00	; 0
 8f8:	79 01       	movw	r14, r18
 8fa:	8a 01       	movw	r16, r20
 8fc:	27 c0       	rjmp	.+78     	; 0x94c <__stack+0xed>
 8fe:	60 38       	cpi	r22, 0x80	; 128
 900:	71 05       	cpc	r23, r1
 902:	64 f5       	brge	.+88     	; 0x95c <__stack+0xfd>
 904:	fb 01       	movw	r30, r22
 906:	e1 58       	subi	r30, 0x81	; 129
 908:	ff 4f       	sbci	r31, 0xFF	; 255
 90a:	d8 01       	movw	r26, r16
 90c:	c7 01       	movw	r24, r14
 90e:	8f 77       	andi	r24, 0x7F	; 127
 910:	90 70       	andi	r25, 0x00	; 0
 912:	a0 70       	andi	r26, 0x00	; 0
 914:	b0 70       	andi	r27, 0x00	; 0
 916:	80 34       	cpi	r24, 0x40	; 64
 918:	91 05       	cpc	r25, r1
 91a:	a1 05       	cpc	r26, r1
 91c:	b1 05       	cpc	r27, r1
 91e:	39 f4       	brne	.+14     	; 0x92e <__stack+0xcf>
 920:	e7 fe       	sbrs	r14, 7
 922:	0d c0       	rjmp	.+26     	; 0x93e <__stack+0xdf>
 924:	80 e4       	ldi	r24, 0x40	; 64
 926:	90 e0       	ldi	r25, 0x00	; 0
 928:	a0 e0       	ldi	r26, 0x00	; 0
 92a:	b0 e0       	ldi	r27, 0x00	; 0
 92c:	04 c0       	rjmp	.+8      	; 0x936 <__stack+0xd7>
 92e:	8f e3       	ldi	r24, 0x3F	; 63
 930:	90 e0       	ldi	r25, 0x00	; 0
 932:	a0 e0       	ldi	r26, 0x00	; 0
 934:	b0 e0       	ldi	r27, 0x00	; 0
 936:	e8 0e       	add	r14, r24
 938:	f9 1e       	adc	r15, r25
 93a:	0a 1f       	adc	r16, r26
 93c:	1b 1f       	adc	r17, r27
 93e:	17 ff       	sbrs	r17, 7
 940:	05 c0       	rjmp	.+10     	; 0x94c <__stack+0xed>
 942:	16 95       	lsr	r17
 944:	07 95       	ror	r16
 946:	f7 94       	ror	r15
 948:	e7 94       	ror	r14
 94a:	31 96       	adiw	r30, 0x01	; 1
 94c:	87 e0       	ldi	r24, 0x07	; 7
 94e:	16 95       	lsr	r17
 950:	07 95       	ror	r16
 952:	f7 94       	ror	r15
 954:	e7 94       	ror	r14
 956:	8a 95       	dec	r24
 958:	d1 f7       	brne	.-12     	; 0x94e <__stack+0xef>
 95a:	05 c0       	rjmp	.+10     	; 0x966 <__stack+0x107>
 95c:	ee 24       	eor	r14, r14
 95e:	ff 24       	eor	r15, r15
 960:	87 01       	movw	r16, r14
 962:	ef ef       	ldi	r30, 0xFF	; 255
 964:	f0 e0       	ldi	r31, 0x00	; 0
 966:	6e 2f       	mov	r22, r30
 968:	67 95       	ror	r22
 96a:	66 27       	eor	r22, r22
 96c:	67 95       	ror	r22
 96e:	90 2f       	mov	r25, r16
 970:	9f 77       	andi	r25, 0x7F	; 127
 972:	d7 94       	ror	r13
 974:	dd 24       	eor	r13, r13
 976:	d7 94       	ror	r13
 978:	8e 2f       	mov	r24, r30
 97a:	86 95       	lsr	r24
 97c:	49 2f       	mov	r20, r25
 97e:	46 2b       	or	r20, r22
 980:	58 2f       	mov	r21, r24
 982:	5d 29       	or	r21, r13
 984:	b7 01       	movw	r22, r14
 986:	ca 01       	movw	r24, r20
 988:	1f 91       	pop	r17
 98a:	0f 91       	pop	r16
 98c:	ff 90       	pop	r15
 98e:	ef 90       	pop	r14
 990:	df 90       	pop	r13
 992:	08 95       	ret

00000994 <__unpack_f>:
 994:	fc 01       	movw	r30, r24
 996:	db 01       	movw	r26, r22
 998:	40 81       	ld	r20, Z
 99a:	51 81       	ldd	r21, Z+1	; 0x01
 99c:	22 81       	ldd	r18, Z+2	; 0x02
 99e:	62 2f       	mov	r22, r18
 9a0:	6f 77       	andi	r22, 0x7F	; 127
 9a2:	70 e0       	ldi	r23, 0x00	; 0
 9a4:	22 1f       	adc	r18, r18
 9a6:	22 27       	eor	r18, r18
 9a8:	22 1f       	adc	r18, r18
 9aa:	93 81       	ldd	r25, Z+3	; 0x03
 9ac:	89 2f       	mov	r24, r25
 9ae:	88 0f       	add	r24, r24
 9b0:	82 2b       	or	r24, r18
 9b2:	28 2f       	mov	r18, r24
 9b4:	30 e0       	ldi	r19, 0x00	; 0
 9b6:	99 1f       	adc	r25, r25
 9b8:	99 27       	eor	r25, r25
 9ba:	99 1f       	adc	r25, r25
 9bc:	11 96       	adiw	r26, 0x01	; 1
 9be:	9c 93       	st	X, r25
 9c0:	11 97       	sbiw	r26, 0x01	; 1
 9c2:	21 15       	cp	r18, r1
 9c4:	31 05       	cpc	r19, r1
 9c6:	a9 f5       	brne	.+106    	; 0xa32 <__unpack_f+0x9e>
 9c8:	41 15       	cp	r20, r1
 9ca:	51 05       	cpc	r21, r1
 9cc:	61 05       	cpc	r22, r1
 9ce:	71 05       	cpc	r23, r1
 9d0:	11 f4       	brne	.+4      	; 0x9d6 <__unpack_f+0x42>
 9d2:	82 e0       	ldi	r24, 0x02	; 2
 9d4:	37 c0       	rjmp	.+110    	; 0xa44 <__unpack_f+0xb0>
 9d6:	82 e8       	ldi	r24, 0x82	; 130
 9d8:	9f ef       	ldi	r25, 0xFF	; 255
 9da:	13 96       	adiw	r26, 0x03	; 3
 9dc:	9c 93       	st	X, r25
 9de:	8e 93       	st	-X, r24
 9e0:	12 97       	sbiw	r26, 0x02	; 2
 9e2:	9a 01       	movw	r18, r20
 9e4:	ab 01       	movw	r20, r22
 9e6:	67 e0       	ldi	r22, 0x07	; 7
 9e8:	22 0f       	add	r18, r18
 9ea:	33 1f       	adc	r19, r19
 9ec:	44 1f       	adc	r20, r20
 9ee:	55 1f       	adc	r21, r21
 9f0:	6a 95       	dec	r22
 9f2:	d1 f7       	brne	.-12     	; 0x9e8 <__unpack_f+0x54>
 9f4:	83 e0       	ldi	r24, 0x03	; 3
 9f6:	8c 93       	st	X, r24
 9f8:	0d c0       	rjmp	.+26     	; 0xa14 <__unpack_f+0x80>
 9fa:	22 0f       	add	r18, r18
 9fc:	33 1f       	adc	r19, r19
 9fe:	44 1f       	adc	r20, r20
 a00:	55 1f       	adc	r21, r21
 a02:	12 96       	adiw	r26, 0x02	; 2
 a04:	8d 91       	ld	r24, X+
 a06:	9c 91       	ld	r25, X
 a08:	13 97       	sbiw	r26, 0x03	; 3
 a0a:	01 97       	sbiw	r24, 0x01	; 1
 a0c:	13 96       	adiw	r26, 0x03	; 3
 a0e:	9c 93       	st	X, r25
 a10:	8e 93       	st	-X, r24
 a12:	12 97       	sbiw	r26, 0x02	; 2
 a14:	20 30       	cpi	r18, 0x00	; 0
 a16:	80 e0       	ldi	r24, 0x00	; 0
 a18:	38 07       	cpc	r19, r24
 a1a:	80 e0       	ldi	r24, 0x00	; 0
 a1c:	48 07       	cpc	r20, r24
 a1e:	80 e4       	ldi	r24, 0x40	; 64
 a20:	58 07       	cpc	r21, r24
 a22:	58 f3       	brcs	.-42     	; 0x9fa <__unpack_f+0x66>
 a24:	14 96       	adiw	r26, 0x04	; 4
 a26:	2d 93       	st	X+, r18
 a28:	3d 93       	st	X+, r19
 a2a:	4d 93       	st	X+, r20
 a2c:	5c 93       	st	X, r21
 a2e:	17 97       	sbiw	r26, 0x07	; 7
 a30:	08 95       	ret
 a32:	2f 3f       	cpi	r18, 0xFF	; 255
 a34:	31 05       	cpc	r19, r1
 a36:	79 f4       	brne	.+30     	; 0xa56 <__unpack_f+0xc2>
 a38:	41 15       	cp	r20, r1
 a3a:	51 05       	cpc	r21, r1
 a3c:	61 05       	cpc	r22, r1
 a3e:	71 05       	cpc	r23, r1
 a40:	19 f4       	brne	.+6      	; 0xa48 <__unpack_f+0xb4>
 a42:	84 e0       	ldi	r24, 0x04	; 4
 a44:	8c 93       	st	X, r24
 a46:	08 95       	ret
 a48:	64 ff       	sbrs	r22, 4
 a4a:	03 c0       	rjmp	.+6      	; 0xa52 <__unpack_f+0xbe>
 a4c:	81 e0       	ldi	r24, 0x01	; 1
 a4e:	8c 93       	st	X, r24
 a50:	12 c0       	rjmp	.+36     	; 0xa76 <__unpack_f+0xe2>
 a52:	1c 92       	st	X, r1
 a54:	10 c0       	rjmp	.+32     	; 0xa76 <__unpack_f+0xe2>
 a56:	2f 57       	subi	r18, 0x7F	; 127
 a58:	30 40       	sbci	r19, 0x00	; 0
 a5a:	13 96       	adiw	r26, 0x03	; 3
 a5c:	3c 93       	st	X, r19
 a5e:	2e 93       	st	-X, r18
 a60:	12 97       	sbiw	r26, 0x02	; 2
 a62:	83 e0       	ldi	r24, 0x03	; 3
 a64:	8c 93       	st	X, r24
 a66:	87 e0       	ldi	r24, 0x07	; 7
 a68:	44 0f       	add	r20, r20
 a6a:	55 1f       	adc	r21, r21
 a6c:	66 1f       	adc	r22, r22
 a6e:	77 1f       	adc	r23, r23
 a70:	8a 95       	dec	r24
 a72:	d1 f7       	brne	.-12     	; 0xa68 <__unpack_f+0xd4>
 a74:	70 64       	ori	r23, 0x40	; 64
 a76:	14 96       	adiw	r26, 0x04	; 4
 a78:	4d 93       	st	X+, r20
 a7a:	5d 93       	st	X+, r21
 a7c:	6d 93       	st	X+, r22
 a7e:	7c 93       	st	X, r23
 a80:	17 97       	sbiw	r26, 0x07	; 7
 a82:	08 95       	ret

00000a84 <__fpcmp_parts_f>:
 a84:	1f 93       	push	r17
 a86:	dc 01       	movw	r26, r24
 a88:	fb 01       	movw	r30, r22
 a8a:	9c 91       	ld	r25, X
 a8c:	92 30       	cpi	r25, 0x02	; 2
 a8e:	08 f4       	brcc	.+2      	; 0xa92 <__fpcmp_parts_f+0xe>
 a90:	47 c0       	rjmp	.+142    	; 0xb20 <__fpcmp_parts_f+0x9c>
 a92:	80 81       	ld	r24, Z
 a94:	82 30       	cpi	r24, 0x02	; 2
 a96:	08 f4       	brcc	.+2      	; 0xa9a <__fpcmp_parts_f+0x16>
 a98:	43 c0       	rjmp	.+134    	; 0xb20 <__fpcmp_parts_f+0x9c>
 a9a:	94 30       	cpi	r25, 0x04	; 4
 a9c:	51 f4       	brne	.+20     	; 0xab2 <__fpcmp_parts_f+0x2e>
 a9e:	11 96       	adiw	r26, 0x01	; 1
 aa0:	1c 91       	ld	r17, X
 aa2:	84 30       	cpi	r24, 0x04	; 4
 aa4:	99 f5       	brne	.+102    	; 0xb0c <__fpcmp_parts_f+0x88>
 aa6:	81 81       	ldd	r24, Z+1	; 0x01
 aa8:	68 2f       	mov	r22, r24
 aaa:	70 e0       	ldi	r23, 0x00	; 0
 aac:	61 1b       	sub	r22, r17
 aae:	71 09       	sbc	r23, r1
 ab0:	3f c0       	rjmp	.+126    	; 0xb30 <__fpcmp_parts_f+0xac>
 ab2:	84 30       	cpi	r24, 0x04	; 4
 ab4:	21 f0       	breq	.+8      	; 0xabe <__fpcmp_parts_f+0x3a>
 ab6:	92 30       	cpi	r25, 0x02	; 2
 ab8:	31 f4       	brne	.+12     	; 0xac6 <__fpcmp_parts_f+0x42>
 aba:	82 30       	cpi	r24, 0x02	; 2
 abc:	b9 f1       	breq	.+110    	; 0xb2c <__fpcmp_parts_f+0xa8>
 abe:	81 81       	ldd	r24, Z+1	; 0x01
 ac0:	88 23       	and	r24, r24
 ac2:	89 f1       	breq	.+98     	; 0xb26 <__fpcmp_parts_f+0xa2>
 ac4:	2d c0       	rjmp	.+90     	; 0xb20 <__fpcmp_parts_f+0x9c>
 ac6:	11 96       	adiw	r26, 0x01	; 1
 ac8:	1c 91       	ld	r17, X
 aca:	11 97       	sbiw	r26, 0x01	; 1
 acc:	82 30       	cpi	r24, 0x02	; 2
 ace:	f1 f0       	breq	.+60     	; 0xb0c <__fpcmp_parts_f+0x88>
 ad0:	81 81       	ldd	r24, Z+1	; 0x01
 ad2:	18 17       	cp	r17, r24
 ad4:	d9 f4       	brne	.+54     	; 0xb0c <__fpcmp_parts_f+0x88>
 ad6:	12 96       	adiw	r26, 0x02	; 2
 ad8:	2d 91       	ld	r18, X+
 ada:	3c 91       	ld	r19, X
 adc:	13 97       	sbiw	r26, 0x03	; 3
 ade:	82 81       	ldd	r24, Z+2	; 0x02
 ae0:	93 81       	ldd	r25, Z+3	; 0x03
 ae2:	82 17       	cp	r24, r18
 ae4:	93 07       	cpc	r25, r19
 ae6:	94 f0       	brlt	.+36     	; 0xb0c <__fpcmp_parts_f+0x88>
 ae8:	28 17       	cp	r18, r24
 aea:	39 07       	cpc	r19, r25
 aec:	bc f0       	brlt	.+46     	; 0xb1c <__fpcmp_parts_f+0x98>
 aee:	14 96       	adiw	r26, 0x04	; 4
 af0:	8d 91       	ld	r24, X+
 af2:	9d 91       	ld	r25, X+
 af4:	0d 90       	ld	r0, X+
 af6:	bc 91       	ld	r27, X
 af8:	a0 2d       	mov	r26, r0
 afa:	24 81       	ldd	r18, Z+4	; 0x04
 afc:	35 81       	ldd	r19, Z+5	; 0x05
 afe:	46 81       	ldd	r20, Z+6	; 0x06
 b00:	57 81       	ldd	r21, Z+7	; 0x07
 b02:	28 17       	cp	r18, r24
 b04:	39 07       	cpc	r19, r25
 b06:	4a 07       	cpc	r20, r26
 b08:	5b 07       	cpc	r21, r27
 b0a:	18 f4       	brcc	.+6      	; 0xb12 <__fpcmp_parts_f+0x8e>
 b0c:	11 23       	and	r17, r17
 b0e:	41 f0       	breq	.+16     	; 0xb20 <__fpcmp_parts_f+0x9c>
 b10:	0a c0       	rjmp	.+20     	; 0xb26 <__fpcmp_parts_f+0xa2>
 b12:	82 17       	cp	r24, r18
 b14:	93 07       	cpc	r25, r19
 b16:	a4 07       	cpc	r26, r20
 b18:	b5 07       	cpc	r27, r21
 b1a:	40 f4       	brcc	.+16     	; 0xb2c <__fpcmp_parts_f+0xa8>
 b1c:	11 23       	and	r17, r17
 b1e:	19 f0       	breq	.+6      	; 0xb26 <__fpcmp_parts_f+0xa2>
 b20:	61 e0       	ldi	r22, 0x01	; 1
 b22:	70 e0       	ldi	r23, 0x00	; 0
 b24:	05 c0       	rjmp	.+10     	; 0xb30 <__fpcmp_parts_f+0xac>
 b26:	6f ef       	ldi	r22, 0xFF	; 255
 b28:	7f ef       	ldi	r23, 0xFF	; 255
 b2a:	02 c0       	rjmp	.+4      	; 0xb30 <__fpcmp_parts_f+0xac>
 b2c:	60 e0       	ldi	r22, 0x00	; 0
 b2e:	70 e0       	ldi	r23, 0x00	; 0
 b30:	cb 01       	movw	r24, r22
 b32:	1f 91       	pop	r17
 b34:	08 95       	ret

00000b36 <main>:
 b36:	df 93       	push	r29
 b38:	cf 93       	push	r28
 b3a:	cd b7       	in	r28, 0x3d	; 61
 b3c:	de b7       	in	r29, 0x3e	; 62
 b3e:	68 97       	sbiw	r28, 0x18	; 24
 b40:	0f b6       	in	r0, 0x3f	; 63
 b42:	f8 94       	cli
 b44:	de bf       	out	0x3e, r29	; 62
 b46:	0f be       	out	0x3f, r0	; 63
 b48:	cd bf       	out	0x3d, r28	; 61
 b4a:	1f 86       	std	Y+15, r1	; 0x0f
 b4c:	86 e0       	ldi	r24, 0x06	; 6
 b4e:	8c 8b       	std	Y+20, r24	; 0x14
 b50:	81 e0       	ldi	r24, 0x01	; 1
 b52:	8b 8b       	std	Y+19, r24	; 0x13
 b54:	81 e0       	ldi	r24, 0x01	; 1
 b56:	8a 8b       	std	Y+18, r24	; 0x12
 b58:	1d 8a       	std	Y+21, r1	; 0x15
 b5a:	1f 8a       	std	Y+23, r1	; 0x17
 b5c:	18 8e       	std	Y+24, r1	; 0x18
 b5e:	19 8a       	std	Y+17, r1	; 0x11
 b60:	1e 8a       	std	Y+22, r1	; 0x16
 b62:	18 8a       	std	Y+16, r1	; 0x10
 b64:	e7 e3       	ldi	r30, 0x37	; 55
 b66:	f0 e0       	ldi	r31, 0x00	; 0
 b68:	8f ef       	ldi	r24, 0xFF	; 255
 b6a:	80 83       	st	Z, r24
 b6c:	e8 e3       	ldi	r30, 0x38	; 56
 b6e:	f0 e0       	ldi	r31, 0x00	; 0
 b70:	8f 85       	ldd	r24, Y+15	; 0x0f
 b72:	80 83       	st	Z, r24
 b74:	80 e0       	ldi	r24, 0x00	; 0
 b76:	90 e0       	ldi	r25, 0x00	; 0
 b78:	aa e7       	ldi	r26, 0x7A	; 122
 b7a:	b4 e4       	ldi	r27, 0x44	; 68
 b7c:	8b 87       	std	Y+11, r24	; 0x0b
 b7e:	9c 87       	std	Y+12, r25	; 0x0c
 b80:	ad 87       	std	Y+13, r26	; 0x0d
 b82:	be 87       	std	Y+14, r27	; 0x0e
 b84:	6b 85       	ldd	r22, Y+11	; 0x0b
 b86:	7c 85       	ldd	r23, Y+12	; 0x0c
 b88:	8d 85       	ldd	r24, Y+13	; 0x0d
 b8a:	9e 85       	ldd	r25, Y+14	; 0x0e
 b8c:	20 e0       	ldi	r18, 0x00	; 0
 b8e:	30 e0       	ldi	r19, 0x00	; 0
 b90:	4a e7       	ldi	r20, 0x7A	; 122
 b92:	53 e4       	ldi	r21, 0x43	; 67
 b94:	0e 94 17 02 	call	0x42e	; 0x42e <__mulsf3>
 b98:	dc 01       	movw	r26, r24
 b9a:	cb 01       	movw	r24, r22
 b9c:	8f 83       	std	Y+7, r24	; 0x07
 b9e:	98 87       	std	Y+8, r25	; 0x08
 ba0:	a9 87       	std	Y+9, r26	; 0x09
 ba2:	ba 87       	std	Y+10, r27	; 0x0a
 ba4:	6f 81       	ldd	r22, Y+7	; 0x07
 ba6:	78 85       	ldd	r23, Y+8	; 0x08
 ba8:	89 85       	ldd	r24, Y+9	; 0x09
 baa:	9a 85       	ldd	r25, Y+10	; 0x0a
 bac:	20 e0       	ldi	r18, 0x00	; 0
 bae:	30 e0       	ldi	r19, 0x00	; 0
 bb0:	40 e8       	ldi	r20, 0x80	; 128
 bb2:	5f e3       	ldi	r21, 0x3F	; 63
 bb4:	0e 94 71 03 	call	0x6e2	; 0x6e2 <__ltsf2>
 bb8:	88 23       	and	r24, r24
 bba:	2c f4       	brge	.+10     	; 0xbc6 <main+0x90>
 bbc:	81 e0       	ldi	r24, 0x01	; 1
 bbe:	90 e0       	ldi	r25, 0x00	; 0
 bc0:	9e 83       	std	Y+6, r25	; 0x06
 bc2:	8d 83       	std	Y+5, r24	; 0x05
 bc4:	3f c0       	rjmp	.+126    	; 0xc44 <main+0x10e>
 bc6:	6f 81       	ldd	r22, Y+7	; 0x07
 bc8:	78 85       	ldd	r23, Y+8	; 0x08
 bca:	89 85       	ldd	r24, Y+9	; 0x09
 bcc:	9a 85       	ldd	r25, Y+10	; 0x0a
 bce:	20 e0       	ldi	r18, 0x00	; 0
 bd0:	3f ef       	ldi	r19, 0xFF	; 255
 bd2:	4f e7       	ldi	r20, 0x7F	; 127
 bd4:	57 e4       	ldi	r21, 0x47	; 71
 bd6:	0e 94 11 03 	call	0x622	; 0x622 <__gtsf2>
 bda:	18 16       	cp	r1, r24
 bdc:	4c f5       	brge	.+82     	; 0xc30 <main+0xfa>
 bde:	6b 85       	ldd	r22, Y+11	; 0x0b
 be0:	7c 85       	ldd	r23, Y+12	; 0x0c
 be2:	8d 85       	ldd	r24, Y+13	; 0x0d
 be4:	9e 85       	ldd	r25, Y+14	; 0x0e
 be6:	20 e0       	ldi	r18, 0x00	; 0
 be8:	30 e0       	ldi	r19, 0x00	; 0
 bea:	40 e2       	ldi	r20, 0x20	; 32
 bec:	51 e4       	ldi	r21, 0x41	; 65
 bee:	0e 94 17 02 	call	0x42e	; 0x42e <__mulsf3>
 bf2:	dc 01       	movw	r26, r24
 bf4:	cb 01       	movw	r24, r22
 bf6:	bc 01       	movw	r22, r24
 bf8:	cd 01       	movw	r24, r26
 bfa:	0e 94 41 00 	call	0x82	; 0x82 <__fixunssfsi>
 bfe:	dc 01       	movw	r26, r24
 c00:	cb 01       	movw	r24, r22
 c02:	9e 83       	std	Y+6, r25	; 0x06
 c04:	8d 83       	std	Y+5, r24	; 0x05
 c06:	0f c0       	rjmp	.+30     	; 0xc26 <main+0xf0>
 c08:	89 e1       	ldi	r24, 0x19	; 25
 c0a:	90 e0       	ldi	r25, 0x00	; 0
 c0c:	9c 83       	std	Y+4, r25	; 0x04
 c0e:	8b 83       	std	Y+3, r24	; 0x03
 c10:	8b 81       	ldd	r24, Y+3	; 0x03
 c12:	9c 81       	ldd	r25, Y+4	; 0x04
 c14:	01 97       	sbiw	r24, 0x01	; 1
 c16:	f1 f7       	brne	.-4      	; 0xc14 <main+0xde>
 c18:	9c 83       	std	Y+4, r25	; 0x04
 c1a:	8b 83       	std	Y+3, r24	; 0x03
 c1c:	8d 81       	ldd	r24, Y+5	; 0x05
 c1e:	9e 81       	ldd	r25, Y+6	; 0x06
 c20:	01 97       	sbiw	r24, 0x01	; 1
 c22:	9e 83       	std	Y+6, r25	; 0x06
 c24:	8d 83       	std	Y+5, r24	; 0x05
 c26:	8d 81       	ldd	r24, Y+5	; 0x05
 c28:	9e 81       	ldd	r25, Y+6	; 0x06
 c2a:	00 97       	sbiw	r24, 0x00	; 0
 c2c:	69 f7       	brne	.-38     	; 0xc08 <main+0xd2>
 c2e:	9e cf       	rjmp	.-196    	; 0xb6c <main+0x36>
 c30:	6f 81       	ldd	r22, Y+7	; 0x07
 c32:	78 85       	ldd	r23, Y+8	; 0x08
 c34:	89 85       	ldd	r24, Y+9	; 0x09
 c36:	9a 85       	ldd	r25, Y+10	; 0x0a
 c38:	0e 94 41 00 	call	0x82	; 0x82 <__fixunssfsi>
 c3c:	dc 01       	movw	r26, r24
 c3e:	cb 01       	movw	r24, r22
 c40:	9e 83       	std	Y+6, r25	; 0x06
 c42:	8d 83       	std	Y+5, r24	; 0x05
 c44:	8d 81       	ldd	r24, Y+5	; 0x05
 c46:	9e 81       	ldd	r25, Y+6	; 0x06
 c48:	9a 83       	std	Y+2, r25	; 0x02
 c4a:	89 83       	std	Y+1, r24	; 0x01
 c4c:	89 81       	ldd	r24, Y+1	; 0x01
 c4e:	9a 81       	ldd	r25, Y+2	; 0x02
 c50:	01 97       	sbiw	r24, 0x01	; 1
 c52:	f1 f7       	brne	.-4      	; 0xc50 <main+0x11a>
 c54:	9a 83       	std	Y+2, r25	; 0x02
 c56:	89 83       	std	Y+1, r24	; 0x01
 c58:	89 cf       	rjmp	.-238    	; 0xb6c <main+0x36>

00000c5a <__prologue_saves__>:
 c5a:	2f 92       	push	r2
 c5c:	3f 92       	push	r3
 c5e:	4f 92       	push	r4
 c60:	5f 92       	push	r5
 c62:	6f 92       	push	r6
 c64:	7f 92       	push	r7
 c66:	8f 92       	push	r8
 c68:	9f 92       	push	r9
 c6a:	af 92       	push	r10
 c6c:	bf 92       	push	r11
 c6e:	cf 92       	push	r12
 c70:	df 92       	push	r13
 c72:	ef 92       	push	r14
 c74:	ff 92       	push	r15
 c76:	0f 93       	push	r16
 c78:	1f 93       	push	r17
 c7a:	cf 93       	push	r28
 c7c:	df 93       	push	r29
 c7e:	cd b7       	in	r28, 0x3d	; 61
 c80:	de b7       	in	r29, 0x3e	; 62
 c82:	ca 1b       	sub	r28, r26
 c84:	db 0b       	sbc	r29, r27
 c86:	0f b6       	in	r0, 0x3f	; 63
 c88:	f8 94       	cli
 c8a:	de bf       	out	0x3e, r29	; 62
 c8c:	0f be       	out	0x3f, r0	; 63
 c8e:	cd bf       	out	0x3d, r28	; 61
 c90:	09 94       	ijmp

00000c92 <__epilogue_restores__>:
 c92:	2a 88       	ldd	r2, Y+18	; 0x12
 c94:	39 88       	ldd	r3, Y+17	; 0x11
 c96:	48 88       	ldd	r4, Y+16	; 0x10
 c98:	5f 84       	ldd	r5, Y+15	; 0x0f
 c9a:	6e 84       	ldd	r6, Y+14	; 0x0e
 c9c:	7d 84       	ldd	r7, Y+13	; 0x0d
 c9e:	8c 84       	ldd	r8, Y+12	; 0x0c
 ca0:	9b 84       	ldd	r9, Y+11	; 0x0b
 ca2:	aa 84       	ldd	r10, Y+10	; 0x0a
 ca4:	b9 84       	ldd	r11, Y+9	; 0x09
 ca6:	c8 84       	ldd	r12, Y+8	; 0x08
 ca8:	df 80       	ldd	r13, Y+7	; 0x07
 caa:	ee 80       	ldd	r14, Y+6	; 0x06
 cac:	fd 80       	ldd	r15, Y+5	; 0x05
 cae:	0c 81       	ldd	r16, Y+4	; 0x04
 cb0:	1b 81       	ldd	r17, Y+3	; 0x03
 cb2:	aa 81       	ldd	r26, Y+2	; 0x02
 cb4:	b9 81       	ldd	r27, Y+1	; 0x01
 cb6:	ce 0f       	add	r28, r30
 cb8:	d1 1d       	adc	r29, r1
 cba:	0f b6       	in	r0, 0x3f	; 63
 cbc:	f8 94       	cli
 cbe:	de bf       	out	0x3e, r29	; 62
 cc0:	0f be       	out	0x3f, r0	; 63
 cc2:	cd bf       	out	0x3d, r28	; 61
 cc4:	ed 01       	movw	r28, r26
 cc6:	08 95       	ret

00000cc8 <_exit>:
 cc8:	f8 94       	cli

00000cca <__stop_program>:
 cca:	ff cf       	rjmp	.-2      	; 0xcca <__stop_program>

Disassembly of section .data:

00800060 <__data_start>:
	...

Disassembly of section .debug_aranges:

00000000 <_end-0x800068>:
   0:	1c 00       	.word	0x001c	; ????
   2:	00 00       	nop
   4:	02 00       	.word	0x0002	; ????
   6:	00 00       	nop
   8:	00 00       	nop
   a:	04 00       	.word	0x0004	; ????
   c:	00 00       	nop
   e:	00 00       	nop
  10:	36 0b       	sbc	r19, r22
  12:	00 00       	nop
  14:	24 01       	movw	r4, r8
	...
  1e:	00 00       	nop
  20:	1c 00       	.word	0x001c	; ????
  22:	00 00       	nop
  24:	02 00       	.word	0x0002	; ????
  26:	c4 02       	muls	r28, r20
  28:	00 00       	nop
  2a:	04 00       	.word	0x0004	; ????
  2c:	00 00       	nop
  2e:	00 00       	nop
  30:	82 00       	.word	0x0082	; ????
  32:	00 00       	nop
  34:	58 00       	.word	0x0058	; ????
	...
  3e:	00 00       	nop
  40:	1c 00       	.word	0x001c	; ????
  42:	00 00       	nop
  44:	02 00       	.word	0x0002	; ????
  46:	75 03       	mulsu	r23, r21
  48:	00 00       	nop
  4a:	04 00       	.word	0x0004	; ????
  4c:	00 00       	nop
  4e:	00 00       	nop
  50:	da 00       	.word	0x00da	; ????
  52:	00 00       	nop
  54:	54 03       	mulsu	r21, r20
	...
  5e:	00 00       	nop
  60:	1c 00       	.word	0x001c	; ????
  62:	00 00       	nop
  64:	02 00       	.word	0x0002	; ????
  66:	ef 07       	cpc	r30, r31
  68:	00 00       	nop
  6a:	04 00       	.word	0x0004	; ????
  6c:	00 00       	nop
  6e:	00 00       	nop
  70:	2e 04       	cpc	r2, r14
  72:	00 00       	nop
  74:	f4 01       	movw	r30, r8
	...
  7e:	00 00       	nop
  80:	1c 00       	.word	0x001c	; ????
  82:	00 00       	nop
  84:	02 00       	.word	0x0002	; ????
  86:	74 0c       	add	r7, r4
  88:	00 00       	nop
  8a:	04 00       	.word	0x0004	; ????
  8c:	00 00       	nop
  8e:	00 00       	nop
  90:	22 06       	cpc	r2, r18
  92:	00 00       	nop
  94:	60 00       	.word	0x0060	; ????
	...
  9e:	00 00       	nop
  a0:	1c 00       	.word	0x001c	; ????
  a2:	00 00       	nop
  a4:	02 00       	.word	0x0002	; ????
  a6:	f3 0e       	add	r15, r19
  a8:	00 00       	nop
  aa:	04 00       	.word	0x0004	; ????
  ac:	00 00       	nop
  ae:	00 00       	nop
  b0:	82 06       	cpc	r8, r18
  b2:	00 00       	nop
  b4:	60 00       	.word	0x0060	; ????
	...
  be:	00 00       	nop
  c0:	1c 00       	.word	0x001c	; ????
  c2:	00 00       	nop
  c4:	02 00       	.word	0x0002	; ????
  c6:	72 11       	cpse	r23, r2
  c8:	00 00       	nop
  ca:	04 00       	.word	0x0004	; ????
  cc:	00 00       	nop
  ce:	00 00       	nop
  d0:	e2 06       	cpc	r14, r18
  d2:	00 00       	nop
  d4:	60 00       	.word	0x0060	; ????
	...
  de:	00 00       	nop
  e0:	1c 00       	.word	0x001c	; ????
  e2:	00 00       	nop
  e4:	02 00       	.word	0x0002	; ????
  e6:	f1 13       	cpse	r31, r17
  e8:	00 00       	nop
  ea:	04 00       	.word	0x0004	; ????
  ec:	00 00       	nop
  ee:	00 00       	nop
  f0:	42 07       	cpc	r20, r18
  f2:	00 00       	nop
  f4:	a8 00       	.word	0x00a8	; ????
	...
  fe:	00 00       	nop
 100:	1c 00       	.word	0x001c	; ????
 102:	00 00       	nop
 104:	02 00       	.word	0x0002	; ????
 106:	cd 17       	cp	r28, r29
 108:	00 00       	nop
 10a:	04 00       	.word	0x0004	; ????
 10c:	00 00       	nop
 10e:	00 00       	nop
 110:	ea 07       	cpc	r30, r26
 112:	00 00       	nop
 114:	aa 01       	movw	r20, r20
	...
 11e:	00 00       	nop
 120:	1c 00       	.word	0x001c	; ????
 122:	00 00       	nop
 124:	02 00       	.word	0x0002	; ????
 126:	ac 1a       	sub	r10, r28
 128:	00 00       	nop
 12a:	04 00       	.word	0x0004	; ????
 12c:	00 00       	nop
 12e:	00 00       	nop
 130:	94 09       	sbc	r25, r4
 132:	00 00       	nop
 134:	f0 00       	.word	0x00f0	; ????
	...
 13e:	00 00       	nop
 140:	1c 00       	.word	0x001c	; ????
 142:	00 00       	nop
 144:	02 00       	.word	0x0002	; ????
 146:	fd 1c       	adc	r15, r13
 148:	00 00       	nop
 14a:	04 00       	.word	0x0004	; ????
 14c:	00 00       	nop
 14e:	00 00       	nop
 150:	84 0a       	sbc	r8, r20
 152:	00 00       	nop
 154:	b2 00       	.word	0x00b2	; ????
	...

Disassembly of section .debug_pubnames:

00000000 <.debug_pubnames>:
   0:	17 00       	.word	0x0017	; ????
   2:	00 00       	nop
   4:	02 00       	.word	0x0002	; ????
   6:	00 00       	nop
   8:	00 00       	nop
   a:	c4 02       	muls	r28, r20
   c:	00 00       	nop
   e:	46 02       	muls	r20, r22
  10:	00 00       	nop
  12:	6d 61       	ori	r22, 0x1D	; 29
  14:	69 6e       	ori	r22, 0xE9	; 233
  16:	00 00       	nop
  18:	00 00       	nop
  1a:	00 1f       	adc	r16, r16
  1c:	00 00       	nop
  1e:	00 02       	muls	r16, r16
  20:	00 c4       	rjmp	.+2048   	; 0x822 <__pack_f+0x38>
  22:	02 00       	.word	0x0002	; ????
  24:	00 b1       	in	r16, 0x00	; 0
  26:	00 00       	nop
  28:	00 88       	ldd	r0, Z+16	; 0x10
  2a:	00 00       	nop
  2c:	00 5f       	subi	r16, 0xF0	; 240
  2e:	5f 66       	ori	r21, 0x6F	; 111
  30:	69 78       	andi	r22, 0x89	; 137
  32:	75 6e       	ori	r23, 0xE5	; 229
  34:	73 73       	andi	r23, 0x33	; 51
  36:	66 73       	andi	r22, 0x36	; 54
  38:	69 00       	.word	0x0069	; ????
  3a:	00 00       	nop
  3c:	00 00       	nop
  3e:	28 00       	.word	0x0028	; ????
  40:	00 00       	nop
  42:	02 00       	.word	0x0002	; ????
  44:	75 03       	mulsu	r23, r21
  46:	00 00       	nop
  48:	7a 04       	cpc	r7, r10
  4a:	00 00       	nop
  4c:	49 03       	fmul	r20, r17
  4e:	00 00       	nop
  50:	5f 5f       	subi	r21, 0xFF	; 255
  52:	73 75       	andi	r23, 0x53	; 83
  54:	62 73       	andi	r22, 0x32	; 50
  56:	66 33       	cpi	r22, 0x36	; 54
  58:	00 d8       	rcall	.-4096   	; 0xfffff05a <__eeprom_end+0xff7ef05a>
  5a:	03 00       	.word	0x0003	; ????
  5c:	00 5f       	subi	r16, 0xF0	; 240
  5e:	5f 61       	ori	r21, 0x1F	; 31
  60:	64 64       	ori	r22, 0x44	; 68
  62:	73 66       	ori	r23, 0x63	; 99
  64:	33 00       	.word	0x0033	; ????
  66:	00 00       	nop
  68:	00 00       	nop
  6a:	1b 00       	.word	0x001b	; ????
  6c:	00 00       	nop
  6e:	02 00       	.word	0x0002	; ????
  70:	ef 07       	cpc	r30, r31
  72:	00 00       	nop
  74:	85 04       	cpc	r8, r5
  76:	00 00       	nop
  78:	13 03       	mulsu	r17, r19
  7a:	00 00       	nop
  7c:	5f 5f       	subi	r21, 0xFF	; 255
  7e:	6d 75       	andi	r22, 0x5D	; 93
  80:	6c 73       	andi	r22, 0x3C	; 60
  82:	66 33       	cpi	r22, 0x36	; 54
  84:	00 00       	nop
  86:	00 00       	nop
  88:	00 1a       	sub	r0, r16
  8a:	00 00       	nop
  8c:	00 02       	muls	r16, r16
  8e:	00 74       	andi	r16, 0x40	; 64
  90:	0c 00       	.word	0x000c	; ????
  92:	00 7f       	andi	r16, 0xF0	; 240
  94:	02 00       	.word	0x0002	; ????
  96:	00 f8       	bld	r0, 0
  98:	01 00       	.word	0x0001	; ????
  9a:	00 5f       	subi	r16, 0xF0	; 240
  9c:	5f 67       	ori	r21, 0x7F	; 127
  9e:	74 73       	andi	r23, 0x34	; 52
  a0:	66 32       	cpi	r22, 0x26	; 38
  a2:	00 00       	nop
  a4:	00 00       	nop
  a6:	00 1a       	sub	r0, r16
  a8:	00 00       	nop
  aa:	00 02       	muls	r16, r16
  ac:	00 f3       	brcs	.-64     	; 0x6e <.do_copy_data_loop+0x2>
  ae:	0e 00       	.word	0x000e	; ????
  b0:	00 7f       	andi	r16, 0xF0	; 240
  b2:	02 00       	.word	0x0002	; ????
  b4:	00 f8       	bld	r0, 0
  b6:	01 00       	.word	0x0001	; ????
  b8:	00 5f       	subi	r16, 0xF0	; 240
  ba:	5f 67       	ori	r21, 0x7F	; 127
  bc:	65 73       	andi	r22, 0x35	; 53
  be:	66 32       	cpi	r22, 0x26	; 38
  c0:	00 00       	nop
  c2:	00 00       	nop
  c4:	00 1a       	sub	r0, r16
  c6:	00 00       	nop
  c8:	00 02       	muls	r16, r16
  ca:	00 72       	andi	r16, 0x20	; 32
  cc:	11 00       	.word	0x0011	; ????
  ce:	00 7f       	andi	r16, 0xF0	; 240
  d0:	02 00       	.word	0x0002	; ????
  d2:	00 f8       	bld	r0, 0
  d4:	01 00       	.word	0x0001	; ????
  d6:	00 5f       	subi	r16, 0xF0	; 240
  d8:	5f 6c       	ori	r21, 0xCF	; 207
  da:	74 73       	andi	r23, 0x34	; 52
  dc:	66 32       	cpi	r22, 0x26	; 38
  de:	00 00       	nop
  e0:	00 00       	nop
  e2:	00 1c       	adc	r0, r0
  e4:	00 00       	nop
  e6:	00 02       	muls	r16, r16
  e8:	00 f1       	brcs	.+64     	; 0x12a <_fpadd_parts+0x50>
  ea:	13 00       	.word	0x0013	; ????
  ec:	00 b0       	in	r0, 0x00	; 0
  ee:	02 00       	.word	0x0002	; ????
  f0:	00 2e       	mov	r0, r16
  f2:	02 00       	.word	0x0002	; ????
  f4:	00 5f       	subi	r16, 0xF0	; 240
  f6:	5f 66       	ori	r21, 0x6F	; 111
  f8:	69 78       	andi	r22, 0x89	; 137
  fa:	73 66       	ori	r23, 0x63	; 99
  fc:	73 69       	ori	r23, 0x93	; 147
  fe:	00 00       	nop
 100:	00 00       	nop
 102:	00 1e       	adc	r0, r16
 104:	00 00       	nop
 106:	00 02       	muls	r16, r16
 108:	00 a1       	ldd	r16, Z+32	; 0x20
 10a:	16 00       	.word	0x0016	; ????
 10c:	00 2c       	mov	r0, r0
 10e:	01 00       	.word	0x0001	; ????
 110:	00 14       	cp	r0, r0
 112:	01 00       	.word	0x0001	; ????
 114:	00 5f       	subi	r16, 0xF0	; 240
 116:	5f 74       	andi	r21, 0x4F	; 79
 118:	68 65       	ori	r22, 0x58	; 88
 11a:	6e 61       	ori	r22, 0x1E	; 30
 11c:	6e 5f       	subi	r22, 0xFE	; 254
 11e:	73 66       	ori	r23, 0x63	; 99
 120:	00 00       	nop
 122:	00 00       	nop
 124:	00 1b       	sub	r16, r16
 126:	00 00       	nop
 128:	00 02       	muls	r16, r16
 12a:	00 cd       	rjmp	.-1536   	; 0xfffffb2c <__eeprom_end+0xff7efb2c>
 12c:	17 00       	.word	0x0017	; ????
 12e:	00 df       	rcall	.-512    	; 0xffffff30 <__eeprom_end+0xff7eff30>
 130:	02 00       	.word	0x0002	; ????
 132:	00 23       	and	r16, r16
 134:	02 00       	.word	0x0002	; ????
 136:	00 5f       	subi	r16, 0xF0	; 240
 138:	5f 70       	andi	r21, 0x0F	; 15
 13a:	61 63       	ori	r22, 0x31	; 49
 13c:	6b 5f       	subi	r22, 0xFB	; 251
 13e:	66 00       	.word	0x0066	; ????
 140:	00 00       	nop
 142:	00 00       	nop
 144:	1d 00       	.word	0x001d	; ????
 146:	00 00       	nop
 148:	02 00       	.word	0x0002	; ????
 14a:	ac 1a       	sub	r10, r28
 14c:	00 00       	nop
 14e:	51 02       	muls	r21, r17
 150:	00 00       	nop
 152:	cc 01       	movw	r24, r24
 154:	00 00       	nop
 156:	5f 5f       	subi	r21, 0xFF	; 255
 158:	75 6e       	ori	r23, 0xE5	; 229
 15a:	70 61       	ori	r23, 0x10	; 16
 15c:	63 6b       	ori	r22, 0xB3	; 179
 15e:	5f 66       	ori	r21, 0x6F	; 111
 160:	00 00       	nop
 162:	00 00       	nop
 164:	00 22       	and	r0, r16
 166:	00 00       	nop
 168:	00 02       	muls	r16, r16
 16a:	00 fd       	sbrc	r16, 0
 16c:	1c 00       	.word	0x001c	; ????
 16e:	00 10       	cpse	r0, r0
 170:	02 00       	.word	0x0002	; ????
 172:	00 93 01 00 	sts	0x0001, r16
 176:	00 5f       	subi	r16, 0xF0	; 240
 178:	5f 66       	ori	r21, 0x6F	; 111
 17a:	70 63       	ori	r23, 0x30	; 48
 17c:	6d 70       	andi	r22, 0x0D	; 13
 17e:	5f 70       	andi	r21, 0x0F	; 15
 180:	61 72       	andi	r22, 0x21	; 33
 182:	74 73       	andi	r23, 0x34	; 52
 184:	5f 66       	ori	r21, 0x6F	; 111
 186:	00 00       	nop
 188:	00 00       	nop
	...

Disassembly of section .debug_info:

00000000 <.debug_info>:
       0:	c0 02       	muls	r28, r16
       2:	00 00       	nop
       4:	02 00       	.word	0x0002	; ????
       6:	00 00       	nop
       8:	00 00       	nop
       a:	04 01       	movw	r0, r8
       c:	e5 00       	.word	0x00e5	; ????
       e:	00 00       	nop
      10:	01 68       	ori	r16, 0x81	; 129
      12:	02 00       	.word	0x0002	; ????
      14:	00 43       	sbci	r16, 0x30	; 48
      16:	01 00       	.word	0x0001	; ????
	...
      2c:	00 02       	muls	r16, r16
      2e:	01 06       	cpc	r0, r17
      30:	a8 00       	.word	0x00a8	; ????
      32:	00 00       	nop
      34:	02 01       	movw	r0, r4
      36:	08 a6       	std	Y+40, r0	; 0x28
      38:	00 00       	nop
      3a:	00 03       	mulsu	r16, r16
      3c:	02 05       	cpc	r16, r2
      3e:	69 6e       	ori	r22, 0xE9	; 233
      40:	74 00       	.word	0x0074	; ????
      42:	04 8b       	std	Z+20, r16	; 0x14
      44:	02 00       	.word	0x0002	; ????
      46:	00 04       	cpc	r0, r0
      48:	7c 4d       	sbci	r23, 0xDC	; 220
      4a:	00 00       	nop
      4c:	00 02       	muls	r16, r16
      4e:	02 07       	cpc	r16, r18
      50:	dd 01       	movw	r26, r26
      52:	00 00       	nop
      54:	02 04       	cpc	r0, r2
      56:	05 3c       	cpi	r16, 0xC5	; 197
      58:	02 00       	.word	0x0002	; ????
      5a:	00 02       	muls	r16, r16
      5c:	04 07       	cpc	r16, r20
      5e:	d8 01       	movw	r26, r16
      60:	00 00       	nop
      62:	02 08       	sbc	r0, r2
      64:	05 37       	cpi	r16, 0x75	; 117
      66:	02 00       	.word	0x0002	; ????
      68:	00 02       	muls	r16, r16
      6a:	08 07       	cpc	r16, r24
      6c:	d3 01       	movw	r26, r6
      6e:	00 00       	nop
      70:	05 e3       	ldi	r16, 0x35	; 53
      72:	02 00       	.word	0x0002	; ????
      74:	00 01       	movw	r0, r0
      76:	0f 11       	cpse	r16, r15
      78:	8a 00       	.word	0x008a	; ????
      7a:	00 00       	nop
      7c:	06 74       	andi	r16, 0x46	; 70
      7e:	00 00       	nop
      80:	00 00       	nop
      82:	06 2c       	mov	r0, r6
      84:	02 00       	.word	0x0002	; ????
      86:	00 c0       	rjmp	.+0      	; 0x88 <__fixunssfsi+0x6>
      88:	00 00       	nop
      8a:	05 0e       	add	r0, r21
      8c:	00 00       	nop
      8e:	00 01       	movw	r0, r0
      90:	0f 16       	cp	r0, r31
      92:	a3 00       	.word	0x00a3	; ????
      94:	00 00       	nop
      96:	06 03       	mulsu	r16, r22
      98:	01 00       	.word	0x0001	; ????
      9a:	00 00       	nop
      9c:	06 f2       	brts	.-128    	; 0x1e <__zero_reg__+0x1d>
      9e:	01 00       	.word	0x0001	; ????
      a0:	00 01       	movw	r0, r0
      a2:	00 05       	cpc	r16, r0
      a4:	b4 02       	muls	r27, r20
      a6:	00 00       	nop
      a8:	01 0f       	add	r16, r17
      aa:	1b bc       	out	0x2b, r1	; 43
      ac:	00 00       	nop
      ae:	00 06       	cpc	r0, r16
      b0:	16 01       	movw	r2, r12
      b2:	00 00       	nop
      b4:	00 06       	cpc	r0, r16
      b6:	16 02       	muls	r17, r22
      b8:	00 00       	nop
      ba:	01 00       	.word	0x0001	; ????
      bc:	05 f4       	brhc	.+0      	; 0xbe <__fixunssfsi+0x3c>
      be:	02 00       	.word	0x0002	; ????
      c0:	00 01       	movw	r0, r0
      c2:	0f 20       	and	r0, r15
      c4:	d5 00       	.word	0x00d5	; ????
      c6:	00 00       	nop
      c8:	06 2d       	mov	r16, r6
      ca:	01 00       	.word	0x0001	; ????
      cc:	00 00       	nop
      ce:	06 be       	out	0x36, r0	; 54
      d0:	01 00       	.word	0x0001	; ????
      d2:	00 01       	movw	r0, r0
      d4:	00 05       	cpc	r16, r0
      d6:	c3 02       	muls	r28, r19
      d8:	00 00       	nop
      da:	01 0f       	add	r16, r17
      dc:	25 00       	.word	0x0025	; ????
      de:	01 00       	.word	0x0001	; ????
      e0:	00 06       	cpc	r0, r16
      e2:	7a 02       	muls	r23, r26
      e4:	00 00       	nop
      e6:	00 06       	cpc	r0, r16
      e8:	05 02       	muls	r16, r21
      ea:	00 00       	nop
      ec:	02 06       	cpc	r0, r18
      ee:	91 01       	movw	r18, r2
      f0:	00 00       	nop
      f2:	04 06       	cpc	r0, r20
      f4:	d4 00       	.word	0x00d4	; ????
      f6:	00 00       	nop
      f8:	06 06       	cpc	r0, r22
      fa:	42 00       	.word	0x0042	; ????
      fc:	00 00       	nop
      fe:	06 00       	.word	0x0006	; ????
     100:	05 f1       	brhs	.+64     	; 0x142 <_fpadd_parts+0x68>
     102:	00 00       	nop
     104:	00 01       	movw	r0, r0
     106:	0f 2d       	mov	r16, r15
     108:	1f 01       	movw	r2, r30
     10a:	00 00       	nop
     10c:	06 53       	subi	r16, 0x36	; 54
     10e:	00 00       	nop
     110:	00 00       	nop
     112:	06 b4       	in	r0, 0x26	; 38
     114:	00 00       	nop
     116:	00 20       	and	r0, r0
     118:	06 63       	ori	r16, 0x36	; 54
     11a:	00 00       	nop
     11c:	00 30       	cpi	r16, 0x00	; 0
     11e:	00 05       	cpc	r16, r0
     120:	00 00       	nop
     122:	00 00       	nop
     124:	01 0f       	add	r16, r17
     126:	33 38       	cpi	r19, 0x83	; 131
     128:	01 00       	.word	0x0001	; ????
     12a:	00 06       	cpc	r0, r16
     12c:	d3 02       	muls	r29, r19
     12e:	00 00       	nop
     130:	00 06       	cpc	r0, r16
     132:	96 00       	.word	0x0096	; ????
     134:	00 00       	nop
     136:	08 00       	.word	0x0008	; ????
     138:	05 1f       	adc	r16, r21
     13a:	00 00       	nop
     13c:	00 01       	movw	r0, r0
     13e:	0f 38       	cpi	r16, 0x8F	; 143
     140:	52 01       	movw	r10, r4
     142:	00 00       	nop
     144:	06 45       	sbci	r16, 0x56	; 86
     146:	02 00       	.word	0x0002	; ????
     148:	00 80       	ld	r0, Z
     14a:	01 06       	cpc	r0, r17
     14c:	a7 01       	movw	r20, r14
     14e:	00 00       	nop
     150:	00 00       	nop
     152:	05 81       	ldd	r16, Z+5	; 0x05
     154:	00 00       	nop
     156:	00 01       	movw	r0, r0
     158:	0f 3d       	cpi	r16, 0xDF	; 223
     15a:	6c 01       	movw	r12, r24
     15c:	00 00       	nop
     15e:	06 9c       	mul	r0, r6
     160:	02 00       	.word	0x0002	; ????
     162:	00 c0       	rjmp	.+0      	; 0x164 <_fpadd_parts+0x8a>
     164:	00 06       	cpc	r0, r16
     166:	78 01       	movw	r14, r16
     168:	00 00       	nop
     16a:	00 00       	nop
     16c:	07 5b       	subi	r16, 0xB7	; 183
     16e:	02 00       	.word	0x0002	; ????
     170:	00 09       	sbc	r16, r0
     172:	0f 43       	sbci	r16, 0x3F	; 63
     174:	f7 01       	movw	r30, r14
     176:	00 00       	nop
     178:	08 e9       	ldi	r16, 0x98	; 152
     17a:	02 00       	.word	0x0002	; ????
     17c:	00 0f       	add	r16, r16
     17e:	44 70       	andi	r20, 0x04	; 4
     180:	00 00       	nop
     182:	00 02       	muls	r16, r16
     184:	23 00       	.word	0x0023	; ????
     186:	08 14       	cp	r0, r8
     188:	00 00       	nop
     18a:	00 0f       	add	r16, r16
     18c:	45 8a       	std	Z+21, r4	; 0x15
     18e:	00 00       	nop
     190:	00 02       	muls	r16, r16
     192:	23 01       	movw	r4, r6
     194:	08 ba       	out	0x18, r0	; 24
     196:	02 00       	.word	0x0002	; ????
     198:	00 0f       	add	r16, r16
     19a:	46 a3       	std	Z+38, r20	; 0x26
     19c:	00 00       	nop
     19e:	00 02       	muls	r16, r16
     1a0:	23 02       	muls	r18, r19
     1a2:	08 fa       	.word	0xfa08	; ????
     1a4:	02 00       	.word	0x0002	; ????
     1a6:	00 0f       	add	r16, r16
     1a8:	47 bc       	out	0x27, r4	; 39
     1aa:	00 00       	nop
     1ac:	00 02       	muls	r16, r16
     1ae:	23 03       	mulsu	r18, r19
     1b0:	08 c9       	rjmp	.-3568   	; 0xfffff3c2 <__eeprom_end+0xff7ef3c2>
     1b2:	02 00       	.word	0x0002	; ????
     1b4:	00 0f       	add	r16, r16
     1b6:	48 d5       	rcall	.+2704   	; 0xc48 <main+0x112>
     1b8:	00 00       	nop
     1ba:	00 02       	muls	r16, r16
     1bc:	23 04       	cpc	r2, r3
     1be:	08 f7       	brcc	.-62     	; 0x182 <_fpadd_parts+0xa8>
     1c0:	00 00       	nop
     1c2:	00 0f       	add	r16, r16
     1c4:	49 00       	.word	0x0049	; ????
     1c6:	01 00       	.word	0x0001	; ????
     1c8:	00 02       	muls	r16, r16
     1ca:	23 05       	cpc	r18, r3
     1cc:	08 db       	rcall	.-2544   	; 0xfffff7de <__eeprom_end+0xff7ef7de>
     1ce:	02 00       	.word	0x0002	; ????
     1d0:	00 0f       	add	r16, r16
     1d2:	4a 1f       	adc	r20, r26
     1d4:	01 00       	.word	0x0001	; ????
     1d6:	00 02       	muls	r16, r16
     1d8:	23 06       	cpc	r2, r19
     1da:	08 25       	eor	r16, r8
     1dc:	00 00       	nop
     1de:	00 0f       	add	r16, r16
     1e0:	4b 38       	cpi	r20, 0x8B	; 139
     1e2:	01 00       	.word	0x0001	; ????
     1e4:	00 02       	muls	r16, r16
     1e6:	23 07       	cpc	r18, r19
     1e8:	08 87       	std	Y+8, r16	; 0x08
     1ea:	00 00       	nop
     1ec:	00 0f       	add	r16, r16
     1ee:	4c 52       	subi	r20, 0x2C	; 44
     1f0:	01 00       	.word	0x0001	; ????
     1f2:	00 02       	muls	r16, r16
     1f4:	23 08       	sbc	r2, r3
     1f6:	00 09       	sbc	r16, r0
     1f8:	31 00       	.word	0x0031	; ????
     1fa:	00 00       	nop
     1fc:	02 6f       	ori	r16, 0xF2	; 242
     1fe:	01 02       	muls	r16, r17
     200:	26 02       	muls	r18, r22
     202:	00 00       	nop
     204:	0a 02       	muls	r16, r26
     206:	03 00       	.word	0x0003	; ????
     208:	00 02       	muls	r16, r16
     20a:	6e 26       	eor	r6, r30
     20c:	02 00       	.word	0x0002	; ????
     20e:	00 0b       	sbc	r16, r16
     210:	94 02       	muls	r25, r20
     212:	00 00       	nop
     214:	02 70       	andi	r16, 0x02	; 2
     216:	42 00       	.word	0x0042	; ????
     218:	00 00       	nop
     21a:	0b 72       	andi	r16, 0x2B	; 43
     21c:	01 00       	.word	0x0001	; ????
     21e:	00 02       	muls	r16, r16
     220:	71 26       	eor	r7, r17
     222:	02 00       	.word	0x0002	; ????
     224:	00 00       	nop
     226:	02 04       	cpc	r0, r2
     228:	04 3b       	cpi	r16, 0xB4	; 180
     22a:	00 00       	nop
     22c:	00 09       	sbc	r16, r0
     22e:	c6 00       	.word	0x00c6	; ????
     230:	00 00       	nop
     232:	05 68       	ori	r16, 0x85	; 133
     234:	01 02       	muls	r16, r17
     236:	46 02       	muls	r20, r22
     238:	00 00       	nop
     23a:	0a 72       	andi	r16, 0x2A	; 42
     23c:	02 00       	.word	0x0002	; ????
     23e:	00 05       	cpc	r16, r0
     240:	67 42       	sbci	r22, 0x27	; 39
     242:	00 00       	nop
     244:	00 00       	nop
     246:	0c 01       	movw	r0, r24
     248:	a2 01       	movw	r20, r4
     24a:	00 00       	nop
     24c:	01 11       	cpse	r16, r1
     24e:	01 3b       	cpi	r16, 0xB1	; 177
     250:	00 00       	nop
     252:	00 36       	cpi	r16, 0x60	; 96
     254:	0b 00       	.word	0x000b	; ????
     256:	00 5a       	subi	r16, 0xA0	; 160
     258:	0c 00       	.word	0x000c	; ????
     25a:	00 02       	muls	r16, r16
     25c:	90 20       	and	r9, r0
     25e:	0d ea       	ldi	r16, 0xAD	; 173
     260:	01 00       	.word	0x0001	; ????
     262:	00 01       	movw	r0, r0
     264:	12 34       	cpi	r17, 0x42	; 66
     266:	00 00       	nop
     268:	00 02       	muls	r16, r16
     26a:	8c 0f       	add	r24, r28
     26c:	0d 61       	ori	r16, 0x1D	; 29
     26e:	02 00       	.word	0x0002	; ????
     270:	00 01       	movw	r0, r0
     272:	13 6c       	ori	r17, 0xC3	; 195
     274:	01 00       	.word	0x0001	; ????
     276:	00 02       	muls	r16, r16
     278:	8c 10       	cpse	r8, r12
     27a:	0e f7       	brtc	.-62     	; 0x23e <_fpadd_parts+0x164>
     27c:	01 00       	.word	0x0001	; ????
     27e:	00 84       	ldd	r0, Z+8	; 0x08
     280:	0b 00       	.word	0x000b	; ????
     282:	00 5a       	subi	r16, 0xA0	; 160
     284:	0c 00       	.word	0x000c	; ????
     286:	00 01       	movw	r0, r0
     288:	28 0f       	add	r18, r24
     28a:	84 0b       	sbc	r24, r20
     28c:	00 00       	nop
     28e:	5a 0c       	add	r5, r10
     290:	00 00       	nop
     292:	10 0f       	add	r17, r16
     294:	02 00       	.word	0x0002	; ????
     296:	00 02       	muls	r16, r16
     298:	8c 05       	cpc	r24, r12
     29a:	10 1a       	sub	r1, r16
     29c:	02 00       	.word	0x0002	; ????
     29e:	00 02       	muls	r16, r16
     2a0:	8c 07       	cpc	r24, r28
     2a2:	11 2d       	mov	r17, r1
     2a4:	02 00       	.word	0x0002	; ????
     2a6:	00 10       	cpse	r0, r0
     2a8:	0c 00       	.word	0x000c	; ????
     2aa:	00 1c       	adc	r0, r0
     2ac:	0c 00       	.word	0x000c	; ????
     2ae:	00 02       	muls	r16, r16
     2b0:	7b 11       	cpse	r23, r11
     2b2:	2d 02       	muls	r18, r29
     2b4:	00 00       	nop
     2b6:	4c 0c       	add	r4, r12
     2b8:	00 00       	nop
     2ba:	5a 0c       	add	r5, r10
     2bc:	00 00       	nop
     2be:	02 82       	std	Z+2, r0	; 0x02
     2c0:	00 00       	nop
     2c2:	00 00       	nop
     2c4:	ad 00       	.word	0x00ad	; ????
     2c6:	00 00       	nop
     2c8:	02 00       	.word	0x0002	; ????
     2ca:	f2 00       	.word	0x00f2	; ????
     2cc:	00 00       	nop
     2ce:	04 01       	movw	r0, r8
     2d0:	e5 00       	.word	0x00e5	; ????
     2d2:	00 00       	nop
     2d4:	01 59       	subi	r16, 0x91	; 145
     2d6:	03 00       	.word	0x0003	; ????
     2d8:	00 07       	cpc	r16, r16
     2da:	03 00       	.word	0x0003	; ????
     2dc:	00 82       	st	Z, r0
     2de:	00 00       	nop
     2e0:	00 da       	rcall	.-3072   	; 0xfffff6e2 <__eeprom_end+0xff7ef6e2>
     2e2:	00 00       	nop
     2e4:	00 92 02 00 	sts	0x0002, r0
     2e8:	00 02       	muls	r16, r16
     2ea:	02 05       	cpc	r16, r2
     2ec:	69 6e       	ori	r22, 0xE9	; 233
     2ee:	74 00       	.word	0x0074	; ????
     2f0:	03 02       	muls	r16, r19
     2f2:	07 dd       	rcall	.-1522   	; 0xfffffd02 <__eeprom_end+0xff7efd02>
     2f4:	01 00       	.word	0x0001	; ????
     2f6:	00 03       	mulsu	r16, r16
     2f8:	01 06       	cpc	r0, r17
     2fa:	af 00       	.word	0x00af	; ????
     2fc:	00 00       	nop
     2fe:	03 01       	movw	r0, r6
     300:	06 a8       	ldd	r0, Z+54	; 0x36
     302:	00 00       	nop
     304:	00 03       	mulsu	r16, r16
     306:	01 08       	sbc	r0, r1
     308:	a6 00       	.word	0x00a6	; ????
     30a:	00 00       	nop
     30c:	03 04       	cpc	r0, r3
     30e:	05 3c       	cpi	r16, 0xC5	; 197
     310:	02 00       	.word	0x0002	; ????
     312:	00 04       	cpc	r0, r0
     314:	51 03       	mulsu	r21, r17
     316:	00 00       	nop
     318:	02 92       	st	-Z, r0
     31a:	5a 00       	.word	0x005a	; ????
     31c:	00 00       	nop
     31e:	03 04       	cpc	r0, r3
     320:	07 d8       	rcall	.-4082   	; 0xfffff330 <__eeprom_end+0xff7ef330>
     322:	01 00       	.word	0x0001	; ????
     324:	00 03       	mulsu	r16, r16
     326:	08 05       	cpc	r16, r8
     328:	37 02       	muls	r19, r23
     32a:	00 00       	nop
     32c:	03 08       	sbc	r0, r3
     32e:	07 d3       	rcall	.+1550   	; 0x93e <__stack+0xdf>
     330:	01 00       	.word	0x0001	; ????
     332:	00 04       	cpc	r0, r0
     334:	4a 03       	fmul	r20, r18
     336:	00 00       	nop
     338:	02 a0       	ldd	r0, Z+34	; 0x22
     33a:	7a 00       	.word	0x007a	; ????
     33c:	00 00       	nop
     33e:	03 04       	cpc	r0, r3
     340:	04 44       	sbci	r16, 0x44	; 68
     342:	03 00       	.word	0x0003	; ????
     344:	00 03       	mulsu	r16, r16
     346:	08 03       	fmul	r16, r16
     348:	3c 03       	fmul	r19, r20
     34a:	00 00       	nop
     34c:	05 01       	movw	r0, r10
     34e:	2f 03       	fmul	r18, r23
     350:	00 00       	nop
     352:	01 a5       	ldd	r16, Z+41	; 0x29
     354:	06 01       	movw	r0, r12
     356:	4f 00       	.word	0x004f	; ????
     358:	00 00       	nop
     35a:	82 00       	.word	0x0082	; ????
     35c:	00 00       	nop
     35e:	da 00       	.word	0x00da	; ????
     360:	00 00       	nop
     362:	02 90       	ld	r0, -Z
     364:	20 06       	cpc	r2, r16
     366:	61 00       	.word	0x0061	; ????
     368:	01 a4       	ldd	r0, Z+41	; 0x29
     36a:	06 6f       	ori	r16, 0xF6	; 246
	...
     374:	00 76       	andi	r16, 0x60	; 96
     376:	04 00       	.word	0x0004	; ????
     378:	00 02       	muls	r16, r16
     37a:	00 4f       	sbci	r16, 0xF0	; 240
     37c:	01 00       	.word	0x0001	; ????
     37e:	00 04       	cpc	r0, r0
     380:	01 e5       	ldi	r16, 0x51	; 81
     382:	00 00       	nop
     384:	00 01       	movw	r0, r0
     386:	fd 03       	fmulsu	r23, r21
     388:	00 00       	nop
     38a:	07 03       	mulsu	r16, r23
     38c:	00 00       	nop
     38e:	da 00       	.word	0x00da	; ????
     390:	00 00       	nop
     392:	2e 04       	cpc	r2, r14
     394:	00 00       	nop
     396:	39 03       	fmul	r19, r17
     398:	00 00       	nop
     39a:	02 01       	movw	r0, r4
     39c:	06 a8       	ldd	r0, Z+54	; 0x36
     39e:	00 00       	nop
     3a0:	00 03       	mulsu	r16, r16
     3a2:	02 05       	cpc	r16, r2
     3a4:	69 6e       	ori	r22, 0xE9	; 233
     3a6:	74 00       	.word	0x0074	; ????
     3a8:	02 01       	movw	r0, r4
     3aa:	06 af       	std	Z+62, r16	; 0x3e
     3ac:	00 00       	nop
     3ae:	00 04       	cpc	r0, r0
     3b0:	4a 03       	fmul	r20, r18
     3b2:	00 00       	nop
     3b4:	02 61       	ori	r16, 0x12	; 18
     3b6:	45 00       	.word	0x0045	; ????
     3b8:	00 00       	nop
     3ba:	02 04       	cpc	r0, r2
     3bc:	04 44       	sbci	r16, 0x44	; 68
     3be:	03 00       	.word	0x0003	; ????
     3c0:	00 04       	cpc	r0, r0
     3c2:	52 03       	mulsu	r21, r18
     3c4:	00 00       	nop
     3c6:	02 68       	ori	r16, 0x82	; 130
     3c8:	57 00       	.word	0x0057	; ????
     3ca:	00 00       	nop
     3cc:	02 04       	cpc	r0, r2
     3ce:	05 3c       	cpi	r16, 0xC5	; 197
     3d0:	02 00       	.word	0x0002	; ????
     3d2:	00 04       	cpc	r0, r0
     3d4:	b6 04       	cpc	r11, r6
     3d6:	00 00       	nop
     3d8:	02 74       	andi	r16, 0x42	; 66
     3da:	69 00       	.word	0x0069	; ????
     3dc:	00 00       	nop
     3de:	02 02       	muls	r16, r18
     3e0:	07 dd       	rcall	.-1522   	; 0xfffffdf0 <__eeprom_end+0xff7efdf0>
     3e2:	01 00       	.word	0x0001	; ????
     3e4:	00 04       	cpc	r0, r0
     3e6:	51 03       	mulsu	r21, r17
     3e8:	00 00       	nop
     3ea:	02 75       	andi	r16, 0x52	; 82
     3ec:	7b 00       	.word	0x007b	; ????
     3ee:	00 00       	nop
     3f0:	02 04       	cpc	r0, r2
     3f2:	07 d8       	rcall	.-4082   	; 0xfffff402 <__eeprom_end+0xff7ef402>
     3f4:	01 00       	.word	0x0001	; ????
     3f6:	00 04       	cpc	r0, r0
     3f8:	cb 04       	cpc	r12, r11
     3fa:	00 00       	nop
     3fc:	02 c4       	rjmp	.+2052   	; 0xc02 <main+0xcc>
     3fe:	70 00       	.word	0x0070	; ????
     400:	00 00       	nop
     402:	04 c7       	rjmp	.+3592   	; 0x120c <__data_load_end+0x538>
     404:	04 00       	.word	0x0004	; ????
     406:	00 02       	muls	r16, r16
     408:	c5 5e       	subi	r28, 0xE5	; 229
     40a:	00 00       	nop
     40c:	00 04       	cpc	r0, r0
     40e:	40 04       	cpc	r4, r0
     410:	00 00       	nop
     412:	02 c6       	rjmp	.+3076   	; 0x1018 <__data_load_end+0x344>
     414:	3a 00       	.word	0x003a	; ????
     416:	00 00       	nop
     418:	04 7e       	andi	r16, 0xE4	; 228
     41a:	04 00       	.word	0x0004	; ????
     41c:	00 02       	muls	r16, r16
     41e:	c7 4c       	sbci	r28, 0xC7	; 199
     420:	00 00       	nop
     422:	00 05       	cpc	r16, r0
     424:	02 02       	muls	r16, r18
     426:	5c 01       	movw	r10, r24
     428:	d6 00       	.word	0x00d6	; ????
     42a:	00 00       	nop
     42c:	06 49       	sbci	r16, 0x96	; 150
     42e:	04 00       	.word	0x0004	; ????
     430:	00 00       	nop
     432:	06 d9       	rcall	.-3572   	; 0xfffff640 <__eeprom_end+0xff7ef640>
     434:	03 00       	.word	0x0003	; ????
     436:	00 01       	movw	r0, r0
     438:	06 96       	adiw	r24, 0x06	; 6
     43a:	03 00       	.word	0x0003	; ????
     43c:	00 02       	muls	r16, r16
     43e:	06 a9       	ldd	r16, Z+54	; 0x36
     440:	04 00       	.word	0x0004	; ????
     442:	00 03       	mulsu	r16, r16
     444:	06 86       	std	Z+14, r0	; 0x0e
     446:	04 00       	.word	0x0004	; ????
     448:	00 04       	cpc	r0, r0
     44a:	00 07       	cpc	r16, r16
     44c:	04 02       	muls	r16, r20
     44e:	71 01       	movw	r14, r2
     450:	f5 00       	.word	0x00f5	; ????
     452:	00 00       	nop
     454:	08 6c       	ori	r16, 0xC8	; 200
     456:	6c 00       	.word	0x006c	; ????
     458:	02 72       	andi	r16, 0x22	; 34
     45a:	01 82       	std	Z+1, r0	; 0x01
     45c:	00 00       	nop
     45e:	00 08       	sbc	r0, r0
     460:	6c 00       	.word	0x006c	; ????
     462:	02 73       	andi	r16, 0x32	; 50
     464:	01 f5       	brne	.+64     	; 0x4a6 <__mulsf3+0x78>
     466:	00 00       	nop
     468:	00 00       	nop
     46a:	09 8d       	ldd	r16, Y+25	; 0x19
     46c:	00 00       	nop
     46e:	00 05       	cpc	r16, r0
     470:	01 00       	.word	0x0001	; ????
     472:	00 0a       	sbc	r0, r16
     474:	05 01       	movw	r0, r10
     476:	00 00       	nop
     478:	01 00       	.word	0x0001	; ????
     47a:	0b 02       	muls	r16, r27
     47c:	07 0c       	add	r0, r7
     47e:	08 02       	muls	r16, r24
     480:	65 01       	movw	r12, r10
     482:	4e 01       	movw	r8, r28
     484:	00 00       	nop
     486:	0d c6       	rjmp	.+3098   	; 0x10a2 <__data_load_end+0x3ce>
     488:	03 00       	.word	0x0003	; ????
     48a:	00 02       	muls	r16, r16
     48c:	67 01       	movw	r12, r14
     48e:	33 00       	.word	0x0033	; ????
     490:	00 00       	nop
     492:	02 23       	and	r16, r18
     494:	00 0d       	add	r16, r0
     496:	9f 04       	cpc	r9, r15
     498:	00 00       	nop
     49a:	02 68       	ori	r16, 0x82	; 130
     49c:	01 4e       	sbci	r16, 0xE1	; 225
     49e:	01 00       	.word	0x0001	; ????
     4a0:	00 02       	muls	r16, r16
     4a2:	23 01       	movw	r4, r6
     4a4:	0d a3       	std	Y+37, r16	; 0x25
     4a6:	03 00       	.word	0x0003	; ????
     4a8:	00 02       	muls	r16, r16
     4aa:	69 01       	movw	r12, r18
     4ac:	55 01       	movw	r10, r10
     4ae:	00 00       	nop
     4b0:	02 23       	and	r16, r18
     4b2:	02 0d       	add	r16, r2
     4b4:	2d 04       	cpc	r2, r13
     4b6:	00 00       	nop
     4b8:	02 74       	andi	r16, 0x42	; 66
     4ba:	01 d6       	rcall	.+3074   	; 0x10be <__data_load_end+0x3ea>
     4bc:	00 00       	nop
     4be:	00 02       	muls	r16, r16
     4c0:	23 04       	cpc	r2, r3
     4c2:	00 02       	muls	r16, r16
     4c4:	01 08       	sbc	r0, r1
     4c6:	a6 00       	.word	0x00a6	; ????
     4c8:	00 00       	nop
     4ca:	02 02       	muls	r16, r18
     4cc:	05 95       	asr	r16
     4ce:	04 00       	.word	0x0004	; ????
     4d0:	00 0e       	add	r0, r16
     4d2:	5e 04       	cpc	r5, r14
     4d4:	00 00       	nop
     4d6:	02 75       	andi	r16, 0x52	; 82
     4d8:	01 08       	sbc	r0, r1
     4da:	01 00       	.word	0x0001	; ????
     4dc:	00 0c       	add	r0, r0
     4de:	04 02       	muls	r16, r20
     4e0:	86 01       	movw	r16, r12
     4e2:	a8 01       	movw	r20, r16
     4e4:	00 00       	nop
     4e6:	0f 2d       	mov	r16, r15
     4e8:	04 00       	.word	0x0004	; ????
     4ea:	00 02       	muls	r16, r16
     4ec:	87 01       	movw	r16, r14
     4ee:	82 00       	.word	0x0082	; ????
     4f0:	00 00       	nop
     4f2:	04 17       	cp	r16, r20
     4f4:	09 02       	muls	r16, r25
     4f6:	23 00       	.word	0x0023	; ????
     4f8:	10 65       	ori	r17, 0x50	; 80
     4fa:	78 70       	andi	r23, 0x08	; 8
     4fc:	00 02       	muls	r16, r16
     4fe:	88 01       	movw	r16, r16
     500:	69 00       	.word	0x0069	; ????
     502:	00 00       	nop
     504:	02 08       	sbc	r0, r2
     506:	01 02       	muls	r16, r17
     508:	23 02       	muls	r18, r19
     50a:	0f 9f       	mul	r16, r31
     50c:	04 00       	.word	0x0004	; ????
     50e:	00 02       	muls	r16, r16
     510:	89 01       	movw	r16, r18
     512:	69 00       	.word	0x0069	; ????
     514:	00 00       	nop
     516:	02 01       	movw	r0, r4
     518:	08 02       	muls	r16, r24
     51a:	23 03       	mulsu	r18, r19
     51c:	00 07       	cpc	r16, r16
     51e:	04 02       	muls	r16, r20
     520:	78 01       	movw	r14, r16
     522:	d6 01       	movw	r26, r12
     524:	00 00       	nop
     526:	11 78       	andi	r17, 0x81	; 129
     528:	04 00       	.word	0x0004	; ????
     52a:	00 02       	muls	r16, r16
     52c:	79 01       	movw	r14, r18
     52e:	98 00       	.word	0x0098	; ????
     530:	00 00       	nop
     532:	11 36       	cpi	r17, 0x61	; 97
     534:	04 00       	.word	0x0004	; ????
     536:	00 02       	muls	r16, r16
     538:	7a 01       	movw	r14, r20
     53a:	82 00       	.word	0x0082	; ????
     53c:	00 00       	nop
     53e:	11 a4       	ldd	r1, Z+41	; 0x29
     540:	04 00       	.word	0x0004	; ????
     542:	00 02       	muls	r16, r16
     544:	8b 01       	movw	r16, r22
     546:	68 01       	movw	r12, r16
     548:	00 00       	nop
     54a:	00 0e       	add	r0, r16
     54c:	1c 04       	cpc	r1, r12
     54e:	00 00       	nop
     550:	02 a0       	ldd	r0, Z+34	; 0x22
     552:	01 a8       	ldd	r0, Z+49	; 0x31
     554:	01 00       	.word	0x0001	; ????
     556:	00 12       	cpse	r0, r16
     558:	ae 03       	fmulsu	r18, r22
     55a:	00 00       	nop
     55c:	01 a6       	std	Z+41, r0	; 0x29
     55e:	01 2c       	mov	r0, r1
     560:	00 00       	nop
     562:	00 03       	mulsu	r16, r16
     564:	fd 01       	movw	r30, r26
     566:	00 00       	nop
     568:	13 78       	andi	r17, 0x83	; 131
     56a:	00 01       	movw	r0, r0
     56c:	a5 fd       	sbrc	r26, 5
     56e:	01 00       	.word	0x0001	; ????
     570:	00 00       	nop
     572:	14 02       	muls	r17, r20
     574:	5c 01       	movw	r10, r24
     576:	00 00       	nop
     578:	12 c0       	rjmp	.+36     	; 0x59e <__mulsf3+0x170>
     57a:	03 00       	.word	0x0003	; ????
     57c:	00 01       	movw	r0, r0
     57e:	ae 01       	movw	r20, r28
     580:	2c 00       	.word	0x002c	; ????
     582:	00 00       	nop
     584:	03 1e       	adc	r0, r19
     586:	02 00       	.word	0x0002	; ????
     588:	00 13       	cpse	r16, r16
     58a:	78 00       	.word	0x0078	; ????
     58c:	01 ad       	ldd	r16, Z+57	; 0x39
     58e:	fd 01       	movw	r30, r26
     590:	00 00       	nop
     592:	00 15       	cp	r16, r0
     594:	6e 61       	ori	r22, 0x1E	; 30
     596:	6e 00       	.word	0x006e	; ????
     598:	01 98       	cbi	0x00, 1	; 0
     59a:	01 fd       	sbrc	r16, 1
     59c:	01 00       	.word	0x0001	; ????
     59e:	00 03       	mulsu	r16, r16
     5a0:	12 15       	cp	r17, r2
     5a2:	04 00       	.word	0x0004	; ????
     5a4:	00 01       	movw	r0, r0
     5a6:	b7 01       	movw	r22, r14
     5a8:	2c 00       	.word	0x002c	; ????
     5aa:	00 00       	nop
     5ac:	03 46       	sbci	r16, 0x63	; 99
     5ae:	02 00       	.word	0x0002	; ????
     5b0:	00 13       	cpse	r16, r16
     5b2:	78 00       	.word	0x0078	; ????
     5b4:	01 b6       	in	r0, 0x31	; 49
     5b6:	fd 01       	movw	r30, r26
     5b8:	00 00       	nop
     5ba:	00 16       	cp	r0, r16
     5bc:	f0 03       	fmuls	r23, r16
     5be:	00 00       	nop
     5c0:	01 63       	ori	r16, 0x31	; 49
     5c2:	02 01       	movw	r0, r4
     5c4:	fd 01       	movw	r30, r26
     5c6:	00 00       	nop
     5c8:	da 00       	.word	0x00da	; ????
     5ca:	00 00       	nop
     5cc:	72 03       	mulsu	r23, r18
     5ce:	00 00       	nop
     5d0:	02 90       	ld	r0, -Z
     5d2:	20 49       	sbci	r18, 0x90	; 144
     5d4:	03 00       	.word	0x0003	; ????
     5d6:	00 17       	cp	r16, r16
     5d8:	61 00       	.word	0x0061	; ????
     5da:	01 60       	ori	r16, 0x01	; 1
     5dc:	02 fd       	sbrc	r16, 2
     5de:	01 00       	.word	0x0001	; ????
     5e0:	00 34       	cpi	r16, 0x40	; 64
     5e2:	00 00       	nop
     5e4:	00 17       	cp	r16, r16
     5e6:	62 00       	.word	0x0062	; ????
     5e8:	01 61       	ori	r16, 0x11	; 17
     5ea:	02 fd       	sbrc	r16, 2
     5ec:	01 00       	.word	0x0001	; ????
     5ee:	00 9c       	mul	r0, r0
     5f0:	00 00       	nop
     5f2:	00 17       	cp	r16, r16
     5f4:	74 6d       	ori	r23, 0xD4	; 212
     5f6:	70 00       	.word	0x0070	; ????
     5f8:	01 62       	ori	r16, 0x21	; 33
     5fa:	02 fd       	sbrc	r16, 2
     5fc:	01 00       	.word	0x0001	; ????
     5fe:	00 04       	cpc	r0, r0
     600:	01 00       	.word	0x0001	; ????
     602:	00 18       	sub	r0, r0
     604:	54 04       	cpc	r5, r4
     606:	00 00       	nop
     608:	01 64       	ori	r16, 0x41	; 65
     60a:	02 a3       	std	Z+34, r16	; 0x22
     60c:	00 00       	nop
     60e:	00 5c       	subi	r16, 0xC0	; 192
     610:	01 00       	.word	0x0001	; ????
     612:	00 18       	sub	r0, r0
     614:	a1 03       	fmuls	r18, r17
     616:	00 00       	nop
     618:	01 67       	ori	r16, 0x71	; 113
     61a:	02 2c       	mov	r0, r2
     61c:	00 00       	nop
     61e:	00 a6       	std	Z+40, r0	; 0x28
     620:	01 00       	.word	0x0001	; ????
     622:	00 18       	sub	r0, r0
     624:	cc 03       	fmulsu	r20, r20
     626:	00 00       	nop
     628:	01 68       	ori	r16, 0x81	; 129
     62a:	02 2c       	mov	r0, r2
     62c:	00 00       	nop
     62e:	00 ce       	rjmp	.-1024   	; 0x230 <_fpadd_parts+0x156>
     630:	01 00       	.word	0x0001	; ????
     632:	00 18       	sub	r0, r0
     634:	2b 04       	cpc	r2, r11
     636:	00 00       	nop
     638:	01 69       	ori	r16, 0x91	; 145
     63a:	02 82       	std	Z+2, r0	; 0x02
     63c:	00 00       	nop
     63e:	00 e6       	ldi	r16, 0x60	; 96
     640:	01 00       	.word	0x0001	; ????
     642:	00 18       	sub	r0, r0
     644:	6d 04       	cpc	r6, r13
     646:	00 00       	nop
     648:	01 6a       	ori	r16, 0xA1	; 161
     64a:	02 82       	std	Z+2, r0	; 0x02
     64c:	00 00       	nop
     64e:	00 1a       	sub	r0, r16
     650:	02 00       	.word	0x0002	; ????
     652:	00 19       	sub	r16, r0
     654:	e2 01       	movw	r28, r4
     656:	00 00       	nop
     658:	ec 00       	.word	0x00ec	; ????
     65a:	00 00       	nop
     65c:	ee 00       	.word	0x00ee	; ????
     65e:	00 00       	nop
     660:	01 6c       	ori	r16, 0xC1	; 193
     662:	02 f8       	bld	r0, 2
     664:	02 00       	.word	0x0002	; ????
     666:	00 1a       	sub	r0, r16
     668:	f3 01       	movw	r30, r6
     66a:	00 00       	nop
     66c:	00 19       	sub	r16, r0
     66e:	e2 01       	movw	r28, r4
     670:	00 00       	nop
     672:	f4 00       	.word	0x00f4	; ????
     674:	00 00       	nop
     676:	f8 00       	.word	0x00f8	; ????
     678:	00 00       	nop
     67a:	01 70       	andi	r16, 0x01	; 1
     67c:	02 12       	cpse	r0, r18
     67e:	03 00       	.word	0x0003	; ????
     680:	00 1a       	sub	r0, r16
     682:	f3 01       	movw	r30, r6
     684:	00 00       	nop
     686:	00 1b       	sub	r16, r16
     688:	1e 02       	muls	r17, r30
     68a:	00 00       	nop
     68c:	16 01       	movw	r2, r12
     68e:	00 00       	nop
     690:	1c 01       	movw	r2, r24
     692:	00 00       	nop
     694:	01 78       	andi	r16, 0x81	; 129
     696:	02 1c       	adc	r0, r2
     698:	56 01       	movw	r10, r12
     69a:	00 00       	nop
     69c:	6c 02       	muls	r22, r28
     69e:	00 00       	nop
     6a0:	18 91       	.word	0x9118	; ????
     6a2:	03 00       	.word	0x0003	; ????
     6a4:	00 01       	movw	r0, r0
     6a6:	91 02       	muls	r25, r17
     6a8:	2c 00       	.word	0x002c	; ????
     6aa:	00 00       	nop
     6ac:	4e 02       	muls	r20, r30
     6ae:	00 00       	nop
     6b0:	1d 90       	ld	r1, X+
     6b2:	03 00       	.word	0x0003	; ????
     6b4:	00 01       	movw	r0, r0
     6b6:	92 02       	muls	r25, r18
     6b8:	2c 00       	.word	0x002c	; ????
     6ba:	00 00       	nop
     6bc:	00 00       	nop
     6be:	1e 01       	movw	r2, r28
     6c0:	be 04       	cpc	r11, r14
     6c2:	00 00       	nop
     6c4:	01 02       	muls	r16, r17
     6c6:	03 01       	movw	r0, r6
     6c8:	98 00       	.word	0x0098	; ????
     6ca:	00 00       	nop
     6cc:	72 03       	mulsu	r23, r18
     6ce:	00 00       	nop
     6d0:	d4 03       	fmuls	r21, r20
     6d2:	00 00       	nop
     6d4:	02 90       	ld	r0, -Z
     6d6:	20 d8       	rcall	.-4032   	; 0xfffff718 <__eeprom_end+0xff7ef718>
     6d8:	03 00       	.word	0x0003	; ????
     6da:	00 1f       	adc	r16, r16
     6dc:	e4 03       	fmuls	r22, r20
     6de:	00 00       	nop
     6e0:	01 01       	movw	r0, r2
     6e2:	03 98       	cbi	0x00, 3	; 0
     6e4:	00 00       	nop
     6e6:	00 e6       	ldi	r16, 0x60	; 96
     6e8:	02 00       	.word	0x0002	; ????
     6ea:	00 1f       	adc	r16, r16
     6ec:	ea 03       	fmulsu	r22, r18
     6ee:	00 00       	nop
     6f0:	01 01       	movw	r0, r2
     6f2:	03 98       	cbi	0x00, 3	; 0
     6f4:	00 00       	nop
     6f6:	00 04       	cpc	r0, r0
     6f8:	03 00       	.word	0x0003	; ????
     6fa:	00 20       	and	r0, r0
     6fc:	61 00       	.word	0x0061	; ????
     6fe:	01 03       	mulsu	r16, r17
     700:	03 5c       	subi	r16, 0xC3	; 195
     702:	01 00       	.word	0x0001	; ????
     704:	00 02       	muls	r16, r16
     706:	8c 09       	sbc	r24, r12
     708:	20 62       	ori	r18, 0x20	; 32
     70a:	00 01       	movw	r0, r0
     70c:	04 03       	mulsu	r16, r20
     70e:	5c 01       	movw	r10, r24
     710:	00 00       	nop
     712:	02 8c       	ldd	r0, Z+26	; 0x1a
     714:	11 20       	and	r1, r1
     716:	74 6d       	ori	r23, 0xD4	; 212
     718:	70 00       	.word	0x0070	; ????
     71a:	01 05       	cpc	r16, r1
     71c:	03 5c       	subi	r16, 0xC3	; 195
     71e:	01 00       	.word	0x0001	; ????
     720:	00 02       	muls	r16, r16
     722:	8c 19       	sub	r24, r12
     724:	21 72       	andi	r18, 0x21	; 33
     726:	65 73       	andi	r22, 0x35	; 53
     728:	00 01       	movw	r0, r0
     72a:	06 03       	mulsu	r16, r22
     72c:	fd 01       	movw	r30, r26
     72e:	00 00       	nop
     730:	20 61       	ori	r18, 0x10	; 16
     732:	75 00       	.word	0x0075	; ????
     734:	01 07       	cpc	r16, r17
     736:	03 d6       	rcall	.+3078   	; 0x133e <__data_load_end+0x66a>
     738:	01 00       	.word	0x0001	; ????
     73a:	00 02       	muls	r16, r16
     73c:	8c 01       	movw	r16, r24
     73e:	20 62       	ori	r18, 0x20	; 32
     740:	75 00       	.word	0x0075	; ????
     742:	01 07       	cpc	r16, r17
     744:	03 d6       	rcall	.+3078   	; 0x134c <__data_load_end+0x678>
     746:	01 00       	.word	0x0001	; ????
     748:	00 02       	muls	r16, r16
     74a:	8c 05       	cpc	r24, r12
     74c:	00 1e       	adc	r0, r16
     74e:	01 87       	std	Z+9, r16	; 0x09
     750:	03 00       	.word	0x0003	; ????
     752:	00 01       	movw	r0, r0
     754:	ee 02       	muls	r30, r30
     756:	01 98       	cbi	0x00, 1	; 0
     758:	00 00       	nop
     75a:	00 d4       	rcall	.+2048   	; 0xf5c <__data_load_end+0x288>
     75c:	03 00       	.word	0x0003	; ????
     75e:	00 2e       	mov	r0, r16
     760:	04 00       	.word	0x0004	; ????
     762:	00 02       	muls	r16, r16
     764:	90 20       	and	r9, r0
     766:	67 04       	cpc	r6, r7
     768:	00 00       	nop
     76a:	1f e4       	ldi	r17, 0x4F	; 79
     76c:	03 00       	.word	0x0003	; ????
     76e:	00 01       	movw	r0, r0
     770:	ed 02       	muls	r30, r29
     772:	98 00       	.word	0x0098	; ????
     774:	00 00       	nop
     776:	22 03       	mulsu	r18, r18
     778:	00 00       	nop
     77a:	1f ea       	ldi	r17, 0xAF	; 175
     77c:	03 00       	.word	0x0003	; ????
     77e:	00 01       	movw	r0, r0
     780:	ed 02       	muls	r30, r29
     782:	98 00       	.word	0x0098	; ????
     784:	00 00       	nop
     786:	40 03       	mulsu	r20, r16
     788:	00 00       	nop
     78a:	20 61       	ori	r18, 0x10	; 16
     78c:	00 01       	movw	r0, r0
     78e:	ef 02       	muls	r30, r31
     790:	5c 01       	movw	r10, r24
     792:	00 00       	nop
     794:	02 8c       	ldd	r0, Z+26	; 0x1a
     796:	09 20       	and	r0, r9
     798:	62 00       	.word	0x0062	; ????
     79a:	01 f0       	breq	.+0      	; 0x79c <__fixsfsi+0x5a>
     79c:	02 5c       	subi	r16, 0xC2	; 194
     79e:	01 00       	.word	0x0001	; ????
     7a0:	00 02       	muls	r16, r16
     7a2:	8c 11       	cpse	r24, r12
     7a4:	20 74       	andi	r18, 0x40	; 64
     7a6:	6d 70       	andi	r22, 0x0D	; 13
     7a8:	00 01       	movw	r0, r0
     7aa:	f1 02       	muls	r31, r17
     7ac:	5c 01       	movw	r10, r24
     7ae:	00 00       	nop
     7b0:	02 8c       	ldd	r0, Z+26	; 0x1a
     7b2:	19 21       	and	r17, r9
     7b4:	72 65       	ori	r23, 0x52	; 82
     7b6:	73 00       	.word	0x0073	; ????
     7b8:	01 f2       	breq	.-128    	; 0x73a <__ltsf2+0x58>
     7ba:	02 fd       	sbrc	r16, 2
     7bc:	01 00       	.word	0x0001	; ????
     7be:	00 20       	and	r0, r0
     7c0:	61 75       	andi	r22, 0x51	; 81
     7c2:	00 01       	movw	r0, r0
     7c4:	f3 02       	muls	r31, r19
     7c6:	d6 01       	movw	r26, r12
     7c8:	00 00       	nop
     7ca:	02 8c       	ldd	r0, Z+26	; 0x1a
     7cc:	01 20       	and	r0, r1
     7ce:	62 75       	andi	r22, 0x52	; 82
     7d0:	00 01       	movw	r0, r0
     7d2:	f3 02       	muls	r31, r19
     7d4:	d6 01       	movw	r26, r12
     7d6:	00 00       	nop
     7d8:	02 8c       	ldd	r0, Z+26	; 0x1a
     7da:	05 00       	.word	0x0005	; ????
     7dc:	22 b4       	in	r2, 0x22	; 34
     7de:	03 00       	.word	0x0003	; ????
     7e0:	00 01       	movw	r0, r0
     7e2:	90 74       	andi	r25, 0x40	; 64
     7e4:	04 00       	.word	0x0004	; ????
     7e6:	00 01       	movw	r0, r0
     7e8:	01 23       	and	r16, r17
     7ea:	5c 01       	movw	r10, r24
     7ec:	00 00       	nop
     7ee:	00 81       	ld	r16, Z
     7f0:	04 00       	.word	0x0004	; ????
     7f2:	00 02       	muls	r16, r16
     7f4:	00 39       	cpi	r16, 0x90	; 144
     7f6:	03 00       	.word	0x0003	; ????
     7f8:	00 04       	cpc	r0, r0
     7fa:	01 e5       	ldi	r16, 0x51	; 81
     7fc:	00 00       	nop
     7fe:	00 01       	movw	r0, r0
     800:	fd 03       	fmulsu	r23, r21
     802:	00 00       	nop
     804:	07 03       	mulsu	r16, r23
     806:	00 00       	nop
     808:	2e 04       	cpc	r2, r14
     80a:	00 00       	nop
     80c:	22 06       	cpc	r2, r18
     80e:	00 00       	nop
     810:	e8 05       	cpc	r30, r8
     812:	00 00       	nop
     814:	02 01       	movw	r0, r4
     816:	06 a8       	ldd	r0, Z+54	; 0x36
     818:	00 00       	nop
     81a:	00 03       	mulsu	r16, r16
     81c:	02 05       	cpc	r16, r2
     81e:	69 6e       	ori	r22, 0xE9	; 233
     820:	74 00       	.word	0x0074	; ????
     822:	02 01       	movw	r0, r4
     824:	06 af       	std	Z+62, r16	; 0x3e
     826:	00 00       	nop
     828:	00 04       	cpc	r0, r0
     82a:	4a 03       	fmul	r20, r18
     82c:	00 00       	nop
     82e:	02 61       	ori	r16, 0x12	; 18
     830:	45 00       	.word	0x0045	; ????
     832:	00 00       	nop
     834:	02 04       	cpc	r0, r2
     836:	04 44       	sbci	r16, 0x44	; 68
     838:	03 00       	.word	0x0003	; ????
     83a:	00 02       	muls	r16, r16
     83c:	04 05       	cpc	r16, r4
     83e:	3c 02       	muls	r19, r28
     840:	00 00       	nop
     842:	04 b6       	in	r0, 0x34	; 52
     844:	04 00       	.word	0x0004	; ????
     846:	00 02       	muls	r16, r16
     848:	74 5e       	subi	r23, 0xE4	; 228
     84a:	00 00       	nop
     84c:	00 02       	muls	r16, r16
     84e:	02 07       	cpc	r16, r18
     850:	dd 01       	movw	r26, r26
     852:	00 00       	nop
     854:	04 51       	subi	r16, 0x14	; 20
     856:	03 00       	.word	0x0003	; ????
     858:	00 02       	muls	r16, r16
     85a:	75 70       	andi	r23, 0x05	; 5
     85c:	00 00       	nop
     85e:	00 02       	muls	r16, r16
     860:	04 07       	cpc	r16, r20
     862:	d8 01       	movw	r26, r16
     864:	00 00       	nop
     866:	04 cb       	rjmp	.-2552   	; 0xfffffe70 <__eeprom_end+0xff7efe70>
     868:	04 00       	.word	0x0004	; ????
     86a:	00 02       	muls	r16, r16
     86c:	c4 65       	ori	r28, 0x54	; 84
     86e:	00 00       	nop
     870:	00 04       	cpc	r0, r0
     872:	c7 04       	cpc	r12, r7
     874:	00 00       	nop
     876:	02 c5       	rjmp	.+2564   	; 0x127c <__data_load_end+0x5a8>
     878:	53 00       	.word	0x0053	; ????
     87a:	00 00       	nop
     87c:	04 40       	sbci	r16, 0x04	; 4
     87e:	04 00       	.word	0x0004	; ????
     880:	00 02       	muls	r16, r16
     882:	c6 3a       	cpi	r28, 0xA6	; 166
     884:	00 00       	nop
     886:	00 05       	cpc	r16, r0
     888:	02 02       	muls	r16, r18
     88a:	5c 01       	movw	r10, r24
     88c:	c0 00       	.word	0x00c0	; ????
     88e:	00 00       	nop
     890:	06 49       	sbci	r16, 0x96	; 150
     892:	04 00       	.word	0x0004	; ????
     894:	00 00       	nop
     896:	06 d9       	rcall	.-3572   	; 0xfffffaa4 <__eeprom_end+0xff7efaa4>
     898:	03 00       	.word	0x0003	; ????
     89a:	00 01       	movw	r0, r0
     89c:	06 96       	adiw	r24, 0x06	; 6
     89e:	03 00       	.word	0x0003	; ????
     8a0:	00 02       	muls	r16, r16
     8a2:	06 a9       	ldd	r16, Z+54	; 0x36
     8a4:	04 00       	.word	0x0004	; ????
     8a6:	00 03       	mulsu	r16, r16
     8a8:	06 86       	std	Z+14, r0	; 0x0e
     8aa:	04 00       	.word	0x0004	; ????
     8ac:	00 04       	cpc	r0, r0
     8ae:	00 07       	cpc	r16, r16
     8b0:	04 02       	muls	r16, r20
     8b2:	71 01       	movw	r14, r2
     8b4:	df 00       	.word	0x00df	; ????
     8b6:	00 00       	nop
     8b8:	08 6c       	ori	r16, 0xC8	; 200
     8ba:	6c 00       	.word	0x006c	; ????
     8bc:	02 72       	andi	r16, 0x22	; 34
     8be:	01 77       	andi	r16, 0x71	; 113
     8c0:	00 00       	nop
     8c2:	00 08       	sbc	r0, r0
     8c4:	6c 00       	.word	0x006c	; ????
     8c6:	02 73       	andi	r16, 0x32	; 50
     8c8:	01 df       	rcall	.-510    	; 0x6cc <__gesf2+0x4a>
     8ca:	00 00       	nop
     8cc:	00 00       	nop
     8ce:	09 82       	std	Y+1, r0	; 0x01
     8d0:	00 00       	nop
     8d2:	00 ef       	ldi	r16, 0xF0	; 240
     8d4:	00 00       	nop
     8d6:	00 0a       	sbc	r0, r16
     8d8:	ef 00       	.word	0x00ef	; ????
     8da:	00 00       	nop
     8dc:	01 00       	.word	0x0001	; ????
     8de:	0b 02       	muls	r16, r27
     8e0:	07 0c       	add	r0, r7
     8e2:	08 02       	muls	r16, r24
     8e4:	65 01       	movw	r12, r10
     8e6:	38 01       	movw	r6, r16
     8e8:	00 00       	nop
     8ea:	0d c6       	rjmp	.+3098   	; 0x1506 <__data_load_end+0x832>
     8ec:	03 00       	.word	0x0003	; ????
     8ee:	00 02       	muls	r16, r16
     8f0:	67 01       	movw	r12, r14
     8f2:	33 00       	.word	0x0033	; ????
     8f4:	00 00       	nop
     8f6:	02 23       	and	r16, r18
     8f8:	00 0d       	add	r16, r0
     8fa:	9f 04       	cpc	r9, r15
     8fc:	00 00       	nop
     8fe:	02 68       	ori	r16, 0x82	; 130
     900:	01 38       	cpi	r16, 0x81	; 129
     902:	01 00       	.word	0x0001	; ????
     904:	00 02       	muls	r16, r16
     906:	23 01       	movw	r4, r6
     908:	0d a3       	std	Y+37, r16	; 0x25
     90a:	03 00       	.word	0x0003	; ????
     90c:	00 02       	muls	r16, r16
     90e:	69 01       	movw	r12, r18
     910:	3f 01       	movw	r6, r30
     912:	00 00       	nop
     914:	02 23       	and	r16, r18
     916:	02 0d       	add	r16, r2
     918:	2d 04       	cpc	r2, r13
     91a:	00 00       	nop
     91c:	02 74       	andi	r16, 0x42	; 66
     91e:	01 c0       	rjmp	.+2      	; 0x922 <__stack+0xc3>
     920:	00 00       	nop
     922:	00 02       	muls	r16, r16
     924:	23 04       	cpc	r2, r3
     926:	00 02       	muls	r16, r16
     928:	01 08       	sbc	r0, r1
     92a:	a6 00       	.word	0x00a6	; ????
     92c:	00 00       	nop
     92e:	02 02       	muls	r16, r18
     930:	05 95       	asr	r16
     932:	04 00       	.word	0x0004	; ????
     934:	00 0e       	add	r0, r16
     936:	5e 04       	cpc	r5, r14
     938:	00 00       	nop
     93a:	02 75       	andi	r16, 0x52	; 82
     93c:	01 f2       	breq	.-128    	; 0x8be <__stack+0x5f>
     93e:	00 00       	nop
     940:	00 0c       	add	r0, r0
     942:	04 02       	muls	r16, r20
     944:	86 01       	movw	r16, r12
     946:	92 01       	movw	r18, r4
     948:	00 00       	nop
     94a:	0f 2d       	mov	r16, r15
     94c:	04 00       	.word	0x0004	; ????
     94e:	00 02       	muls	r16, r16
     950:	87 01       	movw	r16, r14
     952:	77 00       	.word	0x0077	; ????
     954:	00 00       	nop
     956:	04 17       	cp	r16, r20
     958:	09 02       	muls	r16, r25
     95a:	23 00       	.word	0x0023	; ????
     95c:	10 65       	ori	r17, 0x50	; 80
     95e:	78 70       	andi	r23, 0x08	; 8
     960:	00 02       	muls	r16, r16
     962:	88 01       	movw	r16, r16
     964:	5e 00       	.word	0x005e	; ????
     966:	00 00       	nop
     968:	02 08       	sbc	r0, r2
     96a:	01 02       	muls	r16, r17
     96c:	23 02       	muls	r18, r19
     96e:	0f 9f       	mul	r16, r31
     970:	04 00       	.word	0x0004	; ????
     972:	00 02       	muls	r16, r16
     974:	89 01       	movw	r16, r18
     976:	5e 00       	.word	0x005e	; ????
     978:	00 00       	nop
     97a:	02 01       	movw	r0, r4
     97c:	08 02       	muls	r16, r24
     97e:	23 03       	mulsu	r18, r19
     980:	00 07       	cpc	r16, r16
     982:	04 02       	muls	r16, r20
     984:	78 01       	movw	r14, r16
     986:	c0 01       	movw	r24, r0
     988:	00 00       	nop
     98a:	11 78       	andi	r17, 0x81	; 129
     98c:	04 00       	.word	0x0004	; ????
     98e:	00 02       	muls	r16, r16
     990:	79 01       	movw	r14, r18
     992:	8d 00       	.word	0x008d	; ????
     994:	00 00       	nop
     996:	11 36       	cpi	r17, 0x61	; 97
     998:	04 00       	.word	0x0004	; ????
     99a:	00 02       	muls	r16, r16
     99c:	7a 01       	movw	r14, r20
     99e:	77 00       	.word	0x0077	; ????
     9a0:	00 00       	nop
     9a2:	11 a4       	ldd	r1, Z+41	; 0x29
     9a4:	04 00       	.word	0x0004	; ????
     9a6:	00 02       	muls	r16, r16
     9a8:	8b 01       	movw	r16, r22
     9aa:	52 01       	movw	r10, r4
     9ac:	00 00       	nop
     9ae:	00 0e       	add	r0, r16
     9b0:	1c 04       	cpc	r1, r12
     9b2:	00 00       	nop
     9b4:	02 a0       	ldd	r0, Z+34	; 0x22
     9b6:	01 92       	st	Z+, r0
     9b8:	01 00       	.word	0x0001	; ????
     9ba:	00 12       	cpse	r0, r16
     9bc:	ae 03       	fmulsu	r18, r22
     9be:	00 00       	nop
     9c0:	01 a6       	std	Z+41, r0	; 0x29
     9c2:	01 2c       	mov	r0, r1
     9c4:	00 00       	nop
     9c6:	00 03       	mulsu	r16, r16
     9c8:	e7 01       	movw	r28, r14
     9ca:	00 00       	nop
     9cc:	13 78       	andi	r17, 0x83	; 131
     9ce:	00 01       	movw	r0, r0
     9d0:	a5 e7       	ldi	r26, 0x75	; 117
     9d2:	01 00       	.word	0x0001	; ????
     9d4:	00 00       	nop
     9d6:	14 02       	muls	r17, r20
     9d8:	46 01       	movw	r8, r12
     9da:	00 00       	nop
     9dc:	12 c0       	rjmp	.+36     	; 0xa02 <__unpack_f+0x6e>
     9de:	03 00       	.word	0x0003	; ????
     9e0:	00 01       	movw	r0, r0
     9e2:	ae 01       	movw	r20, r28
     9e4:	2c 00       	.word	0x002c	; ????
     9e6:	00 00       	nop
     9e8:	03 08       	sbc	r0, r3
     9ea:	02 00       	.word	0x0002	; ????
     9ec:	00 13       	cpse	r16, r16
     9ee:	78 00       	.word	0x0078	; ????
     9f0:	01 ad       	ldd	r16, Z+57	; 0x39
     9f2:	e7 01       	movw	r28, r14
     9f4:	00 00       	nop
     9f6:	00 12       	cpse	r0, r16
     9f8:	15 04       	cpc	r1, r5
     9fa:	00 00       	nop
     9fc:	01 b7       	in	r16, 0x31	; 49
     9fe:	01 2c       	mov	r0, r1
     a00:	00 00       	nop
     a02:	00 03       	mulsu	r16, r16
     a04:	23 02       	muls	r18, r19
     a06:	00 00       	nop
     a08:	13 78       	andi	r17, 0x83	; 131
     a0a:	00 01       	movw	r0, r0
     a0c:	b6 e7       	ldi	r27, 0x76	; 118
     a0e:	01 00       	.word	0x0001	; ????
     a10:	00 00       	nop
     a12:	15 6e       	ori	r17, 0xE5	; 229
     a14:	61 6e       	ori	r22, 0xE1	; 225
     a16:	00 01       	movw	r0, r0
     a18:	98 01       	movw	r18, r16
     a1a:	e7 01       	movw	r28, r14
     a1c:	00 00       	nop
     a1e:	03 16       	cp	r0, r19
     a20:	e0 04       	cpc	r14, r0
     a22:	00 00       	nop
     a24:	01 1c       	adc	r0, r1
     a26:	03 01       	movw	r0, r6
     a28:	e7 01       	movw	r28, r14
     a2a:	00 00       	nop
     a2c:	03 13       	cpse	r16, r19
     a2e:	03 00       	.word	0x0003	; ????
     a30:	00 17       	cp	r16, r16
     a32:	61 00       	.word	0x0061	; ????
     a34:	01 19       	sub	r16, r1
     a36:	03 e7       	ldi	r16, 0x73	; 115
     a38:	01 00       	.word	0x0001	; ????
     a3a:	00 17       	cp	r16, r16
     a3c:	62 00       	.word	0x0062	; ????
     a3e:	01 1a       	sub	r0, r17
     a40:	03 e7       	ldi	r16, 0x73	; 115
     a42:	01 00       	.word	0x0001	; ????
     a44:	00 17       	cp	r16, r16
     a46:	74 6d       	ori	r23, 0xD4	; 212
     a48:	70 00       	.word	0x0070	; ????
     a4a:	01 1b       	sub	r16, r17
     a4c:	03 e7       	ldi	r16, 0x73	; 115
     a4e:	01 00       	.word	0x0001	; ????
     a50:	00 18       	sub	r0, r0
     a52:	6c 6f       	ori	r22, 0xFC	; 252
     a54:	77 00       	.word	0x0077	; ????
     a56:	01 1d       	adc	r16, r1
     a58:	03 77       	andi	r16, 0x73	; 115
     a5a:	00 00       	nop
     a5c:	00 19       	sub	r16, r0
     a5e:	d5 04       	cpc	r13, r5
     a60:	00 00       	nop
     a62:	01 1e       	adc	r0, r17
     a64:	03 77       	andi	r16, 0x73	; 115
     a66:	00 00       	nop
     a68:	00 1a       	sub	r0, r16
     a6a:	bc 02       	muls	r27, r28
     a6c:	00 00       	nop
     a6e:	18 78       	andi	r17, 0x88	; 136
     a70:	00 01       	movw	r0, r0
     a72:	4a 03       	fmul	r20, r18
     a74:	77 00       	.word	0x0077	; ????
     a76:	00 00       	nop
     a78:	19 f6       	brne	.-122    	; 0xa00 <__unpack_f+0x6c>
     a7a:	04 00       	.word	0x0004	; ????
     a7c:	00 01       	movw	r0, r0
     a7e:	4b 03       	fmul	r20, r19
     a80:	77 00       	.word	0x0077	; ????
     a82:	00 00       	nop
     a84:	19 d4       	rcall	.+2098   	; 0x12b8 <__data_load_end+0x5e4>
     a86:	04 00       	.word	0x0004	; ????
     a88:	00 01       	movw	r0, r0
     a8a:	4c 03       	fmul	r20, r20
     a8c:	77 00       	.word	0x0077	; ????
     a8e:	00 00       	nop
     a90:	18 62       	ori	r17, 0x28	; 40
     a92:	69 74       	andi	r22, 0x49	; 73
     a94:	00 01       	movw	r0, r0
     a96:	4d 03       	fmul	r20, r21
     a98:	2c 00       	.word	0x002c	; ????
     a9a:	00 00       	nop
     a9c:	1b 19       	sub	r17, r11
     a9e:	da 04       	cpc	r13, r10
     aa0:	00 00       	nop
     aa2:	01 52       	subi	r16, 0x21	; 33
     aa4:	03 2c       	mov	r0, r3
     aa6:	00 00       	nop
     aa8:	00 00       	nop
     aaa:	00 1a       	sub	r0, r16
     aac:	c7 02       	muls	r28, r23
     aae:	00 00       	nop
     ab0:	1c dd       	rcall	.-1480   	; 0x4ea <__mulsf3+0xbc>
     ab2:	01 00       	.word	0x0001	; ????
     ab4:	00 00       	nop
     ab6:	1a d2       	rcall	.+1076   	; 0xeec <__data_load_end+0x218>
     ab8:	02 00       	.word	0x0002	; ????
     aba:	00 1c       	adc	r0, r0
     abc:	dd 01       	movw	r26, r26
     abe:	00 00       	nop
     ac0:	00 1a       	sub	r0, r16
     ac2:	dd 02       	muls	r29, r29
     ac4:	00 00       	nop
     ac6:	1c fe       	.word	0xfe1c	; ????
     ac8:	01 00       	.word	0x0001	; ????
     aca:	00 00       	nop
     acc:	1a e8       	ldi	r17, 0x8A	; 138
     ace:	02 00       	.word	0x0002	; ????
     ad0:	00 1c       	adc	r0, r0
     ad2:	19 02       	muls	r17, r25
     ad4:	00 00       	nop
     ad6:	00 1d       	adc	r16, r0
     ad8:	1a f4       	brpl	.+6      	; 0xae0 <__fpcmp_parts_f+0x5c>
     ada:	02 00       	.word	0x0002	; ????
     adc:	00 1c       	adc	r0, r0
     ade:	fe 01       	movw	r30, r28
     ae0:	00 00       	nop
     ae2:	00 1a       	sub	r0, r16
     ae4:	ff 02       	muls	r31, r31
     ae6:	00 00       	nop
     ae8:	1c 19       	sub	r17, r12
     aea:	02 00       	.word	0x0002	; ????
     aec:	00 00       	nop
     aee:	1d 1a       	sub	r1, r29
     af0:	0b 03       	fmul	r16, r19
     af2:	00 00       	nop
     af4:	1c 19       	sub	r17, r12
     af6:	02 00       	.word	0x0002	; ????
     af8:	00 00       	nop
     afa:	1b 1c       	adc	r1, r11
     afc:	19 02       	muls	r17, r25
     afe:	00 00       	nop
     b00:	00 00       	nop
     b02:	1e 01       	movw	r2, r28
     b04:	ed 04       	cpc	r14, r13
     b06:	00 00       	nop
     b08:	01 bc       	out	0x21, r0	; 33
     b0a:	03 01       	movw	r0, r6
     b0c:	8d 00       	.word	0x008d	; ????
     b0e:	00 00       	nop
     b10:	2e 04       	cpc	r2, r14
     b12:	00 00       	nop
     b14:	22 06       	cpc	r2, r18
     b16:	00 00       	nop
     b18:	02 90       	ld	r0, -Z
     b1a:	20 72       	andi	r18, 0x20	; 32
     b1c:	04 00       	.word	0x0004	; ????
     b1e:	00 1f       	adc	r16, r16
     b20:	e4 03       	fmuls	r22, r20
     b22:	00 00       	nop
     b24:	01 bb       	out	0x11, r16	; 17
     b26:	03 8d       	ldd	r16, Z+27	; 0x1b
     b28:	00 00       	nop
     b2a:	00 5e       	subi	r16, 0xE0	; 224
     b2c:	03 00       	.word	0x0003	; ????
     b2e:	00 1f       	adc	r16, r16
     b30:	ea 03       	fmulsu	r22, r18
     b32:	00 00       	nop
     b34:	01 bb       	out	0x11, r16	; 17
     b36:	03 8d       	ldd	r16, Z+27	; 0x1b
     b38:	00 00       	nop
     b3a:	00 7c       	andi	r16, 0xC0	; 192
     b3c:	03 00       	.word	0x0003	; ????
     b3e:	00 20       	and	r0, r0
     b40:	61 00       	.word	0x0061	; ????
     b42:	01 bd       	out	0x21, r16	; 33
     b44:	03 46       	sbci	r16, 0x63	; 99
     b46:	01 00       	.word	0x0001	; ????
     b48:	00 02       	muls	r16, r16
     b4a:	8c 09       	sbc	r24, r12
     b4c:	20 62       	ori	r18, 0x20	; 32
     b4e:	00 01       	movw	r0, r0
     b50:	be 03       	fmulsu	r19, r22
     b52:	46 01       	movw	r8, r12
     b54:	00 00       	nop
     b56:	02 8c       	ldd	r0, Z+26	; 0x1a
     b58:	11 20       	and	r1, r1
     b5a:	74 6d       	ori	r23, 0xD4	; 212
     b5c:	70 00       	.word	0x0070	; ????
     b5e:	01 bf       	out	0x31, r16	; 49
     b60:	03 46       	sbci	r16, 0x63	; 99
     b62:	01 00       	.word	0x0001	; ????
     b64:	00 02       	muls	r16, r16
     b66:	8c 19       	sub	r24, r12
     b68:	21 72       	andi	r18, 0x21	; 33
     b6a:	65 73       	andi	r22, 0x35	; 53
     b6c:	00 01       	movw	r0, r0
     b6e:	c0 03       	fmuls	r20, r16
     b70:	e7 01       	movw	r28, r14
     b72:	00 00       	nop
     b74:	9a 03       	fmulsu	r17, r18
     b76:	00 00       	nop
     b78:	20 61       	ori	r18, 0x10	; 16
     b7a:	75 00       	.word	0x0075	; ????
     b7c:	01 c1       	rjmp	.+514    	; 0xd80 <__data_load_end+0xac>
     b7e:	03 c0       	rjmp	.+6      	; 0xb86 <main+0x50>
     b80:	01 00       	.word	0x0001	; ????
     b82:	00 02       	muls	r16, r16
     b84:	8c 01       	movw	r16, r24
     b86:	20 62       	ori	r18, 0x20	; 32
     b88:	75 00       	.word	0x0075	; ????
     b8a:	01 c1       	rjmp	.+514    	; 0xd8e <__data_load_end+0xba>
     b8c:	03 c0       	rjmp	.+6      	; 0xb94 <main+0x5e>
     b8e:	01 00       	.word	0x0001	; ????
     b90:	00 02       	muls	r16, r16
     b92:	8c 05       	cpc	r24, r12
     b94:	22 30       	cpi	r18, 0x02	; 2
     b96:	02 00       	.word	0x0002	; ????
     b98:	00 66       	ori	r16, 0x60	; 96
     b9a:	04 00       	.word	0x0004	; ????
     b9c:	00 16       	cp	r0, r16
     b9e:	06 00       	.word	0x0006	; ????
     ba0:	00 01       	movw	r0, r0
     ba2:	c9 03       	fmulsu	r20, r17
     ba4:	1c 56       	subi	r17, 0x6C	; 108
     ba6:	02 00       	.word	0x0002	; ????
     ba8:	00 1c       	adc	r0, r0
     baa:	4c 02       	muls	r20, r28
     bac:	00 00       	nop
     bae:	1c 42       	sbci	r17, 0x2C	; 44
     bb0:	02 00       	.word	0x0002	; ????
     bb2:	00 23       	and	r16, r16
     bb4:	18 00       	.word	0x0018	; ????
     bb6:	00 00       	nop
     bb8:	24 62       	ori	r18, 0x24	; 36
     bba:	02 00       	.word	0x0002	; ????
     bbc:	00 0c       	add	r0, r0
     bbe:	5e 93       	st	-X, r21
     bc0:	01 5f       	subi	r16, 0xF1	; 241
     bc2:	93 01       	movw	r18, r6
     bc4:	60 93 01 61 	sts	0x6101, r22
     bc8:	93 01       	movw	r18, r6
     bca:	25 6e       	ori	r18, 0xE5	; 229
     bcc:	02 00       	.word	0x0002	; ????
     bce:	00 e2       	ldi	r16, 0x20	; 32
     bd0:	03 00       	.word	0x0003	; ????
     bd2:	00 26       	eor	r0, r16
     bd4:	cc 01       	movw	r24, r24
     bd6:	00 00       	nop
     bd8:	66 04       	cpc	r6, r6
     bda:	00 00       	nop
     bdc:	68 04       	cpc	r6, r8
     bde:	00 00       	nop
     be0:	01 20       	and	r0, r1
     be2:	03 fe       	sbrs	r0, 3
     be4:	03 00       	.word	0x0003	; ????
     be6:	00 1c       	adc	r0, r0
     be8:	dd 01       	movw	r26, r26
     bea:	00 00       	nop
     bec:	00 26       	eor	r0, r16
     bee:	cc 01       	movw	r24, r24
     bf0:	00 00       	nop
     bf2:	6c 04       	cpc	r6, r12
     bf4:	00 00       	nop
     bf6:	6e 04       	cpc	r6, r14
     bf8:	00 00       	nop
     bfa:	01 25       	eor	r16, r1
     bfc:	03 18       	sub	r0, r3
     bfe:	04 00       	.word	0x0004	; ????
     c00:	00 1c       	adc	r0, r0
     c02:	dd 01       	movw	r26, r26
     c04:	00 00       	nop
     c06:	00 27       	eor	r16, r16
     c08:	23 02       	muls	r18, r19
     c0a:	00 00       	nop
     c0c:	84 04       	cpc	r8, r4
     c0e:	00 00       	nop
     c10:	8a 04       	cpc	r8, r10
     c12:	00 00       	nop
     c14:	01 35       	cpi	r16, 0x51	; 81
     c16:	03 23       	and	r16, r19
     c18:	38 00       	.word	0x0038	; ????
     c1a:	00 00       	nop
     c1c:	25 7f       	andi	r18, 0xF5	; 245
     c1e:	02 00       	.word	0x0002	; ????
     c20:	00 16       	cp	r0, r16
     c22:	04 00       	.word	0x0004	; ????
     c24:	00 24       	eor	r0, r0
     c26:	89 02       	muls	r24, r25
     c28:	00 00       	nop
     c2a:	0c 56       	subi	r16, 0x6C	; 108
     c2c:	93 01       	movw	r18, r6
     c2e:	57 93       	.word	0x9357	; ????
     c30:	01 58       	subi	r16, 0x81	; 129
     c32:	93 01       	movw	r18, r6
     c34:	59 93       	st	Y+, r21
     c36:	01 24       	eor	r0, r1
     c38:	95 02       	muls	r25, r21
     c3a:	00 00       	nop
     c3c:	0c 5a       	subi	r16, 0xAC	; 172
     c3e:	93 01       	movw	r18, r6
     c40:	5b 93       	.word	0x935b	; ????
     c42:	01 5c       	subi	r16, 0xC1	; 193
     c44:	93 01       	movw	r18, r6
     c46:	5d 93       	st	X+, r21
     c48:	01 25       	eor	r16, r1
     c4a:	a1 02       	muls	r26, r17
     c4c:	00 00       	nop
     c4e:	4a 04       	cpc	r4, r10
     c50:	00 00       	nop
     c52:	23 50       	subi	r18, 0x03	; 3
     c54:	00 00       	nop
     c56:	00 28       	or	r0, r0
     c58:	ae 02       	muls	r26, r30
     c5a:	00 00       	nop
     c5c:	00 00       	nop
     c5e:	00 00       	nop
     c60:	00 29       	or	r16, r0
     c62:	b4 03       	fmuls	r19, r20
     c64:	00 00       	nop
     c66:	01 90       	ld	r0, Z+
     c68:	7f 04       	cpc	r7, r15
     c6a:	00 00       	nop
     c6c:	01 01       	movw	r0, r2
     c6e:	2a 46       	sbci	r18, 0x6A	; 106
     c70:	01 00       	.word	0x0001	; ????
     c72:	00 00       	nop
     c74:	7b 02       	muls	r23, r27
     c76:	00 00       	nop
     c78:	02 00       	.word	0x0002	; ????
     c7a:	54 05       	cpc	r21, r4
     c7c:	00 00       	nop
     c7e:	04 01       	movw	r0, r8
     c80:	e5 00       	.word	0x00e5	; ????
     c82:	00 00       	nop
     c84:	01 fd       	sbrc	r16, 1
     c86:	03 00       	.word	0x0003	; ????
     c88:	00 07       	cpc	r16, r16
     c8a:	03 00       	.word	0x0003	; ????
     c8c:	00 22       	and	r0, r16
     c8e:	06 00       	.word	0x0006	; ????
     c90:	00 82       	st	Z, r0
     c92:	06 00       	.word	0x0006	; ????
     c94:	00 21       	and	r16, r0
     c96:	08 00       	.word	0x0008	; ????
     c98:	00 02       	muls	r16, r16
     c9a:	fb 04       	cpc	r15, r11
     c9c:	00 00       	nop
     c9e:	01 08       	sbc	r0, r1
     ca0:	30 00       	.word	0x0030	; ????
     ca2:	00 00       	nop
     ca4:	03 01       	movw	r0, r6
     ca6:	06 a8       	ldd	r0, Z+54	; 0x36
     ca8:	00 00       	nop
     caa:	00 04       	cpc	r0, r0
     cac:	02 05       	cpc	r16, r2
     cae:	69 6e       	ori	r22, 0xE9	; 233
     cb0:	74 00       	.word	0x0074	; ????
     cb2:	03 01       	movw	r0, r6
     cb4:	06 af       	std	Z+62, r16	; 0x3e
     cb6:	00 00       	nop
     cb8:	00 02       	muls	r16, r16
     cba:	4a 03       	fmul	r20, r18
     cbc:	00 00       	nop
     cbe:	02 61       	ori	r16, 0x12	; 18
     cc0:	50 00       	.word	0x0050	; ????
     cc2:	00 00       	nop
     cc4:	03 04       	cpc	r0, r3
     cc6:	04 44       	sbci	r16, 0x44	; 68
     cc8:	03 00       	.word	0x0003	; ????
     cca:	00 03       	mulsu	r16, r16
     ccc:	04 05       	cpc	r16, r4
     cce:	3c 02       	muls	r19, r28
     cd0:	00 00       	nop
     cd2:	02 b6       	in	r0, 0x32	; 50
     cd4:	04 00       	.word	0x0004	; ????
     cd6:	00 02       	muls	r16, r16
     cd8:	74 69       	ori	r23, 0x94	; 148
     cda:	00 00       	nop
     cdc:	00 03       	mulsu	r16, r16
     cde:	02 07       	cpc	r16, r18
     ce0:	dd 01       	movw	r26, r26
     ce2:	00 00       	nop
     ce4:	02 51       	subi	r16, 0x12	; 18
     ce6:	03 00       	.word	0x0003	; ????
     ce8:	00 02       	muls	r16, r16
     cea:	75 7b       	andi	r23, 0xB5	; 181
     cec:	00 00       	nop
     cee:	00 03       	mulsu	r16, r16
     cf0:	04 07       	cpc	r16, r20
     cf2:	d8 01       	movw	r26, r16
     cf4:	00 00       	nop
     cf6:	02 cb       	rjmp	.-2556   	; 0x2fc <_fpadd_parts+0x222>
     cf8:	04 00       	.word	0x0004	; ????
     cfa:	00 02       	muls	r16, r16
     cfc:	c4 70       	andi	r28, 0x04	; 4
     cfe:	00 00       	nop
     d00:	00 02       	muls	r16, r16
     d02:	c7 04       	cpc	r12, r7
     d04:	00 00       	nop
     d06:	02 c5       	rjmp	.+2564   	; 0x170c <__data_load_end+0xa38>
     d08:	5e 00       	.word	0x005e	; ????
     d0a:	00 00       	nop
     d0c:	02 40       	sbci	r16, 0x02	; 2
     d0e:	04 00       	.word	0x0004	; ????
     d10:	00 02       	muls	r16, r16
     d12:	c6 45       	sbci	r28, 0x56	; 86
     d14:	00 00       	nop
     d16:	00 05       	cpc	r16, r0
     d18:	02 02       	muls	r16, r18
     d1a:	5c 01       	movw	r10, r24
     d1c:	cb 00       	.word	0x00cb	; ????
     d1e:	00 00       	nop
     d20:	06 49       	sbci	r16, 0x96	; 150
     d22:	04 00       	.word	0x0004	; ????
     d24:	00 00       	nop
     d26:	06 d9       	rcall	.-3572   	; 0xffffff34 <__eeprom_end+0xff7eff34>
     d28:	03 00       	.word	0x0003	; ????
     d2a:	00 01       	movw	r0, r0
     d2c:	06 96       	adiw	r24, 0x06	; 6
     d2e:	03 00       	.word	0x0003	; ????
     d30:	00 02       	muls	r16, r16
     d32:	06 a9       	ldd	r16, Z+54	; 0x36
     d34:	04 00       	.word	0x0004	; ????
     d36:	00 03       	mulsu	r16, r16
     d38:	06 86       	std	Z+14, r0	; 0x0e
     d3a:	04 00       	.word	0x0004	; ????
     d3c:	00 04       	cpc	r0, r0
     d3e:	00 07       	cpc	r16, r16
     d40:	04 02       	muls	r16, r20
     d42:	71 01       	movw	r14, r2
     d44:	ea 00       	.word	0x00ea	; ????
     d46:	00 00       	nop
     d48:	08 6c       	ori	r16, 0xC8	; 200
     d4a:	6c 00       	.word	0x006c	; ????
     d4c:	02 72       	andi	r16, 0x22	; 34
     d4e:	01 82       	std	Z+1, r0	; 0x01
     d50:	00 00       	nop
     d52:	00 08       	sbc	r0, r0
     d54:	6c 00       	.word	0x006c	; ????
     d56:	02 73       	andi	r16, 0x32	; 50
     d58:	01 ea       	ldi	r16, 0xA1	; 161
     d5a:	00 00       	nop
     d5c:	00 00       	nop
     d5e:	09 8d       	ldd	r16, Y+25	; 0x19
     d60:	00 00       	nop
     d62:	00 fa       	bst	r0, 0
     d64:	00 00       	nop
     d66:	00 0a       	sbc	r0, r16
     d68:	fa 00       	.word	0x00fa	; ????
     d6a:	00 00       	nop
     d6c:	01 00       	.word	0x0001	; ????
     d6e:	0b 02       	muls	r16, r27
     d70:	07 0c       	add	r0, r7
     d72:	08 02       	muls	r16, r24
     d74:	65 01       	movw	r12, r10
     d76:	43 01       	movw	r8, r6
     d78:	00 00       	nop
     d7a:	0d c6       	rjmp	.+3098   	; 0x1996 <__data_load_end+0xcc2>
     d7c:	03 00       	.word	0x0003	; ????
     d7e:	00 02       	muls	r16, r16
     d80:	67 01       	movw	r12, r14
     d82:	3e 00       	.word	0x003e	; ????
     d84:	00 00       	nop
     d86:	02 23       	and	r16, r18
     d88:	00 0d       	add	r16, r0
     d8a:	9f 04       	cpc	r9, r15
     d8c:	00 00       	nop
     d8e:	02 68       	ori	r16, 0x82	; 130
     d90:	01 43       	sbci	r16, 0x31	; 49
     d92:	01 00       	.word	0x0001	; ????
     d94:	00 02       	muls	r16, r16
     d96:	23 01       	movw	r4, r6
     d98:	0d a3       	std	Y+37, r16	; 0x25
     d9a:	03 00       	.word	0x0003	; ????
     d9c:	00 02       	muls	r16, r16
     d9e:	69 01       	movw	r12, r18
     da0:	4a 01       	movw	r8, r20
     da2:	00 00       	nop
     da4:	02 23       	and	r16, r18
     da6:	02 0d       	add	r16, r2
     da8:	2d 04       	cpc	r2, r13
     daa:	00 00       	nop
     dac:	02 74       	andi	r16, 0x42	; 66
     dae:	01 cb       	rjmp	.-2558   	; 0x3b2 <__subsf3+0x40>
     db0:	00 00       	nop
     db2:	00 02       	muls	r16, r16
     db4:	23 04       	cpc	r2, r3
     db6:	00 03       	mulsu	r16, r16
     db8:	01 08       	sbc	r0, r1
     dba:	a6 00       	.word	0x00a6	; ????
     dbc:	00 00       	nop
     dbe:	03 02       	muls	r16, r19
     dc0:	05 95       	asr	r16
     dc2:	04 00       	.word	0x0004	; ????
     dc4:	00 0e       	add	r0, r16
     dc6:	5e 04       	cpc	r5, r14
     dc8:	00 00       	nop
     dca:	02 75       	andi	r16, 0x52	; 82
     dcc:	01 fd       	sbrc	r16, 1
     dce:	00 00       	nop
     dd0:	00 0c       	add	r0, r0
     dd2:	04 02       	muls	r16, r20
     dd4:	86 01       	movw	r16, r12
     dd6:	9d 01       	movw	r18, r26
     dd8:	00 00       	nop
     dda:	0f 2d       	mov	r16, r15
     ddc:	04 00       	.word	0x0004	; ????
     dde:	00 02       	muls	r16, r16
     de0:	87 01       	movw	r16, r14
     de2:	82 00       	.word	0x0082	; ????
     de4:	00 00       	nop
     de6:	04 17       	cp	r16, r20
     de8:	09 02       	muls	r16, r25
     dea:	23 00       	.word	0x0023	; ????
     dec:	10 65       	ori	r17, 0x50	; 80
     dee:	78 70       	andi	r23, 0x08	; 8
     df0:	00 02       	muls	r16, r16
     df2:	88 01       	movw	r16, r16
     df4:	69 00       	.word	0x0069	; ????
     df6:	00 00       	nop
     df8:	02 08       	sbc	r0, r2
     dfa:	01 02       	muls	r16, r17
     dfc:	23 02       	muls	r18, r19
     dfe:	0f 9f       	mul	r16, r31
     e00:	04 00       	.word	0x0004	; ????
     e02:	00 02       	muls	r16, r16
     e04:	89 01       	movw	r16, r18
     e06:	69 00       	.word	0x0069	; ????
     e08:	00 00       	nop
     e0a:	02 01       	movw	r0, r4
     e0c:	08 02       	muls	r16, r24
     e0e:	23 03       	mulsu	r18, r19
     e10:	00 07       	cpc	r16, r16
     e12:	04 02       	muls	r16, r20
     e14:	78 01       	movw	r14, r16
     e16:	cb 01       	movw	r24, r22
     e18:	00 00       	nop
     e1a:	11 78       	andi	r17, 0x81	; 129
     e1c:	04 00       	.word	0x0004	; ????
     e1e:	00 02       	muls	r16, r16
     e20:	79 01       	movw	r14, r18
     e22:	98 00       	.word	0x0098	; ????
     e24:	00 00       	nop
     e26:	11 36       	cpi	r17, 0x61	; 97
     e28:	04 00       	.word	0x0004	; ????
     e2a:	00 02       	muls	r16, r16
     e2c:	7a 01       	movw	r14, r20
     e2e:	82 00       	.word	0x0082	; ????
     e30:	00 00       	nop
     e32:	11 a4       	ldd	r1, Z+41	; 0x29
     e34:	04 00       	.word	0x0004	; ????
     e36:	00 02       	muls	r16, r16
     e38:	8b 01       	movw	r16, r22
     e3a:	5d 01       	movw	r10, r26
     e3c:	00 00       	nop
     e3e:	00 0e       	add	r0, r16
     e40:	1c 04       	cpc	r1, r12
     e42:	00 00       	nop
     e44:	02 a0       	ldd	r0, Z+34	; 0x22
     e46:	01 9d       	mul	r16, r1
     e48:	01 00       	.word	0x0001	; ????
     e4a:	00 12       	cpse	r0, r16
     e4c:	ae 03       	fmulsu	r18, r22
     e4e:	00 00       	nop
     e50:	01 a6       	std	Z+41, r0	; 0x29
     e52:	01 37       	cpi	r16, 0x71	; 113
     e54:	00 00       	nop
     e56:	00 03       	mulsu	r16, r16
     e58:	f2 01       	movw	r30, r4
     e5a:	00 00       	nop
     e5c:	13 78       	andi	r17, 0x83	; 131
     e5e:	00 01       	movw	r0, r0
     e60:	a5 f2       	brhs	.-88     	; 0xe0a <__data_load_end+0x136>
     e62:	01 00       	.word	0x0001	; ????
     e64:	00 00       	nop
     e66:	14 02       	muls	r17, r20
     e68:	51 01       	movw	r10, r2
     e6a:	00 00       	nop
     e6c:	15 01       	movw	r2, r10
     e6e:	02 05       	cpc	r16, r2
     e70:	00 00       	nop
     e72:	01 de       	rcall	.-1022   	; 0xa76 <__unpack_f+0xe2>
     e74:	04 01       	movw	r0, r8
     e76:	25 00       	.word	0x0025	; ????
     e78:	00 00       	nop
     e7a:	22 06       	cpc	r2, r18
     e7c:	00 00       	nop
     e7e:	82 06       	cpc	r8, r18
     e80:	00 00       	nop
     e82:	02 90       	ld	r0, -Z
     e84:	20 6c       	ori	r18, 0xC0	; 192
     e86:	02 00       	.word	0x0002	; ????
     e88:	00 16       	cp	r0, r16
     e8a:	e4 03       	fmuls	r22, r20
     e8c:	00 00       	nop
     e8e:	01 dd       	rcall	.-1534   	; 0x892 <__stack+0x33>
     e90:	04 98       	cbi	0x00, 4	; 0
     e92:	00 00       	nop
     e94:	00 62       	ori	r16, 0x20	; 32
     e96:	04 00       	.word	0x0004	; ????
     e98:	00 16       	cp	r0, r16
     e9a:	ea 03       	fmulsu	r22, r18
     e9c:	00 00       	nop
     e9e:	01 dd       	rcall	.-1534   	; 0x8a2 <__stack+0x43>
     ea0:	04 98       	cbi	0x00, 4	; 0
     ea2:	00 00       	nop
     ea4:	00 80       	ld	r0, Z
     ea6:	04 00       	.word	0x0004	; ????
     ea8:	00 17       	cp	r16, r16
     eaa:	61 00       	.word	0x0061	; ????
     eac:	01 df       	rcall	.-510    	; 0xcb0 <__epilogue_restores__+0x1e>
     eae:	04 51       	subi	r16, 0x14	; 20
     eb0:	01 00       	.word	0x0001	; ????
     eb2:	00 02       	muls	r16, r16
     eb4:	8c 09       	sbc	r24, r12
     eb6:	17 62       	ori	r17, 0x27	; 39
     eb8:	00 01       	movw	r0, r0
     eba:	e0 04       	cpc	r14, r0
     ebc:	51 01       	movw	r10, r2
     ebe:	00 00       	nop
     ec0:	02 8c       	ldd	r0, Z+26	; 0x1a
     ec2:	11 17       	cp	r17, r17
     ec4:	61 75       	andi	r22, 0x51	; 81
     ec6:	00 01       	movw	r0, r0
     ec8:	e1 04       	cpc	r14, r1
     eca:	cb 01       	movw	r24, r22
     ecc:	00 00       	nop
     ece:	02 8c       	ldd	r0, Z+26	; 0x1a
     ed0:	01 17       	cp	r16, r17
     ed2:	62 75       	andi	r22, 0x52	; 82
     ed4:	00 01       	movw	r0, r0
     ed6:	e1 04       	cpc	r14, r1
     ed8:	cb 01       	movw	r24, r22
     eda:	00 00       	nop
     edc:	02 8c       	ldd	r0, Z+26	; 0x1a
     ede:	05 00       	.word	0x0005	; ????
     ee0:	18 b4       	in	r1, 0x28	; 40
     ee2:	03 00       	.word	0x0003	; ????
     ee4:	00 01       	movw	r0, r0
     ee6:	90 79       	andi	r25, 0x90	; 144
     ee8:	02 00       	.word	0x0002	; ????
     eea:	00 01       	movw	r0, r0
     eec:	01 19       	sub	r16, r1
     eee:	51 01       	movw	r10, r2
     ef0:	00 00       	nop
     ef2:	00 7b       	andi	r16, 0xB0	; 176
     ef4:	02 00       	.word	0x0002	; ????
     ef6:	00 02       	muls	r16, r16
     ef8:	00 ae       	std	Z+56, r0	; 0x38
     efa:	06 00       	.word	0x0006	; ????
     efc:	00 04       	cpc	r0, r0
     efe:	01 e5       	ldi	r16, 0x51	; 81
     f00:	00 00       	nop
     f02:	00 01       	movw	r0, r0
     f04:	fd 03       	fmulsu	r23, r21
     f06:	00 00       	nop
     f08:	07 03       	mulsu	r16, r23
     f0a:	00 00       	nop
     f0c:	82 06       	cpc	r8, r18
     f0e:	00 00       	nop
     f10:	e2 06       	cpc	r14, r18
     f12:	00 00       	nop
     f14:	f4 08       	sbc	r15, r4
     f16:	00 00       	nop
     f18:	02 fb       	bst	r16, 2
     f1a:	04 00       	.word	0x0004	; ????
     f1c:	00 01       	movw	r0, r0
     f1e:	08 30       	cpi	r16, 0x08	; 8
     f20:	00 00       	nop
     f22:	00 03       	mulsu	r16, r16
     f24:	01 06       	cpc	r0, r17
     f26:	a8 00       	.word	0x00a8	; ????
     f28:	00 00       	nop
     f2a:	04 02       	muls	r16, r20
     f2c:	05 69       	ori	r16, 0x95	; 149
     f2e:	6e 74       	andi	r22, 0x4E	; 78
     f30:	00 03       	mulsu	r16, r16
     f32:	01 06       	cpc	r0, r17
     f34:	af 00       	.word	0x00af	; ????
     f36:	00 00       	nop
     f38:	02 4a       	sbci	r16, 0xA2	; 162
     f3a:	03 00       	.word	0x0003	; ????
     f3c:	00 02       	muls	r16, r16
     f3e:	61 50       	subi	r22, 0x01	; 1
     f40:	00 00       	nop
     f42:	00 03       	mulsu	r16, r16
     f44:	04 04       	cpc	r0, r4
     f46:	44 03       	mulsu	r20, r20
     f48:	00 00       	nop
     f4a:	03 04       	cpc	r0, r3
     f4c:	05 3c       	cpi	r16, 0xC5	; 197
     f4e:	02 00       	.word	0x0002	; ????
     f50:	00 02       	muls	r16, r16
     f52:	b6 04       	cpc	r11, r6
     f54:	00 00       	nop
     f56:	02 74       	andi	r16, 0x42	; 66
     f58:	69 00       	.word	0x0069	; ????
     f5a:	00 00       	nop
     f5c:	03 02       	muls	r16, r19
     f5e:	07 dd       	rcall	.-1522   	; 0x96e <__stack+0x10f>
     f60:	01 00       	.word	0x0001	; ????
     f62:	00 02       	muls	r16, r16
     f64:	51 03       	mulsu	r21, r17
     f66:	00 00       	nop
     f68:	02 75       	andi	r16, 0x52	; 82
     f6a:	7b 00       	.word	0x007b	; ????
     f6c:	00 00       	nop
     f6e:	03 04       	cpc	r0, r3
     f70:	07 d8       	rcall	.-4082   	; 0xffffff80 <__eeprom_end+0xff7eff80>
     f72:	01 00       	.word	0x0001	; ????
     f74:	00 02       	muls	r16, r16
     f76:	cb 04       	cpc	r12, r11
     f78:	00 00       	nop
     f7a:	02 c4       	rjmp	.+2052   	; 0x1780 <__data_load_end+0xaac>
     f7c:	70 00       	.word	0x0070	; ????
     f7e:	00 00       	nop
     f80:	02 c7       	rjmp	.+3588   	; 0x1d86 <__data_load_end+0x10b2>
     f82:	04 00       	.word	0x0004	; ????
     f84:	00 02       	muls	r16, r16
     f86:	c5 5e       	subi	r28, 0xE5	; 229
     f88:	00 00       	nop
     f8a:	00 02       	muls	r16, r16
     f8c:	40 04       	cpc	r4, r0
     f8e:	00 00       	nop
     f90:	02 c6       	rjmp	.+3076   	; 0x1b96 <__data_load_end+0xec2>
     f92:	45 00       	.word	0x0045	; ????
     f94:	00 00       	nop
     f96:	05 02       	muls	r16, r21
     f98:	02 5c       	subi	r16, 0xC2	; 194
     f9a:	01 cb       	rjmp	.-2558   	; 0x59e <__mulsf3+0x170>
     f9c:	00 00       	nop
     f9e:	00 06       	cpc	r0, r16
     fa0:	49 04       	cpc	r4, r9
     fa2:	00 00       	nop
     fa4:	00 06       	cpc	r0, r16
     fa6:	d9 03       	fmulsu	r21, r17
     fa8:	00 00       	nop
     faa:	01 06       	cpc	r0, r17
     fac:	96 03       	fmuls	r17, r22
     fae:	00 00       	nop
     fb0:	02 06       	cpc	r0, r18
     fb2:	a9 04       	cpc	r10, r9
     fb4:	00 00       	nop
     fb6:	03 06       	cpc	r0, r19
     fb8:	86 04       	cpc	r8, r6
     fba:	00 00       	nop
     fbc:	04 00       	.word	0x0004	; ????
     fbe:	07 04       	cpc	r0, r7
     fc0:	02 71       	andi	r16, 0x12	; 18
     fc2:	01 ea       	ldi	r16, 0xA1	; 161
     fc4:	00 00       	nop
     fc6:	00 08       	sbc	r0, r0
     fc8:	6c 6c       	ori	r22, 0xCC	; 204
     fca:	00 02       	muls	r16, r16
     fcc:	72 01       	movw	r14, r4
     fce:	82 00       	.word	0x0082	; ????
     fd0:	00 00       	nop
     fd2:	08 6c       	ori	r16, 0xC8	; 200
     fd4:	00 02       	muls	r16, r16
     fd6:	73 01       	movw	r14, r6
     fd8:	ea 00       	.word	0x00ea	; ????
     fda:	00 00       	nop
     fdc:	00 09       	sbc	r16, r0
     fde:	8d 00       	.word	0x008d	; ????
     fe0:	00 00       	nop
     fe2:	fa 00       	.word	0x00fa	; ????
     fe4:	00 00       	nop
     fe6:	0a fa       	.word	0xfa0a	; ????
     fe8:	00 00       	nop
     fea:	00 01       	movw	r0, r0
     fec:	00 0b       	sbc	r16, r16
     fee:	02 07       	cpc	r16, r18
     ff0:	0c 08       	sbc	r0, r12
     ff2:	02 65       	ori	r16, 0x52	; 82
     ff4:	01 43       	sbci	r16, 0x31	; 49
     ff6:	01 00       	.word	0x0001	; ????
     ff8:	00 0d       	add	r16, r0
     ffa:	c6 03       	fmuls	r20, r22
     ffc:	00 00       	nop
     ffe:	02 67       	ori	r16, 0x72	; 114
    1000:	01 3e       	cpi	r16, 0xE1	; 225
    1002:	00 00       	nop
    1004:	00 02       	muls	r16, r16
    1006:	23 00       	.word	0x0023	; ????
    1008:	0d 9f       	mul	r16, r29
    100a:	04 00       	.word	0x0004	; ????
    100c:	00 02       	muls	r16, r16
    100e:	68 01       	movw	r12, r16
    1010:	43 01       	movw	r8, r6
    1012:	00 00       	nop
    1014:	02 23       	and	r16, r18
    1016:	01 0d       	add	r16, r1
    1018:	a3 03       	fmuls	r18, r19
    101a:	00 00       	nop
    101c:	02 69       	ori	r16, 0x92	; 146
    101e:	01 4a       	sbci	r16, 0xA1	; 161
    1020:	01 00       	.word	0x0001	; ????
    1022:	00 02       	muls	r16, r16
    1024:	23 02       	muls	r18, r19
    1026:	0d 2d       	mov	r16, r13
    1028:	04 00       	.word	0x0004	; ????
    102a:	00 02       	muls	r16, r16
    102c:	74 01       	movw	r14, r8
    102e:	cb 00       	.word	0x00cb	; ????
    1030:	00 00       	nop
    1032:	02 23       	and	r16, r18
    1034:	04 00       	.word	0x0004	; ????
    1036:	03 01       	movw	r0, r6
    1038:	08 a6       	std	Y+40, r0	; 0x28
    103a:	00 00       	nop
    103c:	00 03       	mulsu	r16, r16
    103e:	02 05       	cpc	r16, r2
    1040:	95 04       	cpc	r9, r5
    1042:	00 00       	nop
    1044:	0e 5e       	subi	r16, 0xEE	; 238
    1046:	04 00       	.word	0x0004	; ????
    1048:	00 02       	muls	r16, r16
    104a:	75 01       	movw	r14, r10
    104c:	fd 00       	.word	0x00fd	; ????
    104e:	00 00       	nop
    1050:	0c 04       	cpc	r0, r12
    1052:	02 86       	std	Z+10, r0	; 0x0a
    1054:	01 9d       	mul	r16, r1
    1056:	01 00       	.word	0x0001	; ????
    1058:	00 0f       	add	r16, r16
    105a:	2d 04       	cpc	r2, r13
    105c:	00 00       	nop
    105e:	02 87       	std	Z+10, r16	; 0x0a
    1060:	01 82       	std	Z+1, r0	; 0x01
    1062:	00 00       	nop
    1064:	00 04       	cpc	r0, r0
    1066:	17 09       	sbc	r17, r7
    1068:	02 23       	and	r16, r18
    106a:	00 10       	cpse	r0, r0
    106c:	65 78       	andi	r22, 0x85	; 133
    106e:	70 00       	.word	0x0070	; ????
    1070:	02 88       	ldd	r0, Z+18	; 0x12
    1072:	01 69       	ori	r16, 0x91	; 145
    1074:	00 00       	nop
    1076:	00 02       	muls	r16, r16
    1078:	08 01       	movw	r0, r16
    107a:	02 23       	and	r16, r18
    107c:	02 0f       	add	r16, r18
    107e:	9f 04       	cpc	r9, r15
    1080:	00 00       	nop
    1082:	02 89       	ldd	r16, Z+18	; 0x12
    1084:	01 69       	ori	r16, 0x91	; 145
    1086:	00 00       	nop
    1088:	00 02       	muls	r16, r16
    108a:	01 08       	sbc	r0, r1
    108c:	02 23       	and	r16, r18
    108e:	03 00       	.word	0x0003	; ????
    1090:	07 04       	cpc	r0, r7
    1092:	02 78       	andi	r16, 0x82	; 130
    1094:	01 cb       	rjmp	.-2558   	; 0x698 <__gesf2+0x16>
    1096:	01 00       	.word	0x0001	; ????
    1098:	00 11       	cpse	r16, r0
    109a:	78 04       	cpc	r7, r8
    109c:	00 00       	nop
    109e:	02 79       	andi	r16, 0x92	; 146
    10a0:	01 98       	cbi	0x00, 1	; 0
    10a2:	00 00       	nop
    10a4:	00 11       	cpse	r16, r0
    10a6:	36 04       	cpc	r3, r6
    10a8:	00 00       	nop
    10aa:	02 7a       	andi	r16, 0xA2	; 162
    10ac:	01 82       	std	Z+1, r0	; 0x01
    10ae:	00 00       	nop
    10b0:	00 11       	cpse	r16, r0
    10b2:	a4 04       	cpc	r10, r4
    10b4:	00 00       	nop
    10b6:	02 8b       	std	Z+18, r16	; 0x12
    10b8:	01 5d       	subi	r16, 0xD1	; 209
    10ba:	01 00       	.word	0x0001	; ????
    10bc:	00 00       	nop
    10be:	0e 1c       	adc	r0, r14
    10c0:	04 00       	.word	0x0004	; ????
    10c2:	00 02       	muls	r16, r16
    10c4:	a0 01       	movw	r20, r0
    10c6:	9d 01       	movw	r18, r26
    10c8:	00 00       	nop
    10ca:	12 ae       	std	Z+58, r1	; 0x3a
    10cc:	03 00       	.word	0x0003	; ????
    10ce:	00 01       	movw	r0, r0
    10d0:	a6 01       	movw	r20, r12
    10d2:	37 00       	.word	0x0037	; ????
    10d4:	00 00       	nop
    10d6:	03 f2       	brvs	.-128    	; 0x1058 <__data_load_end+0x384>
    10d8:	01 00       	.word	0x0001	; ????
    10da:	00 13       	cpse	r16, r16
    10dc:	78 00       	.word	0x0078	; ????
    10de:	01 a5       	ldd	r16, Z+41	; 0x29
    10e0:	f2 01       	movw	r30, r4
    10e2:	00 00       	nop
    10e4:	00 14       	cp	r0, r0
    10e6:	02 51       	subi	r16, 0x12	; 18
    10e8:	01 00       	.word	0x0001	; ????
    10ea:	00 15       	cp	r16, r0
    10ec:	01 0a       	sbc	r0, r17
    10ee:	05 00       	.word	0x0005	; ????
    10f0:	00 01       	movw	r0, r0
    10f2:	f3 04       	cpc	r15, r3
    10f4:	01 25       	eor	r16, r1
    10f6:	00 00       	nop
    10f8:	00 82       	st	Z, r0
    10fa:	06 00       	.word	0x0006	; ????
    10fc:	00 e2       	ldi	r16, 0x20	; 32
    10fe:	06 00       	.word	0x0006	; ????
    1100:	00 02       	muls	r16, r16
    1102:	90 20       	and	r9, r0
    1104:	6c 02       	muls	r22, r28
    1106:	00 00       	nop
    1108:	16 e4       	ldi	r17, 0x46	; 70
    110a:	03 00       	.word	0x0003	; ????
    110c:	00 01       	movw	r0, r0
    110e:	f2 04       	cpc	r15, r2
    1110:	98 00       	.word	0x0098	; ????
    1112:	00 00       	nop
    1114:	9e 04       	cpc	r9, r14
    1116:	00 00       	nop
    1118:	16 ea       	ldi	r17, 0xA6	; 166
    111a:	03 00       	.word	0x0003	; ????
    111c:	00 01       	movw	r0, r0
    111e:	f2 04       	cpc	r15, r2
    1120:	98 00       	.word	0x0098	; ????
    1122:	00 00       	nop
    1124:	bc 04       	cpc	r11, r12
    1126:	00 00       	nop
    1128:	17 61       	ori	r17, 0x17	; 23
    112a:	00 01       	movw	r0, r0
    112c:	f4 04       	cpc	r15, r4
    112e:	51 01       	movw	r10, r2
    1130:	00 00       	nop
    1132:	02 8c       	ldd	r0, Z+26	; 0x1a
    1134:	09 17       	cp	r16, r25
    1136:	62 00       	.word	0x0062	; ????
    1138:	01 f5       	brne	.+64     	; 0x117a <__data_load_end+0x4a6>
    113a:	04 51       	subi	r16, 0x14	; 20
    113c:	01 00       	.word	0x0001	; ????
    113e:	00 02       	muls	r16, r16
    1140:	8c 11       	cpse	r24, r12
    1142:	17 61       	ori	r17, 0x17	; 23
    1144:	75 00       	.word	0x0075	; ????
    1146:	01 f6       	brne	.-128    	; 0x10c8 <__data_load_end+0x3f4>
    1148:	04 cb       	rjmp	.-2552   	; 0x752 <__fixsfsi+0x10>
    114a:	01 00       	.word	0x0001	; ????
    114c:	00 02       	muls	r16, r16
    114e:	8c 01       	movw	r16, r24
    1150:	17 62       	ori	r17, 0x27	; 39
    1152:	75 00       	.word	0x0075	; ????
    1154:	01 f6       	brne	.-128    	; 0x10d6 <__data_load_end+0x402>
    1156:	04 cb       	rjmp	.-2552   	; 0x760 <__fixsfsi+0x1e>
    1158:	01 00       	.word	0x0001	; ????
    115a:	00 02       	muls	r16, r16
    115c:	8c 05       	cpc	r24, r12
    115e:	00 18       	sub	r0, r0
    1160:	b4 03       	fmuls	r19, r20
    1162:	00 00       	nop
    1164:	01 90       	ld	r0, Z+
    1166:	79 02       	muls	r23, r25
    1168:	00 00       	nop
    116a:	01 01       	movw	r0, r2
    116c:	19 51       	subi	r17, 0x19	; 25
    116e:	01 00       	.word	0x0001	; ????
    1170:	00 00       	nop
    1172:	7b 02       	muls	r23, r27
    1174:	00 00       	nop
    1176:	02 00       	.word	0x0002	; ????
    1178:	08 08       	sbc	r0, r8
    117a:	00 00       	nop
    117c:	04 01       	movw	r0, r8
    117e:	e5 00       	.word	0x00e5	; ????
    1180:	00 00       	nop
    1182:	01 fd       	sbrc	r16, 1
    1184:	03 00       	.word	0x0003	; ????
    1186:	00 07       	cpc	r16, r16
    1188:	03 00       	.word	0x0003	; ????
    118a:	00 e2       	ldi	r16, 0x20	; 32
    118c:	06 00       	.word	0x0006	; ????
    118e:	00 42       	sbci	r16, 0x20	; 32
    1190:	07 00       	.word	0x0007	; ????
    1192:	00 c7       	rjmp	.+3584   	; 0x1f94 <__data_load_end+0x12c0>
    1194:	09 00       	.word	0x0009	; ????
    1196:	00 02       	muls	r16, r16
    1198:	fb 04       	cpc	r15, r11
    119a:	00 00       	nop
    119c:	01 08       	sbc	r0, r1
    119e:	30 00       	.word	0x0030	; ????
    11a0:	00 00       	nop
    11a2:	03 01       	movw	r0, r6
    11a4:	06 a8       	ldd	r0, Z+54	; 0x36
    11a6:	00 00       	nop
    11a8:	00 04       	cpc	r0, r0
    11aa:	02 05       	cpc	r16, r2
    11ac:	69 6e       	ori	r22, 0xE9	; 233
    11ae:	74 00       	.word	0x0074	; ????
    11b0:	03 01       	movw	r0, r6
    11b2:	06 af       	std	Z+62, r16	; 0x3e
    11b4:	00 00       	nop
    11b6:	00 02       	muls	r16, r16
    11b8:	4a 03       	fmul	r20, r18
    11ba:	00 00       	nop
    11bc:	02 61       	ori	r16, 0x12	; 18
    11be:	50 00       	.word	0x0050	; ????
    11c0:	00 00       	nop
    11c2:	03 04       	cpc	r0, r3
    11c4:	04 44       	sbci	r16, 0x44	; 68
    11c6:	03 00       	.word	0x0003	; ????
    11c8:	00 03       	mulsu	r16, r16
    11ca:	04 05       	cpc	r16, r4
    11cc:	3c 02       	muls	r19, r28
    11ce:	00 00       	nop
    11d0:	02 b6       	in	r0, 0x32	; 50
    11d2:	04 00       	.word	0x0004	; ????
    11d4:	00 02       	muls	r16, r16
    11d6:	74 69       	ori	r23, 0x94	; 148
    11d8:	00 00       	nop
    11da:	00 03       	mulsu	r16, r16
    11dc:	02 07       	cpc	r16, r18
    11de:	dd 01       	movw	r26, r26
    11e0:	00 00       	nop
    11e2:	02 51       	subi	r16, 0x12	; 18
    11e4:	03 00       	.word	0x0003	; ????
    11e6:	00 02       	muls	r16, r16
    11e8:	75 7b       	andi	r23, 0xB5	; 181
    11ea:	00 00       	nop
    11ec:	00 03       	mulsu	r16, r16
    11ee:	04 07       	cpc	r16, r20
    11f0:	d8 01       	movw	r26, r16
    11f2:	00 00       	nop
    11f4:	02 cb       	rjmp	.-2556   	; 0x7fa <__pack_f+0x10>
    11f6:	04 00       	.word	0x0004	; ????
    11f8:	00 02       	muls	r16, r16
    11fa:	c4 70       	andi	r28, 0x04	; 4
    11fc:	00 00       	nop
    11fe:	00 02       	muls	r16, r16
    1200:	c7 04       	cpc	r12, r7
    1202:	00 00       	nop
    1204:	02 c5       	rjmp	.+2564   	; 0x1c0a <__data_load_end+0xf36>
    1206:	5e 00       	.word	0x005e	; ????
    1208:	00 00       	nop
    120a:	02 40       	sbci	r16, 0x02	; 2
    120c:	04 00       	.word	0x0004	; ????
    120e:	00 02       	muls	r16, r16
    1210:	c6 45       	sbci	r28, 0x56	; 86
    1212:	00 00       	nop
    1214:	00 05       	cpc	r16, r0
    1216:	02 02       	muls	r16, r18
    1218:	5c 01       	movw	r10, r24
    121a:	cb 00       	.word	0x00cb	; ????
    121c:	00 00       	nop
    121e:	06 49       	sbci	r16, 0x96	; 150
    1220:	04 00       	.word	0x0004	; ????
    1222:	00 00       	nop
    1224:	06 d9       	rcall	.-3572   	; 0x432 <__mulsf3+0x4>
    1226:	03 00       	.word	0x0003	; ????
    1228:	00 01       	movw	r0, r0
    122a:	06 96       	adiw	r24, 0x06	; 6
    122c:	03 00       	.word	0x0003	; ????
    122e:	00 02       	muls	r16, r16
    1230:	06 a9       	ldd	r16, Z+54	; 0x36
    1232:	04 00       	.word	0x0004	; ????
    1234:	00 03       	mulsu	r16, r16
    1236:	06 86       	std	Z+14, r0	; 0x0e
    1238:	04 00       	.word	0x0004	; ????
    123a:	00 04       	cpc	r0, r0
    123c:	00 07       	cpc	r16, r16
    123e:	04 02       	muls	r16, r20
    1240:	71 01       	movw	r14, r2
    1242:	ea 00       	.word	0x00ea	; ????
    1244:	00 00       	nop
    1246:	08 6c       	ori	r16, 0xC8	; 200
    1248:	6c 00       	.word	0x006c	; ????
    124a:	02 72       	andi	r16, 0x22	; 34
    124c:	01 82       	std	Z+1, r0	; 0x01
    124e:	00 00       	nop
    1250:	00 08       	sbc	r0, r0
    1252:	6c 00       	.word	0x006c	; ????
    1254:	02 73       	andi	r16, 0x32	; 50
    1256:	01 ea       	ldi	r16, 0xA1	; 161
    1258:	00 00       	nop
    125a:	00 00       	nop
    125c:	09 8d       	ldd	r16, Y+25	; 0x19
    125e:	00 00       	nop
    1260:	00 fa       	bst	r0, 0
    1262:	00 00       	nop
    1264:	00 0a       	sbc	r0, r16
    1266:	fa 00       	.word	0x00fa	; ????
    1268:	00 00       	nop
    126a:	01 00       	.word	0x0001	; ????
    126c:	0b 02       	muls	r16, r27
    126e:	07 0c       	add	r0, r7
    1270:	08 02       	muls	r16, r24
    1272:	65 01       	movw	r12, r10
    1274:	43 01       	movw	r8, r6
    1276:	00 00       	nop
    1278:	0d c6       	rjmp	.+3098   	; 0x1e94 <__data_load_end+0x11c0>
    127a:	03 00       	.word	0x0003	; ????
    127c:	00 02       	muls	r16, r16
    127e:	67 01       	movw	r12, r14
    1280:	3e 00       	.word	0x003e	; ????
    1282:	00 00       	nop
    1284:	02 23       	and	r16, r18
    1286:	00 0d       	add	r16, r0
    1288:	9f 04       	cpc	r9, r15
    128a:	00 00       	nop
    128c:	02 68       	ori	r16, 0x82	; 130
    128e:	01 43       	sbci	r16, 0x31	; 49
    1290:	01 00       	.word	0x0001	; ????
    1292:	00 02       	muls	r16, r16
    1294:	23 01       	movw	r4, r6
    1296:	0d a3       	std	Y+37, r16	; 0x25
    1298:	03 00       	.word	0x0003	; ????
    129a:	00 02       	muls	r16, r16
    129c:	69 01       	movw	r12, r18
    129e:	4a 01       	movw	r8, r20
    12a0:	00 00       	nop
    12a2:	02 23       	and	r16, r18
    12a4:	02 0d       	add	r16, r2
    12a6:	2d 04       	cpc	r2, r13
    12a8:	00 00       	nop
    12aa:	02 74       	andi	r16, 0x42	; 66
    12ac:	01 cb       	rjmp	.-2558   	; 0x8b0 <__stack+0x51>
    12ae:	00 00       	nop
    12b0:	00 02       	muls	r16, r16
    12b2:	23 04       	cpc	r2, r3
    12b4:	00 03       	mulsu	r16, r16
    12b6:	01 08       	sbc	r0, r1
    12b8:	a6 00       	.word	0x00a6	; ????
    12ba:	00 00       	nop
    12bc:	03 02       	muls	r16, r19
    12be:	05 95       	asr	r16
    12c0:	04 00       	.word	0x0004	; ????
    12c2:	00 0e       	add	r0, r16
    12c4:	5e 04       	cpc	r5, r14
    12c6:	00 00       	nop
    12c8:	02 75       	andi	r16, 0x52	; 82
    12ca:	01 fd       	sbrc	r16, 1
    12cc:	00 00       	nop
    12ce:	00 0c       	add	r0, r0
    12d0:	04 02       	muls	r16, r20
    12d2:	86 01       	movw	r16, r12
    12d4:	9d 01       	movw	r18, r26
    12d6:	00 00       	nop
    12d8:	0f 2d       	mov	r16, r15
    12da:	04 00       	.word	0x0004	; ????
    12dc:	00 02       	muls	r16, r16
    12de:	87 01       	movw	r16, r14
    12e0:	82 00       	.word	0x0082	; ????
    12e2:	00 00       	nop
    12e4:	04 17       	cp	r16, r20
    12e6:	09 02       	muls	r16, r25
    12e8:	23 00       	.word	0x0023	; ????
    12ea:	10 65       	ori	r17, 0x50	; 80
    12ec:	78 70       	andi	r23, 0x08	; 8
    12ee:	00 02       	muls	r16, r16
    12f0:	88 01       	movw	r16, r16
    12f2:	69 00       	.word	0x0069	; ????
    12f4:	00 00       	nop
    12f6:	02 08       	sbc	r0, r2
    12f8:	01 02       	muls	r16, r17
    12fa:	23 02       	muls	r18, r19
    12fc:	0f 9f       	mul	r16, r31
    12fe:	04 00       	.word	0x0004	; ????
    1300:	00 02       	muls	r16, r16
    1302:	89 01       	movw	r16, r18
    1304:	69 00       	.word	0x0069	; ????
    1306:	00 00       	nop
    1308:	02 01       	movw	r0, r4
    130a:	08 02       	muls	r16, r24
    130c:	23 03       	mulsu	r18, r19
    130e:	00 07       	cpc	r16, r16
    1310:	04 02       	muls	r16, r20
    1312:	78 01       	movw	r14, r16
    1314:	cb 01       	movw	r24, r22
    1316:	00 00       	nop
    1318:	11 78       	andi	r17, 0x81	; 129
    131a:	04 00       	.word	0x0004	; ????
    131c:	00 02       	muls	r16, r16
    131e:	79 01       	movw	r14, r18
    1320:	98 00       	.word	0x0098	; ????
    1322:	00 00       	nop
    1324:	11 36       	cpi	r17, 0x61	; 97
    1326:	04 00       	.word	0x0004	; ????
    1328:	00 02       	muls	r16, r16
    132a:	7a 01       	movw	r14, r20
    132c:	82 00       	.word	0x0082	; ????
    132e:	00 00       	nop
    1330:	11 a4       	ldd	r1, Z+41	; 0x29
    1332:	04 00       	.word	0x0004	; ????
    1334:	00 02       	muls	r16, r16
    1336:	8b 01       	movw	r16, r22
    1338:	5d 01       	movw	r10, r26
    133a:	00 00       	nop
    133c:	00 0e       	add	r0, r16
    133e:	1c 04       	cpc	r1, r12
    1340:	00 00       	nop
    1342:	02 a0       	ldd	r0, Z+34	; 0x22
    1344:	01 9d       	mul	r16, r1
    1346:	01 00       	.word	0x0001	; ????
    1348:	00 12       	cpse	r0, r16
    134a:	ae 03       	fmulsu	r18, r22
    134c:	00 00       	nop
    134e:	01 a6       	std	Z+41, r0	; 0x29
    1350:	01 37       	cpi	r16, 0x71	; 113
    1352:	00 00       	nop
    1354:	00 03       	mulsu	r16, r16
    1356:	f2 01       	movw	r30, r4
    1358:	00 00       	nop
    135a:	13 78       	andi	r17, 0x83	; 131
    135c:	00 01       	movw	r0, r0
    135e:	a5 f2       	brhs	.-88     	; 0x1308 <__data_load_end+0x634>
    1360:	01 00       	.word	0x0001	; ????
    1362:	00 00       	nop
    1364:	14 02       	muls	r17, r20
    1366:	51 01       	movw	r10, r2
    1368:	00 00       	nop
    136a:	15 01       	movw	r2, r10
    136c:	12 05       	cpc	r17, r2
    136e:	00 00       	nop
    1370:	01 07       	cpc	r16, r17
    1372:	05 01       	movw	r0, r10
    1374:	25 00       	.word	0x0025	; ????
    1376:	00 00       	nop
    1378:	e2 06       	cpc	r14, r18
    137a:	00 00       	nop
    137c:	42 07       	cpc	r20, r18
    137e:	00 00       	nop
    1380:	02 90       	ld	r0, -Z
    1382:	20 6c       	ori	r18, 0xC0	; 192
    1384:	02 00       	.word	0x0002	; ????
    1386:	00 16       	cp	r0, r16
    1388:	e4 03       	fmuls	r22, r20
    138a:	00 00       	nop
    138c:	01 06       	cpc	r0, r17
    138e:	05 98       	cbi	0x00, 5	; 0
    1390:	00 00       	nop
    1392:	00 da       	rcall	.-3072   	; 0x794 <__fixsfsi+0x52>
    1394:	04 00       	.word	0x0004	; ????
    1396:	00 16       	cp	r0, r16
    1398:	ea 03       	fmulsu	r22, r18
    139a:	00 00       	nop
    139c:	01 06       	cpc	r0, r17
    139e:	05 98       	cbi	0x00, 5	; 0
    13a0:	00 00       	nop
    13a2:	00 f8       	bld	r0, 0
    13a4:	04 00       	.word	0x0004	; ????
    13a6:	00 17       	cp	r16, r16
    13a8:	61 00       	.word	0x0061	; ????
    13aa:	01 08       	sbc	r0, r1
    13ac:	05 51       	subi	r16, 0x15	; 21
    13ae:	01 00       	.word	0x0001	; ????
    13b0:	00 02       	muls	r16, r16
    13b2:	8c 09       	sbc	r24, r12
    13b4:	17 62       	ori	r17, 0x27	; 39
    13b6:	00 01       	movw	r0, r0
    13b8:	09 05       	cpc	r16, r9
    13ba:	51 01       	movw	r10, r2
    13bc:	00 00       	nop
    13be:	02 8c       	ldd	r0, Z+26	; 0x1a
    13c0:	11 17       	cp	r17, r17
    13c2:	61 75       	andi	r22, 0x51	; 81
    13c4:	00 01       	movw	r0, r0
    13c6:	0a 05       	cpc	r16, r10
    13c8:	cb 01       	movw	r24, r22
    13ca:	00 00       	nop
    13cc:	02 8c       	ldd	r0, Z+26	; 0x1a
    13ce:	01 17       	cp	r16, r17
    13d0:	62 75       	andi	r22, 0x52	; 82
    13d2:	00 01       	movw	r0, r0
    13d4:	0a 05       	cpc	r16, r10
    13d6:	cb 01       	movw	r24, r22
    13d8:	00 00       	nop
    13da:	02 8c       	ldd	r0, Z+26	; 0x1a
    13dc:	05 00       	.word	0x0005	; ????
    13de:	18 b4       	in	r1, 0x28	; 40
    13e0:	03 00       	.word	0x0003	; ????
    13e2:	00 01       	movw	r0, r0
    13e4:	90 79       	andi	r25, 0x90	; 144
    13e6:	02 00       	.word	0x0002	; ????
    13e8:	00 01       	movw	r0, r0
    13ea:	01 19       	sub	r16, r1
    13ec:	51 01       	movw	r10, r2
    13ee:	00 00       	nop
    13f0:	00 ac       	ldd	r0, Z+56	; 0x38
    13f2:	02 00       	.word	0x0002	; ????
    13f4:	00 02       	muls	r16, r16
    13f6:	00 62       	ori	r16, 0x20	; 32
    13f8:	09 00       	.word	0x0009	; ????
    13fa:	00 04       	cpc	r0, r0
    13fc:	01 e5       	ldi	r16, 0x51	; 81
    13fe:	00 00       	nop
    1400:	00 01       	movw	r0, r0
    1402:	fd 03       	fmulsu	r23, r21
    1404:	00 00       	nop
    1406:	07 03       	mulsu	r16, r23
    1408:	00 00       	nop
    140a:	42 07       	cpc	r20, r18
    140c:	00 00       	nop
    140e:	ea 07       	cpc	r30, r26
    1410:	00 00       	nop
    1412:	9a 0a       	sbc	r9, r26
    1414:	00 00       	nop
    1416:	02 01       	movw	r0, r4
    1418:	06 a8       	ldd	r0, Z+54	; 0x36
    141a:	00 00       	nop
    141c:	00 03       	mulsu	r16, r16
    141e:	02 05       	cpc	r16, r2
    1420:	69 6e       	ori	r22, 0xE9	; 233
    1422:	74 00       	.word	0x0074	; ????
    1424:	02 01       	movw	r0, r4
    1426:	06 af       	std	Z+62, r16	; 0x3e
    1428:	00 00       	nop
    142a:	00 04       	cpc	r0, r0
    142c:	4a 03       	fmul	r20, r18
    142e:	00 00       	nop
    1430:	02 61       	ori	r16, 0x12	; 18
    1432:	45 00       	.word	0x0045	; ????
    1434:	00 00       	nop
    1436:	02 04       	cpc	r0, r2
    1438:	04 44       	sbci	r16, 0x44	; 68
    143a:	03 00       	.word	0x0003	; ????
    143c:	00 04       	cpc	r0, r0
    143e:	52 03       	mulsu	r21, r18
    1440:	00 00       	nop
    1442:	02 68       	ori	r16, 0x82	; 130
    1444:	57 00       	.word	0x0057	; ????
    1446:	00 00       	nop
    1448:	02 04       	cpc	r0, r2
    144a:	05 3c       	cpi	r16, 0xC5	; 197
    144c:	02 00       	.word	0x0002	; ????
    144e:	00 04       	cpc	r0, r0
    1450:	b6 04       	cpc	r11, r6
    1452:	00 00       	nop
    1454:	02 74       	andi	r16, 0x42	; 66
    1456:	69 00       	.word	0x0069	; ????
    1458:	00 00       	nop
    145a:	02 02       	muls	r16, r18
    145c:	07 dd       	rcall	.-1522   	; 0xe6c <__data_load_end+0x198>
    145e:	01 00       	.word	0x0001	; ????
    1460:	00 04       	cpc	r0, r0
    1462:	51 03       	mulsu	r21, r17
    1464:	00 00       	nop
    1466:	02 75       	andi	r16, 0x52	; 82
    1468:	7b 00       	.word	0x007b	; ????
    146a:	00 00       	nop
    146c:	02 04       	cpc	r0, r2
    146e:	07 d8       	rcall	.-4082   	; 0x47e <__mulsf3+0x50>
    1470:	01 00       	.word	0x0001	; ????
    1472:	00 04       	cpc	r0, r0
    1474:	cb 04       	cpc	r12, r11
    1476:	00 00       	nop
    1478:	02 c4       	rjmp	.+2052   	; 0x1c7e <__data_load_end+0xfaa>
    147a:	70 00       	.word	0x0070	; ????
    147c:	00 00       	nop
    147e:	04 c7       	rjmp	.+3592   	; 0x2288 <__data_load_end+0x15b4>
    1480:	04 00       	.word	0x0004	; ????
    1482:	00 02       	muls	r16, r16
    1484:	c5 5e       	subi	r28, 0xE5	; 229
    1486:	00 00       	nop
    1488:	00 04       	cpc	r0, r0
    148a:	40 04       	cpc	r4, r0
    148c:	00 00       	nop
    148e:	02 c6       	rjmp	.+3076   	; 0x2094 <__data_load_end+0x13c0>
    1490:	3a 00       	.word	0x003a	; ????
    1492:	00 00       	nop
    1494:	05 02       	muls	r16, r21
    1496:	02 5c       	subi	r16, 0xC2	; 194
    1498:	01 cb       	rjmp	.-2558   	; 0xa9c <__fpcmp_parts_f+0x18>
    149a:	00 00       	nop
    149c:	00 06       	cpc	r0, r16
    149e:	49 04       	cpc	r4, r9
    14a0:	00 00       	nop
    14a2:	00 06       	cpc	r0, r16
    14a4:	d9 03       	fmulsu	r21, r17
    14a6:	00 00       	nop
    14a8:	01 06       	cpc	r0, r17
    14aa:	96 03       	fmuls	r17, r22
    14ac:	00 00       	nop
    14ae:	02 06       	cpc	r0, r18
    14b0:	a9 04       	cpc	r10, r9
    14b2:	00 00       	nop
    14b4:	03 06       	cpc	r0, r19
    14b6:	86 04       	cpc	r8, r6
    14b8:	00 00       	nop
    14ba:	04 00       	.word	0x0004	; ????
    14bc:	07 04       	cpc	r0, r7
    14be:	02 71       	andi	r16, 0x12	; 18
    14c0:	01 ea       	ldi	r16, 0xA1	; 161
    14c2:	00 00       	nop
    14c4:	00 08       	sbc	r0, r0
    14c6:	6c 6c       	ori	r22, 0xCC	; 204
    14c8:	00 02       	muls	r16, r16
    14ca:	72 01       	movw	r14, r4
    14cc:	82 00       	.word	0x0082	; ????
    14ce:	00 00       	nop
    14d0:	08 6c       	ori	r16, 0xC8	; 200
    14d2:	00 02       	muls	r16, r16
    14d4:	73 01       	movw	r14, r6
    14d6:	ea 00       	.word	0x00ea	; ????
    14d8:	00 00       	nop
    14da:	00 09       	sbc	r16, r0
    14dc:	8d 00       	.word	0x008d	; ????
    14de:	00 00       	nop
    14e0:	fa 00       	.word	0x00fa	; ????
    14e2:	00 00       	nop
    14e4:	0a fa       	.word	0xfa0a	; ????
    14e6:	00 00       	nop
    14e8:	00 01       	movw	r0, r0
    14ea:	00 0b       	sbc	r16, r16
    14ec:	02 07       	cpc	r16, r18
    14ee:	0c 08       	sbc	r0, r12
    14f0:	02 65       	ori	r16, 0x52	; 82
    14f2:	01 43       	sbci	r16, 0x31	; 49
    14f4:	01 00       	.word	0x0001	; ????
    14f6:	00 0d       	add	r16, r0
    14f8:	c6 03       	fmuls	r20, r22
    14fa:	00 00       	nop
    14fc:	02 67       	ori	r16, 0x72	; 114
    14fe:	01 33       	cpi	r16, 0x31	; 49
    1500:	00 00       	nop
    1502:	00 02       	muls	r16, r16
    1504:	23 00       	.word	0x0023	; ????
    1506:	0d 9f       	mul	r16, r29
    1508:	04 00       	.word	0x0004	; ????
    150a:	00 02       	muls	r16, r16
    150c:	68 01       	movw	r12, r16
    150e:	43 01       	movw	r8, r6
    1510:	00 00       	nop
    1512:	02 23       	and	r16, r18
    1514:	01 0d       	add	r16, r1
    1516:	a3 03       	fmuls	r18, r19
    1518:	00 00       	nop
    151a:	02 69       	ori	r16, 0x92	; 146
    151c:	01 4a       	sbci	r16, 0xA1	; 161
    151e:	01 00       	.word	0x0001	; ????
    1520:	00 02       	muls	r16, r16
    1522:	23 02       	muls	r18, r19
    1524:	0d 2d       	mov	r16, r13
    1526:	04 00       	.word	0x0004	; ????
    1528:	00 02       	muls	r16, r16
    152a:	74 01       	movw	r14, r8
    152c:	cb 00       	.word	0x00cb	; ????
    152e:	00 00       	nop
    1530:	02 23       	and	r16, r18
    1532:	04 00       	.word	0x0004	; ????
    1534:	02 01       	movw	r0, r4
    1536:	08 a6       	std	Y+40, r0	; 0x28
    1538:	00 00       	nop
    153a:	00 02       	muls	r16, r16
    153c:	02 05       	cpc	r16, r2
    153e:	95 04       	cpc	r9, r5
    1540:	00 00       	nop
    1542:	0e 5e       	subi	r16, 0xEE	; 238
    1544:	04 00       	.word	0x0004	; ????
    1546:	00 02       	muls	r16, r16
    1548:	75 01       	movw	r14, r10
    154a:	fd 00       	.word	0x00fd	; ????
    154c:	00 00       	nop
    154e:	0c 04       	cpc	r0, r12
    1550:	02 86       	std	Z+10, r0	; 0x0a
    1552:	01 9d       	mul	r16, r1
    1554:	01 00       	.word	0x0001	; ????
    1556:	00 0f       	add	r16, r16
    1558:	2d 04       	cpc	r2, r13
    155a:	00 00       	nop
    155c:	02 87       	std	Z+10, r16	; 0x0a
    155e:	01 82       	std	Z+1, r0	; 0x01
    1560:	00 00       	nop
    1562:	00 04       	cpc	r0, r0
    1564:	17 09       	sbc	r17, r7
    1566:	02 23       	and	r16, r18
    1568:	00 10       	cpse	r0, r0
    156a:	65 78       	andi	r22, 0x85	; 133
    156c:	70 00       	.word	0x0070	; ????
    156e:	02 88       	ldd	r0, Z+18	; 0x12
    1570:	01 69       	ori	r16, 0x91	; 145
    1572:	00 00       	nop
    1574:	00 02       	muls	r16, r16
    1576:	08 01       	movw	r0, r16
    1578:	02 23       	and	r16, r18
    157a:	02 0f       	add	r16, r18
    157c:	9f 04       	cpc	r9, r15
    157e:	00 00       	nop
    1580:	02 89       	ldd	r16, Z+18	; 0x12
    1582:	01 69       	ori	r16, 0x91	; 145
    1584:	00 00       	nop
    1586:	00 02       	muls	r16, r16
    1588:	01 08       	sbc	r0, r1
    158a:	02 23       	and	r16, r18
    158c:	03 00       	.word	0x0003	; ????
    158e:	07 04       	cpc	r0, r7
    1590:	02 78       	andi	r16, 0x82	; 130
    1592:	01 cb       	rjmp	.-2558   	; 0xb96 <main+0x60>
    1594:	01 00       	.word	0x0001	; ????
    1596:	00 11       	cpse	r16, r0
    1598:	78 04       	cpc	r7, r8
    159a:	00 00       	nop
    159c:	02 79       	andi	r16, 0x92	; 146
    159e:	01 98       	cbi	0x00, 1	; 0
    15a0:	00 00       	nop
    15a2:	00 11       	cpse	r16, r0
    15a4:	36 04       	cpc	r3, r6
    15a6:	00 00       	nop
    15a8:	02 7a       	andi	r16, 0xA2	; 162
    15aa:	01 82       	std	Z+1, r0	; 0x01
    15ac:	00 00       	nop
    15ae:	00 11       	cpse	r16, r0
    15b0:	a4 04       	cpc	r10, r4
    15b2:	00 00       	nop
    15b4:	02 8b       	std	Z+18, r16	; 0x12
    15b6:	01 5d       	subi	r16, 0xD1	; 209
    15b8:	01 00       	.word	0x0001	; ????
    15ba:	00 00       	nop
    15bc:	0e 1c       	adc	r0, r14
    15be:	04 00       	.word	0x0004	; ????
    15c0:	00 02       	muls	r16, r16
    15c2:	a0 01       	movw	r20, r0
    15c4:	9d 01       	movw	r18, r26
    15c6:	00 00       	nop
    15c8:	12 15       	cp	r17, r2
    15ca:	04 00       	.word	0x0004	; ????
    15cc:	00 01       	movw	r0, r0
    15ce:	b7 01       	movw	r22, r14
    15d0:	2c 00       	.word	0x002c	; ????
    15d2:	00 00       	nop
    15d4:	03 f2       	brvs	.-128    	; 0x1556 <__data_load_end+0x882>
    15d6:	01 00       	.word	0x0001	; ????
    15d8:	00 13       	cpse	r16, r16
    15da:	78 00       	.word	0x0078	; ????
    15dc:	01 b6       	in	r0, 0x31	; 49
    15de:	f2 01       	movw	r30, r4
    15e0:	00 00       	nop
    15e2:	00 14       	cp	r0, r0
    15e4:	02 51       	subi	r16, 0x12	; 18
    15e6:	01 00       	.word	0x0001	; ????
    15e8:	00 12       	cpse	r0, r16
    15ea:	ae 03       	fmulsu	r18, r22
    15ec:	00 00       	nop
    15ee:	01 a6       	std	Z+41, r0	; 0x29
    15f0:	01 2c       	mov	r0, r1
    15f2:	00 00       	nop
    15f4:	00 03       	mulsu	r16, r16
    15f6:	13 02       	muls	r17, r19
    15f8:	00 00       	nop
    15fa:	13 78       	andi	r17, 0x83	; 131
    15fc:	00 01       	movw	r0, r0
    15fe:	a5 f2       	brhs	.-88     	; 0x15a8 <__data_load_end+0x8d4>
    1600:	01 00       	.word	0x0001	; ????
    1602:	00 00       	nop
    1604:	12 c0       	rjmp	.+36     	; 0x162a <__data_load_end+0x956>
    1606:	03 00       	.word	0x0003	; ????
    1608:	00 01       	movw	r0, r0
    160a:	ae 01       	movw	r20, r28
    160c:	2c 00       	.word	0x002c	; ????
    160e:	00 00       	nop
    1610:	03 2e       	mov	r0, r19
    1612:	02 00       	.word	0x0002	; ????
    1614:	00 13       	cpse	r16, r16
    1616:	78 00       	.word	0x0078	; ????
    1618:	01 ad       	ldd	r16, Z+57	; 0x39
    161a:	f2 01       	movw	r30, r4
    161c:	00 00       	nop
    161e:	00 15       	cp	r16, r0
    1620:	01 1a       	sub	r0, r17
    1622:	05 00       	.word	0x0005	; ????
    1624:	00 01       	movw	r0, r0
    1626:	93 05       	cpc	r25, r3
    1628:	01 4c       	sbci	r16, 0xC1	; 193
    162a:	00 00       	nop
    162c:	00 42       	sbci	r16, 0x20	; 32
    162e:	07 00       	.word	0x0007	; ????
    1630:	00 ea       	ldi	r16, 0xA0	; 160
    1632:	07 00       	.word	0x0007	; ????
    1634:	00 02       	muls	r16, r16
    1636:	90 20       	and	r9, r0
    1638:	9d 02       	muls	r25, r29
    163a:	00 00       	nop
    163c:	16 e4       	ldi	r17, 0x46	; 70
    163e:	03 00       	.word	0x0003	; ????
    1640:	00 01       	movw	r0, r0
    1642:	92 05       	cpc	r25, r2
    1644:	98 00       	.word	0x0098	; ????
    1646:	00 00       	nop
    1648:	16 05       	cpc	r17, r6
    164a:	00 00       	nop
    164c:	17 61       	ori	r17, 0x17	; 23
    164e:	00 01       	movw	r0, r0
    1650:	94 05       	cpc	r25, r4
    1652:	51 01       	movw	r10, r2
    1654:	00 00       	nop
    1656:	02 8c       	ldd	r0, Z+26	; 0x1a
    1658:	05 18       	sub	r0, r5
    165a:	74 6d       	ori	r23, 0xD4	; 212
    165c:	70 00       	.word	0x0070	; ????
    165e:	01 95       	neg	r16
    1660:	05 4c       	sbci	r16, 0xC5	; 197
    1662:	00 00       	nop
    1664:	00 34       	cpi	r16, 0x40	; 64
    1666:	05 00       	.word	0x0005	; ????
    1668:	00 17       	cp	r16, r16
    166a:	61 75       	andi	r22, 0x51	; 81
    166c:	00 01       	movw	r0, r0
    166e:	96 05       	cpc	r25, r6
    1670:	cb 01       	movw	r24, r22
    1672:	00 00       	nop
    1674:	02 8c       	ldd	r0, Z+26	; 0x1a
    1676:	01 19       	sub	r16, r1
    1678:	d7 01       	movw	r26, r14
    167a:	00 00       	nop
    167c:	64 07       	cpc	r22, r20
    167e:	00 00       	nop
    1680:	66 07       	cpc	r22, r22
    1682:	00 00       	nop
    1684:	01 9b       	sbis	0x00, 1	; 0
    1686:	05 1a       	sub	r0, r21
    1688:	e8 01       	movw	r28, r16
    168a:	00 00       	nop
    168c:	00 00       	nop
    168e:	1b b4       	in	r1, 0x2b	; 43
    1690:	03 00       	.word	0x0003	; ????
    1692:	00 01       	movw	r0, r0
    1694:	90 aa       	std	Z+48, r9	; 0x30
    1696:	02 00       	.word	0x0002	; ????
    1698:	00 01       	movw	r0, r0
    169a:	01 1c       	adc	r0, r1
    169c:	51 01       	movw	r10, r2
    169e:	00 00       	nop
    16a0:	00 28       	or	r0, r0
    16a2:	01 00       	.word	0x0001	; ????
    16a4:	00 02       	muls	r16, r16
    16a6:	00 e1       	ldi	r16, 0x10	; 16
    16a8:	0a 00       	.word	0x000a	; ????
    16aa:	00 04       	cpc	r0, r0
    16ac:	01 e5       	ldi	r16, 0x51	; 81
    16ae:	00 00       	nop
    16b0:	00 01       	movw	r0, r0
    16b2:	fd 03       	fmulsu	r23, r21
    16b4:	00 00       	nop
    16b6:	07 03       	mulsu	r16, r23
    16b8:	00 00       	nop
    16ba:	ea 07       	cpc	r30, r26
    16bc:	00 00       	nop
    16be:	ea 07       	cpc	r30, r26
    16c0:	00 00       	nop
    16c2:	a3 0b       	sbc	r26, r19
    16c4:	00 00       	nop
    16c6:	02 01       	movw	r0, r4
    16c8:	06 a8       	ldd	r0, Z+54	; 0x36
    16ca:	00 00       	nop
    16cc:	00 03       	mulsu	r16, r16
    16ce:	02 05       	cpc	r16, r2
    16d0:	69 6e       	ori	r22, 0xE9	; 233
    16d2:	74 00       	.word	0x0074	; ????
    16d4:	02 01       	movw	r0, r4
    16d6:	06 af       	std	Z+62, r16	; 0x3e
    16d8:	00 00       	nop
    16da:	00 02       	muls	r16, r16
    16dc:	04 04       	cpc	r0, r4
    16de:	44 03       	mulsu	r20, r20
    16e0:	00 00       	nop
    16e2:	02 04       	cpc	r0, r2
    16e4:	05 3c       	cpi	r16, 0xC5	; 197
    16e6:	02 00       	.word	0x0002	; ????
    16e8:	00 04       	cpc	r0, r0
    16ea:	b6 04       	cpc	r11, r6
    16ec:	00 00       	nop
    16ee:	01 74       	andi	r16, 0x41	; 65
    16f0:	53 00       	.word	0x0053	; ????
    16f2:	00 00       	nop
    16f4:	02 02       	muls	r16, r18
    16f6:	07 dd       	rcall	.-1522   	; 0x1106 <__data_load_end+0x432>
    16f8:	01 00       	.word	0x0001	; ????
    16fa:	00 04       	cpc	r0, r0
    16fc:	51 03       	mulsu	r21, r17
    16fe:	00 00       	nop
    1700:	01 75       	andi	r16, 0x51	; 81
    1702:	65 00       	.word	0x0065	; ????
    1704:	00 00       	nop
    1706:	02 04       	cpc	r0, r2
    1708:	07 d8       	rcall	.-4082   	; 0x718 <__ltsf2+0x36>
    170a:	01 00       	.word	0x0001	; ????
    170c:	00 04       	cpc	r0, r0
    170e:	cb 04       	cpc	r12, r11
    1710:	00 00       	nop
    1712:	01 c4       	rjmp	.+2050   	; 0x1f16 <__data_load_end+0x1242>
    1714:	5a 00       	.word	0x005a	; ????
    1716:	00 00       	nop
    1718:	04 c7       	rjmp	.+3592   	; 0x2522 <__data_load_end+0x184e>
    171a:	04 00       	.word	0x0004	; ????
    171c:	00 01       	movw	r0, r0
    171e:	c5 48       	sbci	r28, 0x85	; 133
    1720:	00 00       	nop
    1722:	00 05       	cpc	r16, r0
    1724:	04 01       	movw	r0, r8
    1726:	71 01       	movw	r14, r2
    1728:	a1 00       	.word	0x00a1	; ????
    172a:	00 00       	nop
    172c:	06 6c       	ori	r16, 0xC6	; 198
    172e:	6c 00       	.word	0x006c	; ????
    1730:	01 72       	andi	r16, 0x21	; 33
    1732:	01 6c       	ori	r16, 0xC1	; 193
    1734:	00 00       	nop
    1736:	00 06       	cpc	r0, r16
    1738:	6c 00       	.word	0x006c	; ????
    173a:	01 73       	andi	r16, 0x31	; 49
    173c:	01 a1       	ldd	r16, Z+33	; 0x21
    173e:	00 00       	nop
    1740:	00 00       	nop
    1742:	07 77       	andi	r16, 0x77	; 119
    1744:	00 00       	nop
    1746:	00 b1       	in	r16, 0x00	; 0
    1748:	00 00       	nop
    174a:	00 08       	sbc	r0, r0
    174c:	b1 00       	.word	0x00b1	; ????
    174e:	00 00       	nop
    1750:	01 00       	.word	0x0001	; ????
    1752:	09 02       	muls	r16, r25
    1754:	07 0a       	sbc	r0, r23
    1756:	08 01       	movw	r0, r16
    1758:	65 01       	movw	r12, r10
    175a:	fa 00       	.word	0x00fa	; ????
    175c:	00 00       	nop
    175e:	0b c6       	rjmp	.+3094   	; 0x2376 <__data_load_end+0x16a2>
    1760:	03 00       	.word	0x0003	; ????
    1762:	00 01       	movw	r0, r0
    1764:	67 01       	movw	r12, r14
    1766:	33 00       	.word	0x0033	; ????
    1768:	00 00       	nop
    176a:	02 23       	and	r16, r18
    176c:	00 0b       	sbc	r16, r16
    176e:	9f 04       	cpc	r9, r15
    1770:	00 00       	nop
    1772:	01 68       	ori	r16, 0x81	; 129
    1774:	01 fa       	bst	r0, 1
    1776:	00 00       	nop
    1778:	00 02       	muls	r16, r16
    177a:	23 01       	movw	r4, r6
    177c:	0b a3       	std	Y+35, r16	; 0x23
    177e:	03 00       	.word	0x0003	; ????
    1780:	00 01       	movw	r0, r0
    1782:	69 01       	movw	r12, r18
    1784:	01 01       	movw	r0, r2
    1786:	00 00       	nop
    1788:	02 23       	and	r16, r18
    178a:	02 0b       	sbc	r16, r18
    178c:	2d 04       	cpc	r2, r13
    178e:	00 00       	nop
    1790:	01 74       	andi	r16, 0x41	; 65
    1792:	01 82       	std	Z+1, r0	; 0x01
    1794:	00 00       	nop
    1796:	00 02       	muls	r16, r16
    1798:	23 04       	cpc	r2, r3
    179a:	00 02       	muls	r16, r16
    179c:	01 08       	sbc	r0, r1
    179e:	a6 00       	.word	0x00a6	; ????
    17a0:	00 00       	nop
    17a2:	02 02       	muls	r16, r18
    17a4:	05 95       	asr	r16
    17a6:	04 00       	.word	0x0004	; ????
    17a8:	00 0c       	add	r0, r0
    17aa:	5e 04       	cpc	r5, r14
    17ac:	00 00       	nop
    17ae:	01 75       	andi	r16, 0x51	; 81
    17b0:	01 b4       	in	r0, 0x21	; 33
    17b2:	00 00       	nop
    17b4:	00 0d       	add	r16, r0
    17b6:	b4 03       	fmuls	r19, r20
    17b8:	00 00       	nop
    17ba:	02 88       	ldd	r0, Z+18	; 0x12
    17bc:	26 01       	movw	r4, r12
    17be:	00 00       	nop
    17c0:	01 05       	cpc	r16, r1
    17c2:	03 60       	ori	r16, 0x03	; 3
    17c4:	00 80       	ld	r0, Z
    17c6:	00 0e       	add	r0, r16
    17c8:	08 01       	movw	r0, r16
    17ca:	00 00       	nop
    17cc:	00 db       	rcall	.-2560   	; 0xdce <__data_load_end+0xfa>
    17ce:	02 00       	.word	0x0002	; ????
    17d0:	00 02       	muls	r16, r16
    17d2:	00 8e       	std	Z+24, r0	; 0x18
    17d4:	0b 00       	.word	0x000b	; ????
    17d6:	00 04       	cpc	r0, r0
    17d8:	01 e5       	ldi	r16, 0x51	; 81
    17da:	00 00       	nop
    17dc:	00 01       	movw	r0, r0
    17de:	fd 03       	fmulsu	r23, r21
    17e0:	00 00       	nop
    17e2:	07 03       	mulsu	r16, r23
    17e4:	00 00       	nop
    17e6:	ea 07       	cpc	r30, r26
    17e8:	00 00       	nop
    17ea:	94 09       	sbc	r25, r4
    17ec:	00 00       	nop
    17ee:	33 0c       	add	r3, r3
    17f0:	00 00       	nop
    17f2:	02 01       	movw	r0, r4
    17f4:	06 a8       	ldd	r0, Z+54	; 0x36
    17f6:	00 00       	nop
    17f8:	00 03       	mulsu	r16, r16
    17fa:	02 05       	cpc	r16, r2
    17fc:	69 6e       	ori	r22, 0xE9	; 233
    17fe:	74 00       	.word	0x0074	; ????
    1800:	02 01       	movw	r0, r4
    1802:	06 af       	std	Z+62, r16	; 0x3e
    1804:	00 00       	nop
    1806:	00 04       	cpc	r0, r0
    1808:	4a 03       	fmul	r20, r18
    180a:	00 00       	nop
    180c:	02 61       	ori	r16, 0x12	; 18
    180e:	45 00       	.word	0x0045	; ????
    1810:	00 00       	nop
    1812:	02 04       	cpc	r0, r2
    1814:	04 44       	sbci	r16, 0x44	; 68
    1816:	03 00       	.word	0x0003	; ????
    1818:	00 02       	muls	r16, r16
    181a:	04 05       	cpc	r16, r4
    181c:	3c 02       	muls	r19, r28
    181e:	00 00       	nop
    1820:	04 b6       	in	r0, 0x34	; 52
    1822:	04 00       	.word	0x0004	; ????
    1824:	00 02       	muls	r16, r16
    1826:	74 5e       	subi	r23, 0xE4	; 228
    1828:	00 00       	nop
    182a:	00 02       	muls	r16, r16
    182c:	02 07       	cpc	r16, r18
    182e:	dd 01       	movw	r26, r26
    1830:	00 00       	nop
    1832:	04 51       	subi	r16, 0x14	; 20
    1834:	03 00       	.word	0x0003	; ????
    1836:	00 02       	muls	r16, r16
    1838:	75 70       	andi	r23, 0x05	; 5
    183a:	00 00       	nop
    183c:	00 02       	muls	r16, r16
    183e:	04 07       	cpc	r16, r20
    1840:	d8 01       	movw	r26, r16
    1842:	00 00       	nop
    1844:	04 cb       	rjmp	.-2552   	; 0xe4e <__data_load_end+0x17a>
    1846:	04 00       	.word	0x0004	; ????
    1848:	00 02       	muls	r16, r16
    184a:	c4 65       	ori	r28, 0x54	; 84
    184c:	00 00       	nop
    184e:	00 04       	cpc	r0, r0
    1850:	c7 04       	cpc	r12, r7
    1852:	00 00       	nop
    1854:	02 c5       	rjmp	.+2564   	; 0x225a <__data_load_end+0x1586>
    1856:	53 00       	.word	0x0053	; ????
    1858:	00 00       	nop
    185a:	04 40       	sbci	r16, 0x04	; 4
    185c:	04 00       	.word	0x0004	; ????
    185e:	00 02       	muls	r16, r16
    1860:	c6 3a       	cpi	r28, 0xA6	; 166
    1862:	00 00       	nop
    1864:	00 05       	cpc	r16, r0
    1866:	02 02       	muls	r16, r18
    1868:	5c 01       	movw	r10, r24
    186a:	c0 00       	.word	0x00c0	; ????
    186c:	00 00       	nop
    186e:	06 49       	sbci	r16, 0x96	; 150
    1870:	04 00       	.word	0x0004	; ????
    1872:	00 00       	nop
    1874:	06 d9       	rcall	.-3572   	; 0xa82 <__unpack_f+0xee>
    1876:	03 00       	.word	0x0003	; ????
    1878:	00 01       	movw	r0, r0
    187a:	06 96       	adiw	r24, 0x06	; 6
    187c:	03 00       	.word	0x0003	; ????
    187e:	00 02       	muls	r16, r16
    1880:	06 a9       	ldd	r16, Z+54	; 0x36
    1882:	04 00       	.word	0x0004	; ????
    1884:	00 03       	mulsu	r16, r16
    1886:	06 86       	std	Z+14, r0	; 0x0e
    1888:	04 00       	.word	0x0004	; ????
    188a:	00 04       	cpc	r0, r0
    188c:	00 07       	cpc	r16, r16
    188e:	04 02       	muls	r16, r20
    1890:	71 01       	movw	r14, r2
    1892:	df 00       	.word	0x00df	; ????
    1894:	00 00       	nop
    1896:	08 6c       	ori	r16, 0xC8	; 200
    1898:	6c 00       	.word	0x006c	; ????
    189a:	02 72       	andi	r16, 0x22	; 34
    189c:	01 77       	andi	r16, 0x71	; 113
    189e:	00 00       	nop
    18a0:	00 08       	sbc	r0, r0
    18a2:	6c 00       	.word	0x006c	; ????
    18a4:	02 73       	andi	r16, 0x32	; 50
    18a6:	01 df       	rcall	.-510    	; 0x16aa <__data_load_end+0x9d6>
    18a8:	00 00       	nop
    18aa:	00 00       	nop
    18ac:	09 82       	std	Y+1, r0	; 0x01
    18ae:	00 00       	nop
    18b0:	00 ef       	ldi	r16, 0xF0	; 240
    18b2:	00 00       	nop
    18b4:	00 0a       	sbc	r0, r16
    18b6:	ef 00       	.word	0x00ef	; ????
    18b8:	00 00       	nop
    18ba:	01 00       	.word	0x0001	; ????
    18bc:	0b 02       	muls	r16, r27
    18be:	07 0c       	add	r0, r7
    18c0:	08 02       	muls	r16, r24
    18c2:	65 01       	movw	r12, r10
    18c4:	38 01       	movw	r6, r16
    18c6:	00 00       	nop
    18c8:	0d c6       	rjmp	.+3098   	; 0x24e4 <__data_load_end+0x1810>
    18ca:	03 00       	.word	0x0003	; ????
    18cc:	00 02       	muls	r16, r16
    18ce:	67 01       	movw	r12, r14
    18d0:	33 00       	.word	0x0033	; ????
    18d2:	00 00       	nop
    18d4:	02 23       	and	r16, r18
    18d6:	00 0d       	add	r16, r0
    18d8:	9f 04       	cpc	r9, r15
    18da:	00 00       	nop
    18dc:	02 68       	ori	r16, 0x82	; 130
    18de:	01 38       	cpi	r16, 0x81	; 129
    18e0:	01 00       	.word	0x0001	; ????
    18e2:	00 02       	muls	r16, r16
    18e4:	23 01       	movw	r4, r6
    18e6:	0d a3       	std	Y+37, r16	; 0x25
    18e8:	03 00       	.word	0x0003	; ????
    18ea:	00 02       	muls	r16, r16
    18ec:	69 01       	movw	r12, r18
    18ee:	3f 01       	movw	r6, r30
    18f0:	00 00       	nop
    18f2:	02 23       	and	r16, r18
    18f4:	02 0d       	add	r16, r2
    18f6:	2d 04       	cpc	r2, r13
    18f8:	00 00       	nop
    18fa:	02 74       	andi	r16, 0x42	; 66
    18fc:	01 c0       	rjmp	.+2      	; 0x1900 <__data_load_end+0xc2c>
    18fe:	00 00       	nop
    1900:	00 02       	muls	r16, r16
    1902:	23 04       	cpc	r2, r3
    1904:	00 02       	muls	r16, r16
    1906:	01 08       	sbc	r0, r1
    1908:	a6 00       	.word	0x00a6	; ????
    190a:	00 00       	nop
    190c:	02 02       	muls	r16, r18
    190e:	05 95       	asr	r16
    1910:	04 00       	.word	0x0004	; ????
    1912:	00 0e       	add	r0, r16
    1914:	5e 04       	cpc	r5, r14
    1916:	00 00       	nop
    1918:	02 75       	andi	r16, 0x52	; 82
    191a:	01 f2       	breq	.-128    	; 0x189c <__data_load_end+0xbc8>
    191c:	00 00       	nop
    191e:	00 0c       	add	r0, r0
    1920:	04 02       	muls	r16, r20
    1922:	86 01       	movw	r16, r12
    1924:	92 01       	movw	r18, r4
    1926:	00 00       	nop
    1928:	0f 2d       	mov	r16, r15
    192a:	04 00       	.word	0x0004	; ????
    192c:	00 02       	muls	r16, r16
    192e:	87 01       	movw	r16, r14
    1930:	77 00       	.word	0x0077	; ????
    1932:	00 00       	nop
    1934:	04 17       	cp	r16, r20
    1936:	09 02       	muls	r16, r25
    1938:	23 00       	.word	0x0023	; ????
    193a:	10 65       	ori	r17, 0x50	; 80
    193c:	78 70       	andi	r23, 0x08	; 8
    193e:	00 02       	muls	r16, r16
    1940:	88 01       	movw	r16, r16
    1942:	5e 00       	.word	0x005e	; ????
    1944:	00 00       	nop
    1946:	02 08       	sbc	r0, r2
    1948:	01 02       	muls	r16, r17
    194a:	23 02       	muls	r18, r19
    194c:	0f 9f       	mul	r16, r31
    194e:	04 00       	.word	0x0004	; ????
    1950:	00 02       	muls	r16, r16
    1952:	89 01       	movw	r16, r18
    1954:	5e 00       	.word	0x005e	; ????
    1956:	00 00       	nop
    1958:	02 01       	movw	r0, r4
    195a:	08 02       	muls	r16, r24
    195c:	23 03       	mulsu	r18, r19
    195e:	00 07       	cpc	r16, r16
    1960:	04 02       	muls	r16, r20
    1962:	78 01       	movw	r14, r16
    1964:	c0 01       	movw	r24, r0
    1966:	00 00       	nop
    1968:	11 78       	andi	r17, 0x81	; 129
    196a:	04 00       	.word	0x0004	; ????
    196c:	00 02       	muls	r16, r16
    196e:	79 01       	movw	r14, r18
    1970:	8d 00       	.word	0x008d	; ????
    1972:	00 00       	nop
    1974:	11 36       	cpi	r17, 0x61	; 97
    1976:	04 00       	.word	0x0004	; ????
    1978:	00 02       	muls	r16, r16
    197a:	7a 01       	movw	r14, r20
    197c:	77 00       	.word	0x0077	; ????
    197e:	00 00       	nop
    1980:	11 a4       	ldd	r1, Z+41	; 0x29
    1982:	04 00       	.word	0x0004	; ????
    1984:	00 02       	muls	r16, r16
    1986:	8b 01       	movw	r16, r22
    1988:	52 01       	movw	r10, r4
    198a:	00 00       	nop
    198c:	00 0e       	add	r0, r16
    198e:	1c 04       	cpc	r1, r12
    1990:	00 00       	nop
    1992:	02 a0       	ldd	r0, Z+34	; 0x22
    1994:	01 92       	st	Z+, r0
    1996:	01 00       	.word	0x0001	; ????
    1998:	00 12       	cpse	r0, r16
    199a:	ae 03       	fmulsu	r18, r22
    199c:	00 00       	nop
    199e:	01 a6       	std	Z+41, r0	; 0x29
    19a0:	01 2c       	mov	r0, r1
    19a2:	00 00       	nop
    19a4:	00 03       	mulsu	r16, r16
    19a6:	e7 01       	movw	r28, r14
    19a8:	00 00       	nop
    19aa:	13 78       	andi	r17, 0x83	; 131
    19ac:	00 01       	movw	r0, r0
    19ae:	a5 e7       	ldi	r26, 0x75	; 117
    19b0:	01 00       	.word	0x0001	; ????
    19b2:	00 00       	nop
    19b4:	14 02       	muls	r17, r20
    19b6:	46 01       	movw	r8, r12
    19b8:	00 00       	nop
    19ba:	12 c0       	rjmp	.+36     	; 0x19e0 <__data_load_end+0xd0c>
    19bc:	03 00       	.word	0x0003	; ????
    19be:	00 01       	movw	r0, r0
    19c0:	ae 01       	movw	r20, r28
    19c2:	2c 00       	.word	0x002c	; ????
    19c4:	00 00       	nop
    19c6:	03 08       	sbc	r0, r3
    19c8:	02 00       	.word	0x0002	; ????
    19ca:	00 13       	cpse	r16, r16
    19cc:	78 00       	.word	0x0078	; ????
    19ce:	01 ad       	ldd	r16, Z+57	; 0x39
    19d0:	e7 01       	movw	r28, r14
    19d2:	00 00       	nop
    19d4:	00 12       	cpse	r0, r16
    19d6:	15 04       	cpc	r1, r5
    19d8:	00 00       	nop
    19da:	01 b7       	in	r16, 0x31	; 49
    19dc:	01 2c       	mov	r0, r1
    19de:	00 00       	nop
    19e0:	00 03       	mulsu	r16, r16
    19e2:	23 02       	muls	r18, r19
    19e4:	00 00       	nop
    19e6:	13 78       	andi	r17, 0x83	; 131
    19e8:	00 01       	movw	r0, r0
    19ea:	b6 e7       	ldi	r27, 0x76	; 118
    19ec:	01 00       	.word	0x0001	; ????
    19ee:	00 00       	nop
    19f0:	15 01       	movw	r2, r10
    19f2:	31 05       	cpc	r19, r1
    19f4:	00 00       	nop
    19f6:	01 d7       	rcall	.+3586   	; 0x27fa <__data_load_end+0x1b26>
    19f8:	01 8d       	ldd	r16, Z+25	; 0x19
    19fa:	00 00       	nop
    19fc:	00 ea       	ldi	r16, 0xA0	; 160
    19fe:	07 00       	.word	0x0007	; ????
    1a00:	00 94       	com	r0
    1a02:	09 00       	.word	0x0009	; ????
    1a04:	00 02       	muls	r16, r16
    1a06:	90 20       	and	r9, r0
    1a08:	cc 02       	muls	r28, r28
    1a0a:	00 00       	nop
    1a0c:	16 73       	andi	r17, 0x36	; 54
    1a0e:	72 63       	ori	r23, 0x32	; 50
    1a10:	00 01       	movw	r0, r0
    1a12:	d6 e7       	ldi	r29, 0x76	; 118
    1a14:	01 00       	.word	0x0001	; ????
    1a16:	00 94       	com	r0
    1a18:	05 00       	.word	0x0005	; ????
    1a1a:	00 17       	cp	r16, r16
    1a1c:	64 73       	andi	r22, 0x34	; 52
    1a1e:	74 00       	.word	0x0074	; ????
    1a20:	01 d8       	rcall	.-4094   	; 0xa24 <__unpack_f+0x90>
    1a22:	c0 01       	movw	r24, r0
    1a24:	00 00       	nop
    1a26:	18 2d       	mov	r17, r8
    1a28:	04 00       	.word	0x0004	; ????
    1a2a:	00 01       	movw	r0, r0
    1a2c:	d9 77       	andi	r29, 0x79	; 121
    1a2e:	00 00       	nop
    1a30:	00 ec       	ldi	r16, 0xC0	; 192
    1a32:	05 00       	.word	0x0005	; ????
    1a34:	00 19       	sub	r16, r0
    1a36:	9f 04       	cpc	r9, r15
    1a38:	00 00       	nop
    1a3a:	01 da       	rcall	.-3070   	; 0xe3e <__data_load_end+0x16a>
    1a3c:	2c 00       	.word	0x002c	; ????
    1a3e:	00 00       	nop
    1a40:	1a 65       	ori	r17, 0x5A	; 90
    1a42:	78 70       	andi	r23, 0x08	; 8
    1a44:	00 01       	movw	r0, r0
    1a46:	db 2c       	mov	r13, r11
    1a48:	00 00       	nop
    1a4a:	00 62       	ori	r16, 0x20	; 32
    1a4c:	06 00       	.word	0x0006	; ????
    1a4e:	00 1b       	sub	r16, r16
    1a50:	cc 01       	movw	r24, r24
    1a52:	00 00       	nop
    1a54:	00 08       	sbc	r0, r0
    1a56:	00 00       	nop
    1a58:	02 08       	sbc	r0, r2
    1a5a:	00 00       	nop
    1a5c:	01 e5       	ldi	r16, 0x51	; 81
    1a5e:	9b 02       	muls	r25, r27
    1a60:	00 00       	nop
    1a62:	1c dd       	rcall	.-1480   	; 0x149c <__data_load_end+0x7c8>
    1a64:	01 00       	.word	0x0001	; ????
    1a66:	00 00       	nop
    1a68:	1d 48       	sbci	r17, 0x8D	; 141
    1a6a:	08 00       	.word	0x0008	; ????
    1a6c:	00 fe       	sbrs	r0, 0
    1a6e:	08 00       	.word	0x0008	; ????
    1a70:	00 1e       	adc	r0, r16
    1a72:	24 05       	cpc	r18, r4
    1a74:	00 00       	nop
    1a76:	01 0e       	add	r0, r17
    1a78:	01 2c       	mov	r0, r1
    1a7a:	00 00       	nop
    1a7c:	00 aa       	std	Z+48, r0	; 0x30
    1a7e:	06 00       	.word	0x0006	; ????
    1a80:	00 1d       	adc	r16, r0
    1a82:	60 08       	sbc	r6, r0
    1a84:	00 00       	nop
    1a86:	b4 08       	sbc	r11, r4
    1a88:	00 00       	nop
    1a8a:	1f 2a       	or	r1, r31
    1a8c:	05 00       	.word	0x0005	; ????
    1a8e:	00 01       	movw	r0, r0
    1a90:	19 01       	movw	r2, r18
    1a92:	2c 00       	.word	0x002c	; ????
    1a94:	00 00       	nop
    1a96:	00 00       	nop
    1a98:	00 20       	and	r0, r0
    1a9a:	b4 03       	fmuls	r19, r20
    1a9c:	00 00       	nop
    1a9e:	01 90       	ld	r0, Z+
    1aa0:	d9 02       	muls	r29, r25
    1aa2:	00 00       	nop
    1aa4:	01 01       	movw	r0, r2
    1aa6:	21 46       	sbci	r18, 0x61	; 97
    1aa8:	01 00       	.word	0x0001	; ????
    1aaa:	00 00       	nop
    1aac:	4d 02       	muls	r20, r29
    1aae:	00 00       	nop
    1ab0:	02 00       	.word	0x0002	; ????
    1ab2:	4e 0d       	add	r20, r14
    1ab4:	00 00       	nop
    1ab6:	04 01       	movw	r0, r8
    1ab8:	e5 00       	.word	0x00e5	; ????
    1aba:	00 00       	nop
    1abc:	01 fd       	sbrc	r16, 1
    1abe:	03 00       	.word	0x0003	; ????
    1ac0:	00 07       	cpc	r16, r16
    1ac2:	03 00       	.word	0x0003	; ????
    1ac4:	00 94       	com	r0
    1ac6:	09 00       	.word	0x0009	; ????
    1ac8:	00 84       	ldd	r0, Z+8	; 0x08
    1aca:	0a 00       	.word	0x000a	; ????
    1acc:	00 bd       	out	0x20, r16	; 32
    1ace:	0d 00       	.word	0x000d	; ????
    1ad0:	00 02       	muls	r16, r16
    1ad2:	01 06       	cpc	r0, r17
    1ad4:	a8 00       	.word	0x00a8	; ????
    1ad6:	00 00       	nop
    1ad8:	03 02       	muls	r16, r19
    1ada:	05 69       	ori	r16, 0x95	; 149
    1adc:	6e 74       	andi	r22, 0x4E	; 78
    1ade:	00 02       	muls	r16, r16
    1ae0:	01 06       	cpc	r0, r17
    1ae2:	af 00       	.word	0x00af	; ????
    1ae4:	00 00       	nop
    1ae6:	04 4a       	sbci	r16, 0xA4	; 164
    1ae8:	03 00       	.word	0x0003	; ????
    1aea:	00 02       	muls	r16, r16
    1aec:	61 45       	sbci	r22, 0x51	; 81
    1aee:	00 00       	nop
    1af0:	00 02       	muls	r16, r16
    1af2:	04 04       	cpc	r0, r4
    1af4:	44 03       	mulsu	r20, r20
    1af6:	00 00       	nop
    1af8:	02 04       	cpc	r0, r2
    1afa:	05 3c       	cpi	r16, 0xC5	; 197
    1afc:	02 00       	.word	0x0002	; ????
    1afe:	00 04       	cpc	r0, r0
    1b00:	b6 04       	cpc	r11, r6
    1b02:	00 00       	nop
    1b04:	02 74       	andi	r16, 0x42	; 66
    1b06:	5e 00       	.word	0x005e	; ????
    1b08:	00 00       	nop
    1b0a:	02 02       	muls	r16, r18
    1b0c:	07 dd       	rcall	.-1522   	; 0x151c <__data_load_end+0x848>
    1b0e:	01 00       	.word	0x0001	; ????
    1b10:	00 04       	cpc	r0, r0
    1b12:	51 03       	mulsu	r21, r17
    1b14:	00 00       	nop
    1b16:	02 75       	andi	r16, 0x52	; 82
    1b18:	70 00       	.word	0x0070	; ????
    1b1a:	00 00       	nop
    1b1c:	02 04       	cpc	r0, r2
    1b1e:	07 d8       	rcall	.-4082   	; 0xb2e <__fpcmp_parts_f+0xaa>
    1b20:	01 00       	.word	0x0001	; ????
    1b22:	00 04       	cpc	r0, r0
    1b24:	cb 04       	cpc	r12, r11
    1b26:	00 00       	nop
    1b28:	02 c4       	rjmp	.+2052   	; 0x232e <__data_load_end+0x165a>
    1b2a:	65 00       	.word	0x0065	; ????
    1b2c:	00 00       	nop
    1b2e:	04 c7       	rjmp	.+3592   	; 0x2938 <__data_load_end+0x1c64>
    1b30:	04 00       	.word	0x0004	; ????
    1b32:	00 02       	muls	r16, r16
    1b34:	c5 53       	subi	r28, 0x35	; 53
    1b36:	00 00       	nop
    1b38:	00 04       	cpc	r0, r0
    1b3a:	40 04       	cpc	r4, r0
    1b3c:	00 00       	nop
    1b3e:	02 c6       	rjmp	.+3076   	; 0x2744 <__data_load_end+0x1a70>
    1b40:	3a 00       	.word	0x003a	; ????
    1b42:	00 00       	nop
    1b44:	05 02       	muls	r16, r21
    1b46:	02 5c       	subi	r16, 0xC2	; 194
    1b48:	01 c0       	rjmp	.+2      	; 0x1b4c <__data_load_end+0xe78>
    1b4a:	00 00       	nop
    1b4c:	00 06       	cpc	r0, r16
    1b4e:	49 04       	cpc	r4, r9
    1b50:	00 00       	nop
    1b52:	00 06       	cpc	r0, r16
    1b54:	d9 03       	fmulsu	r21, r17
    1b56:	00 00       	nop
    1b58:	01 06       	cpc	r0, r17
    1b5a:	96 03       	fmuls	r17, r22
    1b5c:	00 00       	nop
    1b5e:	02 06       	cpc	r0, r18
    1b60:	a9 04       	cpc	r10, r9
    1b62:	00 00       	nop
    1b64:	03 06       	cpc	r0, r19
    1b66:	86 04       	cpc	r8, r6
    1b68:	00 00       	nop
    1b6a:	04 00       	.word	0x0004	; ????
    1b6c:	07 04       	cpc	r0, r7
    1b6e:	02 71       	andi	r16, 0x12	; 18
    1b70:	01 df       	rcall	.-510    	; 0x1974 <__data_load_end+0xca0>
    1b72:	00 00       	nop
    1b74:	00 08       	sbc	r0, r0
    1b76:	6c 6c       	ori	r22, 0xCC	; 204
    1b78:	00 02       	muls	r16, r16
    1b7a:	72 01       	movw	r14, r4
    1b7c:	77 00       	.word	0x0077	; ????
    1b7e:	00 00       	nop
    1b80:	08 6c       	ori	r16, 0xC8	; 200
    1b82:	00 02       	muls	r16, r16
    1b84:	73 01       	movw	r14, r6
    1b86:	df 00       	.word	0x00df	; ????
    1b88:	00 00       	nop
    1b8a:	00 09       	sbc	r16, r0
    1b8c:	82 00       	.word	0x0082	; ????
    1b8e:	00 00       	nop
    1b90:	ef 00       	.word	0x00ef	; ????
    1b92:	00 00       	nop
    1b94:	0a ef       	ldi	r16, 0xFA	; 250
    1b96:	00 00       	nop
    1b98:	00 01       	movw	r0, r0
    1b9a:	00 0b       	sbc	r16, r16
    1b9c:	02 07       	cpc	r16, r18
    1b9e:	0c 08       	sbc	r0, r12
    1ba0:	02 65       	ori	r16, 0x52	; 82
    1ba2:	01 38       	cpi	r16, 0x81	; 129
    1ba4:	01 00       	.word	0x0001	; ????
    1ba6:	00 0d       	add	r16, r0
    1ba8:	c6 03       	fmuls	r20, r22
    1baa:	00 00       	nop
    1bac:	02 67       	ori	r16, 0x72	; 114
    1bae:	01 33       	cpi	r16, 0x31	; 49
    1bb0:	00 00       	nop
    1bb2:	00 02       	muls	r16, r16
    1bb4:	23 00       	.word	0x0023	; ????
    1bb6:	0d 9f       	mul	r16, r29
    1bb8:	04 00       	.word	0x0004	; ????
    1bba:	00 02       	muls	r16, r16
    1bbc:	68 01       	movw	r12, r16
    1bbe:	38 01       	movw	r6, r16
    1bc0:	00 00       	nop
    1bc2:	02 23       	and	r16, r18
    1bc4:	01 0d       	add	r16, r1
    1bc6:	a3 03       	fmuls	r18, r19
    1bc8:	00 00       	nop
    1bca:	02 69       	ori	r16, 0x92	; 146
    1bcc:	01 3f       	cpi	r16, 0xF1	; 241
    1bce:	01 00       	.word	0x0001	; ????
    1bd0:	00 02       	muls	r16, r16
    1bd2:	23 02       	muls	r18, r19
    1bd4:	0d 2d       	mov	r16, r13
    1bd6:	04 00       	.word	0x0004	; ????
    1bd8:	00 02       	muls	r16, r16
    1bda:	74 01       	movw	r14, r8
    1bdc:	c0 00       	.word	0x00c0	; ????
    1bde:	00 00       	nop
    1be0:	02 23       	and	r16, r18
    1be2:	04 00       	.word	0x0004	; ????
    1be4:	02 01       	movw	r0, r4
    1be6:	08 a6       	std	Y+40, r0	; 0x28
    1be8:	00 00       	nop
    1bea:	00 02       	muls	r16, r16
    1bec:	02 05       	cpc	r16, r2
    1bee:	95 04       	cpc	r9, r5
    1bf0:	00 00       	nop
    1bf2:	0e 5e       	subi	r16, 0xEE	; 238
    1bf4:	04 00       	.word	0x0004	; ????
    1bf6:	00 02       	muls	r16, r16
    1bf8:	75 01       	movw	r14, r10
    1bfa:	f2 00       	.word	0x00f2	; ????
    1bfc:	00 00       	nop
    1bfe:	0c 04       	cpc	r0, r12
    1c00:	02 86       	std	Z+10, r0	; 0x0a
    1c02:	01 92       	st	Z+, r0
    1c04:	01 00       	.word	0x0001	; ????
    1c06:	00 0f       	add	r16, r16
    1c08:	2d 04       	cpc	r2, r13
    1c0a:	00 00       	nop
    1c0c:	02 87       	std	Z+10, r16	; 0x0a
    1c0e:	01 77       	andi	r16, 0x71	; 113
    1c10:	00 00       	nop
    1c12:	00 04       	cpc	r0, r0
    1c14:	17 09       	sbc	r17, r7
    1c16:	02 23       	and	r16, r18
    1c18:	00 10       	cpse	r0, r0
    1c1a:	65 78       	andi	r22, 0x85	; 133
    1c1c:	70 00       	.word	0x0070	; ????
    1c1e:	02 88       	ldd	r0, Z+18	; 0x12
    1c20:	01 5e       	subi	r16, 0xE1	; 225
    1c22:	00 00       	nop
    1c24:	00 02       	muls	r16, r16
    1c26:	08 01       	movw	r0, r16
    1c28:	02 23       	and	r16, r18
    1c2a:	02 0f       	add	r16, r18
    1c2c:	9f 04       	cpc	r9, r15
    1c2e:	00 00       	nop
    1c30:	02 89       	ldd	r16, Z+18	; 0x12
    1c32:	01 5e       	subi	r16, 0xE1	; 225
    1c34:	00 00       	nop
    1c36:	00 02       	muls	r16, r16
    1c38:	01 08       	sbc	r0, r1
    1c3a:	02 23       	and	r16, r18
    1c3c:	03 00       	.word	0x0003	; ????
    1c3e:	07 04       	cpc	r0, r7
    1c40:	02 78       	andi	r16, 0x82	; 130
    1c42:	01 c0       	rjmp	.+2      	; 0x1c46 <__data_load_end+0xf72>
    1c44:	01 00       	.word	0x0001	; ????
    1c46:	00 11       	cpse	r16, r0
    1c48:	78 04       	cpc	r7, r8
    1c4a:	00 00       	nop
    1c4c:	02 79       	andi	r16, 0x92	; 146
    1c4e:	01 8d       	ldd	r16, Z+25	; 0x19
    1c50:	00 00       	nop
    1c52:	00 11       	cpse	r16, r0
    1c54:	36 04       	cpc	r3, r6
    1c56:	00 00       	nop
    1c58:	02 7a       	andi	r16, 0xA2	; 162
    1c5a:	01 77       	andi	r16, 0x71	; 113
    1c5c:	00 00       	nop
    1c5e:	00 11       	cpse	r16, r0
    1c60:	a4 04       	cpc	r10, r4
    1c62:	00 00       	nop
    1c64:	02 8b       	std	Z+18, r16	; 0x12
    1c66:	01 52       	subi	r16, 0x21	; 33
    1c68:	01 00       	.word	0x0001	; ????
    1c6a:	00 00       	nop
    1c6c:	0e 1c       	adc	r0, r14
    1c6e:	04 00       	.word	0x0004	; ????
    1c70:	00 02       	muls	r16, r16
    1c72:	a0 01       	movw	r20, r0
    1c74:	92 01       	movw	r18, r4
    1c76:	00 00       	nop
    1c78:	12 01       	movw	r2, r4
    1c7a:	3a 05       	cpc	r19, r10
    1c7c:	00 00       	nop
    1c7e:	01 ca       	rjmp	.-3070   	; 0x1082 <__data_load_end+0x3ae>
    1c80:	01 01       	movw	r0, r2
    1c82:	94 09       	sbc	r25, r4
    1c84:	00 00       	nop
    1c86:	84 0a       	sbc	r8, r20
    1c88:	00 00       	nop
    1c8a:	02 90       	ld	r0, -Z
    1c8c:	20 32       	cpi	r18, 0x20	; 32
    1c8e:	02 00       	.word	0x0002	; ????
    1c90:	00 13       	cpse	r16, r16
    1c92:	73 72       	andi	r23, 0x23	; 35
    1c94:	63 00       	.word	0x0063	; ????
    1c96:	01 c9       	rjmp	.-3582   	; 0xe9a <__data_load_end+0x1c6>
    1c98:	01 32       	cpi	r16, 0x21	; 33
    1c9a:	02 00       	.word	0x0002	; ????
    1c9c:	00 d2       	rcall	.+1024   	; 0x209e <__data_load_end+0x13ca>
    1c9e:	06 00       	.word	0x0006	; ????
    1ca0:	00 13       	cpse	r16, r16
    1ca2:	64 73       	andi	r22, 0x34	; 52
    1ca4:	74 00       	.word	0x0074	; ????
    1ca6:	01 c9       	rjmp	.-3582   	; 0xeaa <__data_load_end+0x1d6>
    1ca8:	01 38       	cpi	r16, 0x81	; 129
    1caa:	02 00       	.word	0x0002	; ????
    1cac:	00 fa       	bst	r0, 0
    1cae:	06 00       	.word	0x0006	; ????
    1cb0:	00 14       	cp	r0, r0
    1cb2:	2d 04       	cpc	r2, r13
    1cb4:	00 00       	nop
    1cb6:	01 ce       	rjmp	.-1022   	; 0x18ba <__data_load_end+0xbe6>
    1cb8:	01 77       	andi	r16, 0x71	; 113
    1cba:	00 00       	nop
    1cbc:	00 22       	and	r0, r16
    1cbe:	07 00       	.word	0x0007	; ????
    1cc0:	00 15       	cp	r16, r0
    1cc2:	65 78       	andi	r22, 0x85	; 133
    1cc4:	70 00       	.word	0x0070	; ????
    1cc6:	01 cf       	rjmp	.-510    	; 0x1aca <__data_load_end+0xdf6>
    1cc8:	01 2c       	mov	r0, r1
    1cca:	00 00       	nop
    1ccc:	00 56       	subi	r16, 0x60	; 96
    1cce:	07 00       	.word	0x0007	; ????
    1cd0:	00 16       	cp	r0, r16
    1cd2:	9f 04       	cpc	r9, r15
    1cd4:	00 00       	nop
    1cd6:	01 d0       	rcall	.+2      	; 0x1cda <__data_load_end+0x1006>
    1cd8:	01 2c       	mov	r0, r1
    1cda:	00 00       	nop
    1cdc:	00 00       	nop
    1cde:	17 02       	muls	r17, r23
    1ce0:	c0 01       	movw	r24, r0
    1ce2:	00 00       	nop
    1ce4:	17 02       	muls	r17, r23
    1ce6:	46 01       	movw	r8, r12
    1ce8:	00 00       	nop
    1cea:	18 b4       	in	r1, 0x28	; 40
    1cec:	03 00       	.word	0x0003	; ????
    1cee:	00 01       	movw	r0, r0
    1cf0:	90 4b       	sbci	r25, 0xB0	; 176
    1cf2:	02 00       	.word	0x0002	; ????
    1cf4:	00 01       	movw	r0, r0
    1cf6:	01 19       	sub	r16, r1
    1cf8:	46 01       	movw	r8, r12
    1cfa:	00 00       	nop
    1cfc:	00 0c       	add	r0, r0
    1cfe:	02 00       	.word	0x0002	; ????
    1d00:	00 02       	muls	r16, r16
    1d02:	00 a2       	std	Z+32, r0	; 0x20
    1d04:	0e 00       	.word	0x000e	; ????
    1d06:	00 04       	cpc	r0, r0
    1d08:	01 e5       	ldi	r16, 0x51	; 81
    1d0a:	00 00       	nop
    1d0c:	00 01       	movw	r0, r0
    1d0e:	fd 03       	fmulsu	r23, r21
    1d10:	00 00       	nop
    1d12:	07 03       	mulsu	r16, r23
    1d14:	00 00       	nop
    1d16:	84 0a       	sbc	r8, r20
    1d18:	00 00       	nop
    1d1a:	36 0b       	sbc	r19, r22
    1d1c:	00 00       	nop
    1d1e:	08 0f       	add	r16, r24
    1d20:	00 00       	nop
    1d22:	02 01       	movw	r0, r4
    1d24:	06 a8       	ldd	r0, Z+54	; 0x36
    1d26:	00 00       	nop
    1d28:	00 03       	mulsu	r16, r16
    1d2a:	02 05       	cpc	r16, r2
    1d2c:	69 6e       	ori	r22, 0xE9	; 233
    1d2e:	74 00       	.word	0x0074	; ????
    1d30:	02 01       	movw	r0, r4
    1d32:	06 af       	std	Z+62, r16	; 0x3e
    1d34:	00 00       	nop
    1d36:	00 02       	muls	r16, r16
    1d38:	04 04       	cpc	r0, r4
    1d3a:	44 03       	mulsu	r20, r20
    1d3c:	00 00       	nop
    1d3e:	02 04       	cpc	r0, r2
    1d40:	05 3c       	cpi	r16, 0xC5	; 197
    1d42:	02 00       	.word	0x0002	; ????
    1d44:	00 04       	cpc	r0, r0
    1d46:	b6 04       	cpc	r11, r6
    1d48:	00 00       	nop
    1d4a:	02 74       	andi	r16, 0x42	; 66
    1d4c:	53 00       	.word	0x0053	; ????
    1d4e:	00 00       	nop
    1d50:	02 02       	muls	r16, r18
    1d52:	07 dd       	rcall	.-1522   	; 0x1762 <__data_load_end+0xa8e>
    1d54:	01 00       	.word	0x0001	; ????
    1d56:	00 04       	cpc	r0, r0
    1d58:	51 03       	mulsu	r21, r17
    1d5a:	00 00       	nop
    1d5c:	02 75       	andi	r16, 0x52	; 82
    1d5e:	65 00       	.word	0x0065	; ????
    1d60:	00 00       	nop
    1d62:	02 04       	cpc	r0, r2
    1d64:	07 d8       	rcall	.-4082   	; 0xd74 <__data_load_end+0xa0>
    1d66:	01 00       	.word	0x0001	; ????
    1d68:	00 04       	cpc	r0, r0
    1d6a:	cb 04       	cpc	r12, r11
    1d6c:	00 00       	nop
    1d6e:	02 c4       	rjmp	.+2052   	; 0x2574 <__data_load_end+0x18a0>
    1d70:	5a 00       	.word	0x005a	; ????
    1d72:	00 00       	nop
    1d74:	04 c7       	rjmp	.+3592   	; 0x2b7e <__data_load_end+0x1eaa>
    1d76:	04 00       	.word	0x0004	; ????
    1d78:	00 02       	muls	r16, r16
    1d7a:	c5 48       	sbci	r28, 0x85	; 133
    1d7c:	00 00       	nop
    1d7e:	00 05       	cpc	r16, r0
    1d80:	02 02       	muls	r16, r18
    1d82:	5c 01       	movw	r10, r24
    1d84:	aa 00       	.word	0x00aa	; ????
    1d86:	00 00       	nop
    1d88:	06 49       	sbci	r16, 0x96	; 150
    1d8a:	04 00       	.word	0x0004	; ????
    1d8c:	00 00       	nop
    1d8e:	06 d9       	rcall	.-3572   	; 0xf9c <__data_load_end+0x2c8>
    1d90:	03 00       	.word	0x0003	; ????
    1d92:	00 01       	movw	r0, r0
    1d94:	06 96       	adiw	r24, 0x06	; 6
    1d96:	03 00       	.word	0x0003	; ????
    1d98:	00 02       	muls	r16, r16
    1d9a:	06 a9       	ldd	r16, Z+54	; 0x36
    1d9c:	04 00       	.word	0x0004	; ????
    1d9e:	00 03       	mulsu	r16, r16
    1da0:	06 86       	std	Z+14, r0	; 0x0e
    1da2:	04 00       	.word	0x0004	; ????
    1da4:	00 04       	cpc	r0, r0
    1da6:	00 07       	cpc	r16, r16
    1da8:	04 02       	muls	r16, r20
    1daa:	71 01       	movw	r14, r2
    1dac:	c9 00       	.word	0x00c9	; ????
    1dae:	00 00       	nop
    1db0:	08 6c       	ori	r16, 0xC8	; 200
    1db2:	6c 00       	.word	0x006c	; ????
    1db4:	02 72       	andi	r16, 0x22	; 34
    1db6:	01 6c       	ori	r16, 0xC1	; 193
    1db8:	00 00       	nop
    1dba:	00 08       	sbc	r0, r0
    1dbc:	6c 00       	.word	0x006c	; ????
    1dbe:	02 73       	andi	r16, 0x32	; 50
    1dc0:	01 c9       	rjmp	.-3582   	; 0xfc4 <__data_load_end+0x2f0>
    1dc2:	00 00       	nop
    1dc4:	00 00       	nop
    1dc6:	09 77       	andi	r16, 0x79	; 121
    1dc8:	00 00       	nop
    1dca:	00 d9       	rcall	.-3584   	; 0xfcc <__data_load_end+0x2f8>
    1dcc:	00 00       	nop
    1dce:	00 0a       	sbc	r0, r16
    1dd0:	d9 00       	.word	0x00d9	; ????
    1dd2:	00 00       	nop
    1dd4:	01 00       	.word	0x0001	; ????
    1dd6:	0b 02       	muls	r16, r27
    1dd8:	07 0c       	add	r0, r7
    1dda:	08 02       	muls	r16, r24
    1ddc:	65 01       	movw	r12, r10
    1dde:	22 01       	movw	r4, r4
    1de0:	00 00       	nop
    1de2:	0d c6       	rjmp	.+3098   	; 0x29fe <__data_load_end+0x1d2a>
    1de4:	03 00       	.word	0x0003	; ????
    1de6:	00 02       	muls	r16, r16
    1de8:	67 01       	movw	r12, r14
    1dea:	33 00       	.word	0x0033	; ????
    1dec:	00 00       	nop
    1dee:	02 23       	and	r16, r18
    1df0:	00 0d       	add	r16, r0
    1df2:	9f 04       	cpc	r9, r15
    1df4:	00 00       	nop
    1df6:	02 68       	ori	r16, 0x82	; 130
    1df8:	01 22       	and	r0, r17
    1dfa:	01 00       	.word	0x0001	; ????
    1dfc:	00 02       	muls	r16, r16
    1dfe:	23 01       	movw	r4, r6
    1e00:	0d a3       	std	Y+37, r16	; 0x25
    1e02:	03 00       	.word	0x0003	; ????
    1e04:	00 02       	muls	r16, r16
    1e06:	69 01       	movw	r12, r18
    1e08:	29 01       	movw	r4, r18
    1e0a:	00 00       	nop
    1e0c:	02 23       	and	r16, r18
    1e0e:	02 0d       	add	r16, r2
    1e10:	2d 04       	cpc	r2, r13
    1e12:	00 00       	nop
    1e14:	02 74       	andi	r16, 0x42	; 66
    1e16:	01 aa       	std	Z+49, r0	; 0x31
    1e18:	00 00       	nop
    1e1a:	00 02       	muls	r16, r16
    1e1c:	23 04       	cpc	r2, r3
    1e1e:	00 02       	muls	r16, r16
    1e20:	01 08       	sbc	r0, r1
    1e22:	a6 00       	.word	0x00a6	; ????
    1e24:	00 00       	nop
    1e26:	02 02       	muls	r16, r18
    1e28:	05 95       	asr	r16
    1e2a:	04 00       	.word	0x0004	; ????
    1e2c:	00 0e       	add	r0, r16
    1e2e:	5e 04       	cpc	r5, r14
    1e30:	00 00       	nop
    1e32:	02 75       	andi	r16, 0x52	; 82
    1e34:	01 dc       	rcall	.-2046   	; 0x1638 <__data_load_end+0x964>
    1e36:	00 00       	nop
    1e38:	00 0f       	add	r16, r16
    1e3a:	ae 03       	fmulsu	r18, r22
    1e3c:	00 00       	nop
    1e3e:	01 a6       	std	Z+41, r0	; 0x29
    1e40:	01 2c       	mov	r0, r1
    1e42:	00 00       	nop
    1e44:	00 03       	mulsu	r16, r16
    1e46:	57 01       	movw	r10, r14
    1e48:	00 00       	nop
    1e4a:	10 78       	andi	r17, 0x80	; 128
    1e4c:	00 01       	movw	r0, r0
    1e4e:	a5 57       	subi	r26, 0x75	; 117
    1e50:	01 00       	.word	0x0001	; ????
    1e52:	00 00       	nop
    1e54:	11 02       	muls	r17, r17
    1e56:	30 01       	movw	r6, r0
    1e58:	00 00       	nop
    1e5a:	0f c0       	rjmp	.+30     	; 0x1e7a <__data_load_end+0x11a6>
    1e5c:	03 00       	.word	0x0003	; ????
    1e5e:	00 01       	movw	r0, r0
    1e60:	ae 01       	movw	r20, r28
    1e62:	2c 00       	.word	0x002c	; ????
    1e64:	00 00       	nop
    1e66:	03 78       	andi	r16, 0x83	; 131
    1e68:	01 00       	.word	0x0001	; ????
    1e6a:	00 10       	cpse	r0, r0
    1e6c:	78 00       	.word	0x0078	; ????
    1e6e:	01 ad       	ldd	r16, Z+57	; 0x39
    1e70:	57 01       	movw	r10, r14
    1e72:	00 00       	nop
    1e74:	00 0f       	add	r16, r16
    1e76:	15 04       	cpc	r1, r5
    1e78:	00 00       	nop
    1e7a:	01 b7       	in	r16, 0x31	; 49
    1e7c:	01 2c       	mov	r0, r1
    1e7e:	00 00       	nop
    1e80:	00 03       	mulsu	r16, r16
    1e82:	93 01       	movw	r18, r6
    1e84:	00 00       	nop
    1e86:	10 78       	andi	r17, 0x80	; 128
    1e88:	00 01       	movw	r0, r0
    1e8a:	b6 57       	subi	r27, 0x76	; 118
    1e8c:	01 00       	.word	0x0001	; ????
    1e8e:	00 00       	nop
    1e90:	12 01       	movw	r2, r4
    1e92:	45 05       	cpc	r20, r5
    1e94:	00 00       	nop
    1e96:	01 4f       	sbci	r16, 0xF1	; 241
    1e98:	04 01       	movw	r0, r8
    1e9a:	2c 00       	.word	0x002c	; ????
    1e9c:	00 00       	nop
    1e9e:	84 0a       	sbc	r8, r20
    1ea0:	00 00       	nop
    1ea2:	36 0b       	sbc	r19, r22
    1ea4:	00 00       	nop
    1ea6:	02 90       	ld	r0, -Z
    1ea8:	20 fd       	sbrc	r18, 0
    1eaa:	01 00       	.word	0x0001	; ????
    1eac:	00 13       	cpse	r16, r16
    1eae:	61 00       	.word	0x0061	; ????
    1eb0:	01 4e       	sbci	r16, 0xE1	; 225
    1eb2:	04 57       	subi	r16, 0x74	; 116
    1eb4:	01 00       	.word	0x0001	; ????
    1eb6:	00 7e       	andi	r16, 0xE0	; 224
    1eb8:	07 00       	.word	0x0007	; ????
    1eba:	00 13       	cpse	r16, r16
    1ebc:	62 00       	.word	0x0062	; ????
    1ebe:	01 4e       	sbci	r16, 0xE1	; 225
    1ec0:	04 57       	subi	r16, 0x74	; 116
    1ec2:	01 00       	.word	0x0001	; ????
    1ec4:	00 a6       	std	Z+40, r0	; 0x28
    1ec6:	07 00       	.word	0x0007	; ????
    1ec8:	00 14       	cp	r0, r0
    1eca:	3c 01       	movw	r6, r24
    1ecc:	00 00       	nop
    1ece:	8a 0a       	sbc	r8, r26
    1ed0:	00 00       	nop
    1ed2:	8c 0a       	sbc	r8, r28
    1ed4:	00 00       	nop
    1ed6:	01 58       	subi	r16, 0x81	; 129
    1ed8:	04 e6       	ldi	r16, 0x64	; 100
    1eda:	01 00       	.word	0x0001	; ????
    1edc:	00 15       	cp	r16, r0
    1ede:	4d 01       	movw	r8, r26
    1ee0:	00 00       	nop
    1ee2:	00 16       	cp	r0, r16
    1ee4:	3c 01       	movw	r6, r24
    1ee6:	00 00       	nop
    1ee8:	92 0a       	sbc	r9, r18
    1eea:	00 00       	nop
    1eec:	94 0a       	sbc	r9, r20
    1eee:	00 00       	nop
    1ef0:	01 58       	subi	r16, 0x81	; 129
    1ef2:	04 15       	cp	r16, r4
    1ef4:	4d 01       	movw	r8, r26
    1ef6:	00 00       	nop
    1ef8:	00 00       	nop
    1efa:	17 b4       	in	r1, 0x27	; 39
    1efc:	03 00       	.word	0x0003	; ????
    1efe:	00 01       	movw	r0, r0
    1f00:	90 0a       	sbc	r9, r16
    1f02:	02 00       	.word	0x0002	; ????
    1f04:	00 01       	movw	r0, r0
    1f06:	01 18       	sub	r0, r1
    1f08:	30 01       	movw	r6, r0
    1f0a:	00 00       	nop
	...

Disassembly of section .debug_abbrev:

00000000 <.debug_abbrev>:
   0:	01 11       	cpse	r16, r1
   2:	01 25       	eor	r16, r1
   4:	0e 13       	cpse	r16, r30
   6:	0b 03       	fmul	r16, r19
   8:	0e 1b       	sub	r16, r30
   a:	0e 11       	cpse	r16, r14
   c:	01 52       	subi	r16, 0x21	; 33
   e:	01 55       	subi	r16, 0x51	; 81
  10:	06 10       	cpse	r0, r6
  12:	06 43       	sbci	r16, 0x36	; 54
  14:	06 00       	.word	0x0006	; ????
  16:	00 02       	muls	r16, r16
  18:	24 00       	.word	0x0024	; ????
  1a:	0b 0b       	sbc	r16, r27
  1c:	3e 0b       	sbc	r19, r30
  1e:	03 0e       	add	r0, r19
  20:	00 00       	nop
  22:	03 24       	eor	r0, r3
  24:	00 0b       	sbc	r16, r16
  26:	0b 3e       	cpi	r16, 0xEB	; 235
  28:	0b 03       	fmul	r16, r19
  2a:	08 00       	.word	0x0008	; ????
  2c:	00 04       	cpc	r0, r0
  2e:	16 00       	.word	0x0016	; ????
  30:	03 0e       	add	r0, r19
  32:	3a 0b       	sbc	r19, r26
  34:	3b 0b       	sbc	r19, r27
  36:	49 13       	cpse	r20, r25
  38:	00 00       	nop
  3a:	05 04       	cpc	r0, r5
  3c:	01 03       	mulsu	r16, r17
  3e:	0e 0b       	sbc	r16, r30
  40:	0b 3a       	cpi	r16, 0xAB	; 171
  42:	0b 3b       	cpi	r16, 0xBB	; 187
  44:	0b 01       	movw	r0, r22
  46:	13 00       	.word	0x0013	; ????
  48:	00 06       	cpc	r0, r16
  4a:	28 00       	.word	0x0028	; ????
  4c:	03 0e       	add	r0, r19
  4e:	1c 0d       	add	r17, r12
  50:	00 00       	nop
  52:	07 13       	cpse	r16, r23
  54:	01 03       	mulsu	r16, r17
  56:	0e 0b       	sbc	r16, r30
  58:	0b 3a       	cpi	r16, 0xAB	; 171
  5a:	0b 3b       	cpi	r16, 0xBB	; 187
  5c:	0b 01       	movw	r0, r22
  5e:	13 00       	.word	0x0013	; ????
  60:	00 08       	sbc	r0, r0
  62:	0d 00       	.word	0x000d	; ????
  64:	03 0e       	add	r0, r19
  66:	3a 0b       	sbc	r19, r26
  68:	3b 0b       	sbc	r19, r27
  6a:	49 13       	cpse	r20, r25
  6c:	38 0a       	sbc	r3, r24
  6e:	00 00       	nop
  70:	09 2e       	mov	r0, r25
  72:	01 03       	mulsu	r16, r17
  74:	0e 3a       	cpi	r16, 0xAE	; 174
  76:	0b 3b       	cpi	r16, 0xBB	; 187
  78:	0b 27       	eor	r16, r27
  7a:	0c 20       	and	r0, r12
  7c:	0b 01       	movw	r0, r22
  7e:	13 00       	.word	0x0013	; ????
  80:	00 0a       	sbc	r0, r16
  82:	05 00       	.word	0x0005	; ????
  84:	03 0e       	add	r0, r19
  86:	3a 0b       	sbc	r19, r26
  88:	3b 0b       	sbc	r19, r27
  8a:	49 13       	cpse	r20, r25
  8c:	00 00       	nop
  8e:	0b 34       	cpi	r16, 0x4B	; 75
  90:	00 03       	mulsu	r16, r16
  92:	0e 3a       	cpi	r16, 0xAE	; 174
  94:	0b 3b       	cpi	r16, 0xBB	; 187
  96:	0b 49       	sbci	r16, 0x9B	; 155
  98:	13 00       	.word	0x0013	; ????
  9a:	00 0c       	add	r0, r0
  9c:	2e 01       	movw	r4, r28
  9e:	3f 0c       	add	r3, r15
  a0:	03 0e       	add	r0, r19
  a2:	3a 0b       	sbc	r19, r26
  a4:	3b 0b       	sbc	r19, r27
  a6:	27 0c       	add	r2, r7
  a8:	49 13       	cpse	r20, r25
  aa:	11 01       	movw	r2, r2
  ac:	12 01       	movw	r2, r4
  ae:	40 0a       	sbc	r4, r16
  b0:	00 00       	nop
  b2:	0d 34       	cpi	r16, 0x4D	; 77
  b4:	00 03       	mulsu	r16, r16
  b6:	0e 3a       	cpi	r16, 0xAE	; 174
  b8:	0b 3b       	cpi	r16, 0xBB	; 187
  ba:	0b 49       	sbci	r16, 0x9B	; 155
  bc:	13 02       	muls	r17, r19
  be:	0a 00       	.word	0x000a	; ????
  c0:	00 0e       	add	r0, r16
  c2:	1d 01       	movw	r2, r26
  c4:	31 13       	cpse	r19, r17
  c6:	11 01       	movw	r2, r2
  c8:	12 01       	movw	r2, r4
  ca:	58 0b       	sbc	r21, r24
  cc:	59 0b       	sbc	r21, r25
  ce:	00 00       	nop
  d0:	0f 0b       	sbc	r16, r31
  d2:	01 11       	cpse	r16, r1
  d4:	01 12       	cpse	r0, r17
  d6:	01 00       	.word	0x0001	; ????
  d8:	00 10       	cpse	r0, r0
  da:	34 00       	.word	0x0034	; ????
  dc:	31 13       	cpse	r19, r17
  de:	02 0a       	sbc	r0, r18
  e0:	00 00       	nop
  e2:	11 1d       	adc	r17, r1
  e4:	00 31       	cpi	r16, 0x10	; 16
  e6:	13 11       	cpse	r17, r3
  e8:	01 12       	cpse	r0, r17
  ea:	01 58       	subi	r16, 0x81	; 129
  ec:	0b 59       	subi	r16, 0x9B	; 155
  ee:	0b 00       	.word	0x000b	; ????
  f0:	00 00       	nop
  f2:	01 11       	cpse	r16, r1
  f4:	01 25       	eor	r16, r1
  f6:	0e 13       	cpse	r16, r30
  f8:	0b 03       	fmul	r16, r19
  fa:	0e 1b       	sub	r16, r30
  fc:	0e 11       	cpse	r16, r14
  fe:	01 12       	cpse	r0, r17
 100:	01 10       	cpse	r0, r1
 102:	06 00       	.word	0x0006	; ????
 104:	00 02       	muls	r16, r16
 106:	24 00       	.word	0x0024	; ????
 108:	0b 0b       	sbc	r16, r27
 10a:	3e 0b       	sbc	r19, r30
 10c:	03 08       	sbc	r0, r3
 10e:	00 00       	nop
 110:	03 24       	eor	r0, r3
 112:	00 0b       	sbc	r16, r16
 114:	0b 3e       	cpi	r16, 0xEB	; 235
 116:	0b 03       	fmul	r16, r19
 118:	0e 00       	.word	0x000e	; ????
 11a:	00 04       	cpc	r0, r0
 11c:	16 00       	.word	0x0016	; ????
 11e:	03 0e       	add	r0, r19
 120:	3a 0b       	sbc	r19, r26
 122:	3b 0b       	sbc	r19, r27
 124:	49 13       	cpse	r20, r25
 126:	00 00       	nop
 128:	05 2e       	mov	r0, r21
 12a:	01 3f       	cpi	r16, 0xF1	; 241
 12c:	0c 03       	fmul	r16, r20
 12e:	0e 3a       	cpi	r16, 0xAE	; 174
 130:	0b 3b       	cpi	r16, 0xBB	; 187
 132:	05 27       	eor	r16, r21
 134:	0c 49       	sbci	r16, 0x9C	; 156
 136:	13 11       	cpse	r17, r3
 138:	01 12       	cpse	r0, r17
 13a:	01 40       	sbci	r16, 0x01	; 1
 13c:	0a 00       	.word	0x000a	; ????
 13e:	00 06       	cpc	r0, r16
 140:	05 00       	.word	0x0005	; ????
 142:	03 08       	sbc	r0, r3
 144:	3a 0b       	sbc	r19, r26
 146:	3b 05       	cpc	r19, r11
 148:	49 13       	cpse	r20, r25
 14a:	02 06       	cpc	r0, r18
 14c:	00 00       	nop
 14e:	00 01       	movw	r0, r0
 150:	11 01       	movw	r2, r2
 152:	25 0e       	add	r2, r21
 154:	13 0b       	sbc	r17, r19
 156:	03 0e       	add	r0, r19
 158:	1b 0e       	add	r1, r27
 15a:	11 01       	movw	r2, r2
 15c:	12 01       	movw	r2, r4
 15e:	10 06       	cpc	r1, r16
 160:	00 00       	nop
 162:	02 24       	eor	r0, r2
 164:	00 0b       	sbc	r16, r16
 166:	0b 3e       	cpi	r16, 0xEB	; 235
 168:	0b 03       	fmul	r16, r19
 16a:	0e 00       	.word	0x000e	; ????
 16c:	00 03       	mulsu	r16, r16
 16e:	24 00       	.word	0x0024	; ????
 170:	0b 0b       	sbc	r16, r27
 172:	3e 0b       	sbc	r19, r30
 174:	03 08       	sbc	r0, r3
 176:	00 00       	nop
 178:	04 16       	cp	r0, r20
 17a:	00 03       	mulsu	r16, r16
 17c:	0e 3a       	cpi	r16, 0xAE	; 174
 17e:	0b 3b       	cpi	r16, 0xBB	; 187
 180:	0b 49       	sbci	r16, 0x9B	; 155
 182:	13 00       	.word	0x0013	; ????
 184:	00 05       	cpc	r16, r0
 186:	04 01       	movw	r0, r8
 188:	0b 0b       	sbc	r16, r27
 18a:	3a 0b       	sbc	r19, r26
 18c:	3b 05       	cpc	r19, r11
 18e:	01 13       	cpse	r16, r17
 190:	00 00       	nop
 192:	06 28       	or	r0, r6
 194:	00 03       	mulsu	r16, r16
 196:	0e 1c       	adc	r0, r14
 198:	0d 00       	.word	0x000d	; ????
 19a:	00 07       	cpc	r16, r16
 19c:	17 01       	movw	r2, r14
 19e:	0b 0b       	sbc	r16, r27
 1a0:	3a 0b       	sbc	r19, r26
 1a2:	3b 05       	cpc	r19, r11
 1a4:	01 13       	cpse	r16, r17
 1a6:	00 00       	nop
 1a8:	08 0d       	add	r16, r8
 1aa:	00 03       	mulsu	r16, r16
 1ac:	08 3a       	cpi	r16, 0xA8	; 168
 1ae:	0b 3b       	cpi	r16, 0xBB	; 187
 1b0:	05 49       	sbci	r16, 0x95	; 149
 1b2:	13 00       	.word	0x0013	; ????
 1b4:	00 09       	sbc	r16, r0
 1b6:	01 01       	movw	r0, r2
 1b8:	49 13       	cpse	r20, r25
 1ba:	01 13       	cpse	r16, r17
 1bc:	00 00       	nop
 1be:	0a 21       	and	r16, r10
 1c0:	00 49       	sbci	r16, 0x90	; 144
 1c2:	13 2f       	mov	r17, r19
 1c4:	0b 00       	.word	0x000b	; ????
 1c6:	00 0b       	sbc	r16, r16
 1c8:	24 00       	.word	0x0024	; ????
 1ca:	0b 0b       	sbc	r16, r27
 1cc:	3e 0b       	sbc	r19, r30
 1ce:	00 00       	nop
 1d0:	0c 13       	cpse	r16, r28
 1d2:	01 0b       	sbc	r16, r17
 1d4:	0b 3a       	cpi	r16, 0xAB	; 171
 1d6:	0b 3b       	cpi	r16, 0xBB	; 187
 1d8:	05 01       	movw	r0, r10
 1da:	13 00       	.word	0x0013	; ????
 1dc:	00 0d       	add	r16, r0
 1de:	0d 00       	.word	0x000d	; ????
 1e0:	03 0e       	add	r0, r19
 1e2:	3a 0b       	sbc	r19, r26
 1e4:	3b 05       	cpc	r19, r11
 1e6:	49 13       	cpse	r20, r25
 1e8:	38 0a       	sbc	r3, r24
 1ea:	00 00       	nop
 1ec:	0e 16       	cp	r0, r30
 1ee:	00 03       	mulsu	r16, r16
 1f0:	0e 3a       	cpi	r16, 0xAE	; 174
 1f2:	0b 3b       	cpi	r16, 0xBB	; 187
 1f4:	05 49       	sbci	r16, 0x95	; 149
 1f6:	13 00       	.word	0x0013	; ????
 1f8:	00 0f       	add	r16, r16
 1fa:	0d 00       	.word	0x000d	; ????
 1fc:	03 0e       	add	r0, r19
 1fe:	3a 0b       	sbc	r19, r26
 200:	3b 05       	cpc	r19, r11
 202:	49 13       	cpse	r20, r25
 204:	0b 0b       	sbc	r16, r27
 206:	0d 0b       	sbc	r16, r29
 208:	0c 0b       	sbc	r16, r28
 20a:	38 0a       	sbc	r3, r24
 20c:	00 00       	nop
 20e:	10 0d       	add	r17, r0
 210:	00 03       	mulsu	r16, r16
 212:	08 3a       	cpi	r16, 0xA8	; 168
 214:	0b 3b       	cpi	r16, 0xBB	; 187
 216:	05 49       	sbci	r16, 0x95	; 149
 218:	13 0b       	sbc	r17, r19
 21a:	0b 0d       	add	r16, r11
 21c:	0b 0c       	add	r0, r11
 21e:	0b 38       	cpi	r16, 0x8B	; 139
 220:	0a 00       	.word	0x000a	; ????
 222:	00 11       	cpse	r16, r0
 224:	0d 00       	.word	0x000d	; ????
 226:	03 0e       	add	r0, r19
 228:	3a 0b       	sbc	r19, r26
 22a:	3b 05       	cpc	r19, r11
 22c:	49 13       	cpse	r20, r25
 22e:	00 00       	nop
 230:	12 2e       	mov	r1, r18
 232:	01 03       	mulsu	r16, r17
 234:	0e 3a       	cpi	r16, 0xAE	; 174
 236:	0b 3b       	cpi	r16, 0xBB	; 187
 238:	0b 27       	eor	r16, r27
 23a:	0c 49       	sbci	r16, 0x9C	; 156
 23c:	13 20       	and	r1, r3
 23e:	0b 01       	movw	r0, r22
 240:	13 00       	.word	0x0013	; ????
 242:	00 13       	cpse	r16, r16
 244:	05 00       	.word	0x0005	; ????
 246:	03 08       	sbc	r0, r3
 248:	3a 0b       	sbc	r19, r26
 24a:	3b 0b       	sbc	r19, r27
 24c:	49 13       	cpse	r20, r25
 24e:	00 00       	nop
 250:	14 0f       	add	r17, r20
 252:	00 0b       	sbc	r16, r16
 254:	0b 49       	sbci	r16, 0x9B	; 155
 256:	13 00       	.word	0x0013	; ????
 258:	00 15       	cp	r16, r0
 25a:	2e 00       	.word	0x002e	; ????
 25c:	03 08       	sbc	r0, r3
 25e:	3a 0b       	sbc	r19, r26
 260:	3b 0b       	sbc	r19, r27
 262:	27 0c       	add	r2, r7
 264:	49 13       	cpse	r20, r25
 266:	20 0b       	sbc	r18, r16
 268:	00 00       	nop
 26a:	16 2e       	mov	r1, r22
 26c:	01 03       	mulsu	r16, r17
 26e:	0e 3a       	cpi	r16, 0xAE	; 174
 270:	0b 3b       	cpi	r16, 0xBB	; 187
 272:	05 27       	eor	r16, r21
 274:	0c 49       	sbci	r16, 0x9C	; 156
 276:	13 11       	cpse	r17, r3
 278:	01 12       	cpse	r0, r17
 27a:	01 40       	sbci	r16, 0x01	; 1
 27c:	0a 01       	movw	r0, r20
 27e:	13 00       	.word	0x0013	; ????
 280:	00 17       	cp	r16, r16
 282:	05 00       	.word	0x0005	; ????
 284:	03 08       	sbc	r0, r3
 286:	3a 0b       	sbc	r19, r26
 288:	3b 05       	cpc	r19, r11
 28a:	49 13       	cpse	r20, r25
 28c:	02 06       	cpc	r0, r18
 28e:	00 00       	nop
 290:	18 34       	cpi	r17, 0x48	; 72
 292:	00 03       	mulsu	r16, r16
 294:	0e 3a       	cpi	r16, 0xAE	; 174
 296:	0b 3b       	cpi	r16, 0xBB	; 187
 298:	05 49       	sbci	r16, 0x95	; 149
 29a:	13 02       	muls	r17, r19
 29c:	06 00       	.word	0x0006	; ????
 29e:	00 19       	sub	r16, r0
 2a0:	1d 01       	movw	r2, r26
 2a2:	31 13       	cpse	r19, r17
 2a4:	11 01       	movw	r2, r2
 2a6:	12 01       	movw	r2, r4
 2a8:	58 0b       	sbc	r21, r24
 2aa:	59 05       	cpc	r21, r9
 2ac:	01 13       	cpse	r16, r17
 2ae:	00 00       	nop
 2b0:	1a 05       	cpc	r17, r10
 2b2:	00 31       	cpi	r16, 0x10	; 16
 2b4:	13 00       	.word	0x0013	; ????
 2b6:	00 1b       	sub	r16, r16
 2b8:	1d 00       	.word	0x001d	; ????
 2ba:	31 13       	cpse	r19, r17
 2bc:	11 01       	movw	r2, r2
 2be:	12 01       	movw	r2, r4
 2c0:	58 0b       	sbc	r21, r24
 2c2:	59 05       	cpc	r21, r9
 2c4:	00 00       	nop
 2c6:	1c 0b       	sbc	r17, r28
 2c8:	01 11       	cpse	r16, r1
 2ca:	01 12       	cpse	r0, r17
 2cc:	01 00       	.word	0x0001	; ????
 2ce:	00 1d       	adc	r16, r0
 2d0:	34 00       	.word	0x0034	; ????
 2d2:	03 0e       	add	r0, r19
 2d4:	3a 0b       	sbc	r19, r26
 2d6:	3b 05       	cpc	r19, r11
 2d8:	49 13       	cpse	r20, r25
 2da:	00 00       	nop
 2dc:	1e 2e       	mov	r1, r30
 2de:	01 3f       	cpi	r16, 0xF1	; 241
 2e0:	0c 03       	fmul	r16, r20
 2e2:	0e 3a       	cpi	r16, 0xAE	; 174
 2e4:	0b 3b       	cpi	r16, 0xBB	; 187
 2e6:	05 27       	eor	r16, r21
 2e8:	0c 49       	sbci	r16, 0x9C	; 156
 2ea:	13 11       	cpse	r17, r3
 2ec:	01 12       	cpse	r0, r17
 2ee:	01 40       	sbci	r16, 0x01	; 1
 2f0:	0a 01       	movw	r0, r20
 2f2:	13 00       	.word	0x0013	; ????
 2f4:	00 1f       	adc	r16, r16
 2f6:	05 00       	.word	0x0005	; ????
 2f8:	03 0e       	add	r0, r19
 2fa:	3a 0b       	sbc	r19, r26
 2fc:	3b 05       	cpc	r19, r11
 2fe:	49 13       	cpse	r20, r25
 300:	02 06       	cpc	r0, r18
 302:	00 00       	nop
 304:	20 34       	cpi	r18, 0x40	; 64
 306:	00 03       	mulsu	r16, r16
 308:	08 3a       	cpi	r16, 0xA8	; 168
 30a:	0b 3b       	cpi	r16, 0xBB	; 187
 30c:	05 49       	sbci	r16, 0x95	; 149
 30e:	13 02       	muls	r17, r19
 310:	0a 00       	.word	0x000a	; ????
 312:	00 21       	and	r16, r0
 314:	34 00       	.word	0x0034	; ????
 316:	03 08       	sbc	r0, r3
 318:	3a 0b       	sbc	r19, r26
 31a:	3b 05       	cpc	r19, r11
 31c:	49 13       	cpse	r20, r25
 31e:	00 00       	nop
 320:	22 34       	cpi	r18, 0x42	; 66
 322:	00 03       	mulsu	r16, r16
 324:	0e 3a       	cpi	r16, 0xAE	; 174
 326:	0b 3b       	cpi	r16, 0xBB	; 187
 328:	0b 49       	sbci	r16, 0x9B	; 155
 32a:	13 3f       	cpi	r17, 0xF3	; 243
 32c:	0c 3c       	cpi	r16, 0xCC	; 204
 32e:	0c 00       	.word	0x000c	; ????
 330:	00 23       	and	r16, r16
 332:	26 00       	.word	0x0026	; ????
 334:	49 13       	cpse	r20, r25
 336:	00 00       	nop
 338:	00 01       	movw	r0, r0
 33a:	11 01       	movw	r2, r2
 33c:	25 0e       	add	r2, r21
 33e:	13 0b       	sbc	r17, r19
 340:	03 0e       	add	r0, r19
 342:	1b 0e       	add	r1, r27
 344:	11 01       	movw	r2, r2
 346:	12 01       	movw	r2, r4
 348:	10 06       	cpc	r1, r16
 34a:	00 00       	nop
 34c:	02 24       	eor	r0, r2
 34e:	00 0b       	sbc	r16, r16
 350:	0b 3e       	cpi	r16, 0xEB	; 235
 352:	0b 03       	fmul	r16, r19
 354:	0e 00       	.word	0x000e	; ????
 356:	00 03       	mulsu	r16, r16
 358:	24 00       	.word	0x0024	; ????
 35a:	0b 0b       	sbc	r16, r27
 35c:	3e 0b       	sbc	r19, r30
 35e:	03 08       	sbc	r0, r3
 360:	00 00       	nop
 362:	04 16       	cp	r0, r20
 364:	00 03       	mulsu	r16, r16
 366:	0e 3a       	cpi	r16, 0xAE	; 174
 368:	0b 3b       	cpi	r16, 0xBB	; 187
 36a:	0b 49       	sbci	r16, 0x9B	; 155
 36c:	13 00       	.word	0x0013	; ????
 36e:	00 05       	cpc	r16, r0
 370:	04 01       	movw	r0, r8
 372:	0b 0b       	sbc	r16, r27
 374:	3a 0b       	sbc	r19, r26
 376:	3b 05       	cpc	r19, r11
 378:	01 13       	cpse	r16, r17
 37a:	00 00       	nop
 37c:	06 28       	or	r0, r6
 37e:	00 03       	mulsu	r16, r16
 380:	0e 1c       	adc	r0, r14
 382:	0d 00       	.word	0x000d	; ????
 384:	00 07       	cpc	r16, r16
 386:	17 01       	movw	r2, r14
 388:	0b 0b       	sbc	r16, r27
 38a:	3a 0b       	sbc	r19, r26
 38c:	3b 05       	cpc	r19, r11
 38e:	01 13       	cpse	r16, r17
 390:	00 00       	nop
 392:	08 0d       	add	r16, r8
 394:	00 03       	mulsu	r16, r16
 396:	08 3a       	cpi	r16, 0xA8	; 168
 398:	0b 3b       	cpi	r16, 0xBB	; 187
 39a:	05 49       	sbci	r16, 0x95	; 149
 39c:	13 00       	.word	0x0013	; ????
 39e:	00 09       	sbc	r16, r0
 3a0:	01 01       	movw	r0, r2
 3a2:	49 13       	cpse	r20, r25
 3a4:	01 13       	cpse	r16, r17
 3a6:	00 00       	nop
 3a8:	0a 21       	and	r16, r10
 3aa:	00 49       	sbci	r16, 0x90	; 144
 3ac:	13 2f       	mov	r17, r19
 3ae:	0b 00       	.word	0x000b	; ????
 3b0:	00 0b       	sbc	r16, r16
 3b2:	24 00       	.word	0x0024	; ????
 3b4:	0b 0b       	sbc	r16, r27
 3b6:	3e 0b       	sbc	r19, r30
 3b8:	00 00       	nop
 3ba:	0c 13       	cpse	r16, r28
 3bc:	01 0b       	sbc	r16, r17
 3be:	0b 3a       	cpi	r16, 0xAB	; 171
 3c0:	0b 3b       	cpi	r16, 0xBB	; 187
 3c2:	05 01       	movw	r0, r10
 3c4:	13 00       	.word	0x0013	; ????
 3c6:	00 0d       	add	r16, r0
 3c8:	0d 00       	.word	0x000d	; ????
 3ca:	03 0e       	add	r0, r19
 3cc:	3a 0b       	sbc	r19, r26
 3ce:	3b 05       	cpc	r19, r11
 3d0:	49 13       	cpse	r20, r25
 3d2:	38 0a       	sbc	r3, r24
 3d4:	00 00       	nop
 3d6:	0e 16       	cp	r0, r30
 3d8:	00 03       	mulsu	r16, r16
 3da:	0e 3a       	cpi	r16, 0xAE	; 174
 3dc:	0b 3b       	cpi	r16, 0xBB	; 187
 3de:	05 49       	sbci	r16, 0x95	; 149
 3e0:	13 00       	.word	0x0013	; ????
 3e2:	00 0f       	add	r16, r16
 3e4:	0d 00       	.word	0x000d	; ????
 3e6:	03 0e       	add	r0, r19
 3e8:	3a 0b       	sbc	r19, r26
 3ea:	3b 05       	cpc	r19, r11
 3ec:	49 13       	cpse	r20, r25
 3ee:	0b 0b       	sbc	r16, r27
 3f0:	0d 0b       	sbc	r16, r29
 3f2:	0c 0b       	sbc	r16, r28
 3f4:	38 0a       	sbc	r3, r24
 3f6:	00 00       	nop
 3f8:	10 0d       	add	r17, r0
 3fa:	00 03       	mulsu	r16, r16
 3fc:	08 3a       	cpi	r16, 0xA8	; 168
 3fe:	0b 3b       	cpi	r16, 0xBB	; 187
 400:	05 49       	sbci	r16, 0x95	; 149
 402:	13 0b       	sbc	r17, r19
 404:	0b 0d       	add	r16, r11
 406:	0b 0c       	add	r0, r11
 408:	0b 38       	cpi	r16, 0x8B	; 139
 40a:	0a 00       	.word	0x000a	; ????
 40c:	00 11       	cpse	r16, r0
 40e:	0d 00       	.word	0x000d	; ????
 410:	03 0e       	add	r0, r19
 412:	3a 0b       	sbc	r19, r26
 414:	3b 05       	cpc	r19, r11
 416:	49 13       	cpse	r20, r25
 418:	00 00       	nop
 41a:	12 2e       	mov	r1, r18
 41c:	01 03       	mulsu	r16, r17
 41e:	0e 3a       	cpi	r16, 0xAE	; 174
 420:	0b 3b       	cpi	r16, 0xBB	; 187
 422:	0b 27       	eor	r16, r27
 424:	0c 49       	sbci	r16, 0x9C	; 156
 426:	13 20       	and	r1, r3
 428:	0b 01       	movw	r0, r22
 42a:	13 00       	.word	0x0013	; ????
 42c:	00 13       	cpse	r16, r16
 42e:	05 00       	.word	0x0005	; ????
 430:	03 08       	sbc	r0, r3
 432:	3a 0b       	sbc	r19, r26
 434:	3b 0b       	sbc	r19, r27
 436:	49 13       	cpse	r20, r25
 438:	00 00       	nop
 43a:	14 0f       	add	r17, r20
 43c:	00 0b       	sbc	r16, r16
 43e:	0b 49       	sbci	r16, 0x9B	; 155
 440:	13 00       	.word	0x0013	; ????
 442:	00 15       	cp	r16, r0
 444:	2e 00       	.word	0x002e	; ????
 446:	03 08       	sbc	r0, r3
 448:	3a 0b       	sbc	r19, r26
 44a:	3b 0b       	sbc	r19, r27
 44c:	27 0c       	add	r2, r7
 44e:	49 13       	cpse	r20, r25
 450:	20 0b       	sbc	r18, r16
 452:	00 00       	nop
 454:	16 2e       	mov	r1, r22
 456:	01 03       	mulsu	r16, r17
 458:	0e 3a       	cpi	r16, 0xAE	; 174
 45a:	0b 3b       	cpi	r16, 0xBB	; 187
 45c:	05 27       	eor	r16, r21
 45e:	0c 49       	sbci	r16, 0x9C	; 156
 460:	13 20       	and	r1, r3
 462:	0b 01       	movw	r0, r22
 464:	13 00       	.word	0x0013	; ????
 466:	00 17       	cp	r16, r16
 468:	05 00       	.word	0x0005	; ????
 46a:	03 08       	sbc	r0, r3
 46c:	3a 0b       	sbc	r19, r26
 46e:	3b 05       	cpc	r19, r11
 470:	49 13       	cpse	r20, r25
 472:	00 00       	nop
 474:	18 34       	cpi	r17, 0x48	; 72
 476:	00 03       	mulsu	r16, r16
 478:	08 3a       	cpi	r16, 0xA8	; 168
 47a:	0b 3b       	cpi	r16, 0xBB	; 187
 47c:	05 49       	sbci	r16, 0x95	; 149
 47e:	13 00       	.word	0x0013	; ????
 480:	00 19       	sub	r16, r0
 482:	34 00       	.word	0x0034	; ????
 484:	03 0e       	add	r0, r19
 486:	3a 0b       	sbc	r19, r26
 488:	3b 05       	cpc	r19, r11
 48a:	49 13       	cpse	r20, r25
 48c:	00 00       	nop
 48e:	1a 0b       	sbc	r17, r26
 490:	01 01       	movw	r0, r2
 492:	13 00       	.word	0x0013	; ????
 494:	00 1b       	sub	r16, r16
 496:	0b 01       	movw	r0, r22
 498:	00 00       	nop
 49a:	1c 05       	cpc	r17, r12
 49c:	00 31       	cpi	r16, 0x10	; 16
 49e:	13 00       	.word	0x0013	; ????
 4a0:	00 1d       	adc	r16, r0
 4a2:	0b 00       	.word	0x000b	; ????
 4a4:	00 00       	nop
 4a6:	1e 2e       	mov	r1, r30
 4a8:	01 3f       	cpi	r16, 0xF1	; 241
 4aa:	0c 03       	fmul	r16, r20
 4ac:	0e 3a       	cpi	r16, 0xAE	; 174
 4ae:	0b 3b       	cpi	r16, 0xBB	; 187
 4b0:	05 27       	eor	r16, r21
 4b2:	0c 49       	sbci	r16, 0x9C	; 156
 4b4:	13 11       	cpse	r17, r3
 4b6:	01 12       	cpse	r0, r17
 4b8:	01 40       	sbci	r16, 0x01	; 1
 4ba:	0a 01       	movw	r0, r20
 4bc:	13 00       	.word	0x0013	; ????
 4be:	00 1f       	adc	r16, r16
 4c0:	05 00       	.word	0x0005	; ????
 4c2:	03 0e       	add	r0, r19
 4c4:	3a 0b       	sbc	r19, r26
 4c6:	3b 05       	cpc	r19, r11
 4c8:	49 13       	cpse	r20, r25
 4ca:	02 06       	cpc	r0, r18
 4cc:	00 00       	nop
 4ce:	20 34       	cpi	r18, 0x40	; 64
 4d0:	00 03       	mulsu	r16, r16
 4d2:	08 3a       	cpi	r16, 0xA8	; 168
 4d4:	0b 3b       	cpi	r16, 0xBB	; 187
 4d6:	05 49       	sbci	r16, 0x95	; 149
 4d8:	13 02       	muls	r17, r19
 4da:	0a 00       	.word	0x000a	; ????
 4dc:	00 21       	and	r16, r0
 4de:	34 00       	.word	0x0034	; ????
 4e0:	03 08       	sbc	r0, r3
 4e2:	3a 0b       	sbc	r19, r26
 4e4:	3b 05       	cpc	r19, r11
 4e6:	49 13       	cpse	r20, r25
 4e8:	02 06       	cpc	r0, r18
 4ea:	00 00       	nop
 4ec:	22 1d       	adc	r18, r2
 4ee:	01 31       	cpi	r16, 0x11	; 17
 4f0:	13 11       	cpse	r17, r3
 4f2:	01 12       	cpse	r0, r17
 4f4:	01 58       	subi	r16, 0x81	; 129
 4f6:	0b 59       	subi	r16, 0x9B	; 155
 4f8:	05 00       	.word	0x0005	; ????
 4fa:	00 23       	and	r16, r16
 4fc:	0b 01       	movw	r0, r22
 4fe:	55 06       	cpc	r5, r21
 500:	00 00       	nop
 502:	24 34       	cpi	r18, 0x44	; 68
 504:	00 31       	cpi	r16, 0x10	; 16
 506:	13 02       	muls	r17, r19
 508:	0a 00       	.word	0x000a	; ????
 50a:	00 25       	eor	r16, r0
 50c:	34 00       	.word	0x0034	; ????
 50e:	31 13       	cpse	r19, r17
 510:	02 06       	cpc	r0, r18
 512:	00 00       	nop
 514:	26 1d       	adc	r18, r6
 516:	01 31       	cpi	r16, 0x11	; 17
 518:	13 11       	cpse	r17, r3
 51a:	01 12       	cpse	r0, r17
 51c:	01 58       	subi	r16, 0x81	; 129
 51e:	0b 59       	subi	r16, 0x9B	; 155
 520:	05 01       	movw	r0, r10
 522:	13 00       	.word	0x0013	; ????
 524:	00 27       	eor	r16, r16
 526:	1d 00       	.word	0x001d	; ????
 528:	31 13       	cpse	r19, r17
 52a:	11 01       	movw	r2, r2
 52c:	12 01       	movw	r2, r4
 52e:	58 0b       	sbc	r21, r24
 530:	59 05       	cpc	r21, r9
 532:	00 00       	nop
 534:	28 34       	cpi	r18, 0x48	; 72
 536:	00 31       	cpi	r16, 0x10	; 16
 538:	13 00       	.word	0x0013	; ????
 53a:	00 29       	or	r16, r0
 53c:	34 00       	.word	0x0034	; ????
 53e:	03 0e       	add	r0, r19
 540:	3a 0b       	sbc	r19, r26
 542:	3b 0b       	sbc	r19, r27
 544:	49 13       	cpse	r20, r25
 546:	3f 0c       	add	r3, r15
 548:	3c 0c       	add	r3, r12
 54a:	00 00       	nop
 54c:	2a 26       	eor	r2, r26
 54e:	00 49       	sbci	r16, 0x90	; 144
 550:	13 00       	.word	0x0013	; ????
 552:	00 00       	nop
 554:	01 11       	cpse	r16, r1
 556:	01 25       	eor	r16, r1
 558:	0e 13       	cpse	r16, r30
 55a:	0b 03       	fmul	r16, r19
 55c:	0e 1b       	sub	r16, r30
 55e:	0e 11       	cpse	r16, r14
 560:	01 12       	cpse	r0, r17
 562:	01 10       	cpse	r0, r1
 564:	06 00       	.word	0x0006	; ????
 566:	00 02       	muls	r16, r16
 568:	16 00       	.word	0x0016	; ????
 56a:	03 0e       	add	r0, r19
 56c:	3a 0b       	sbc	r19, r26
 56e:	3b 0b       	sbc	r19, r27
 570:	49 13       	cpse	r20, r25
 572:	00 00       	nop
 574:	03 24       	eor	r0, r3
 576:	00 0b       	sbc	r16, r16
 578:	0b 3e       	cpi	r16, 0xEB	; 235
 57a:	0b 03       	fmul	r16, r19
 57c:	0e 00       	.word	0x000e	; ????
 57e:	00 04       	cpc	r0, r0
 580:	24 00       	.word	0x0024	; ????
 582:	0b 0b       	sbc	r16, r27
 584:	3e 0b       	sbc	r19, r30
 586:	03 08       	sbc	r0, r3
 588:	00 00       	nop
 58a:	05 04       	cpc	r0, r5
 58c:	01 0b       	sbc	r16, r17
 58e:	0b 3a       	cpi	r16, 0xAB	; 171
 590:	0b 3b       	cpi	r16, 0xBB	; 187
 592:	05 01       	movw	r0, r10
 594:	13 00       	.word	0x0013	; ????
 596:	00 06       	cpc	r0, r16
 598:	28 00       	.word	0x0028	; ????
 59a:	03 0e       	add	r0, r19
 59c:	1c 0d       	add	r17, r12
 59e:	00 00       	nop
 5a0:	07 17       	cp	r16, r23
 5a2:	01 0b       	sbc	r16, r17
 5a4:	0b 3a       	cpi	r16, 0xAB	; 171
 5a6:	0b 3b       	cpi	r16, 0xBB	; 187
 5a8:	05 01       	movw	r0, r10
 5aa:	13 00       	.word	0x0013	; ????
 5ac:	00 08       	sbc	r0, r0
 5ae:	0d 00       	.word	0x000d	; ????
 5b0:	03 08       	sbc	r0, r3
 5b2:	3a 0b       	sbc	r19, r26
 5b4:	3b 05       	cpc	r19, r11
 5b6:	49 13       	cpse	r20, r25
 5b8:	00 00       	nop
 5ba:	09 01       	movw	r0, r18
 5bc:	01 49       	sbci	r16, 0x91	; 145
 5be:	13 01       	movw	r2, r6
 5c0:	13 00       	.word	0x0013	; ????
 5c2:	00 0a       	sbc	r0, r16
 5c4:	21 00       	.word	0x0021	; ????
 5c6:	49 13       	cpse	r20, r25
 5c8:	2f 0b       	sbc	r18, r31
 5ca:	00 00       	nop
 5cc:	0b 24       	eor	r0, r11
 5ce:	00 0b       	sbc	r16, r16
 5d0:	0b 3e       	cpi	r16, 0xEB	; 235
 5d2:	0b 00       	.word	0x000b	; ????
 5d4:	00 0c       	add	r0, r0
 5d6:	13 01       	movw	r2, r6
 5d8:	0b 0b       	sbc	r16, r27
 5da:	3a 0b       	sbc	r19, r26
 5dc:	3b 05       	cpc	r19, r11
 5de:	01 13       	cpse	r16, r17
 5e0:	00 00       	nop
 5e2:	0d 0d       	add	r16, r13
 5e4:	00 03       	mulsu	r16, r16
 5e6:	0e 3a       	cpi	r16, 0xAE	; 174
 5e8:	0b 3b       	cpi	r16, 0xBB	; 187
 5ea:	05 49       	sbci	r16, 0x95	; 149
 5ec:	13 38       	cpi	r17, 0x83	; 131
 5ee:	0a 00       	.word	0x000a	; ????
 5f0:	00 0e       	add	r0, r16
 5f2:	16 00       	.word	0x0016	; ????
 5f4:	03 0e       	add	r0, r19
 5f6:	3a 0b       	sbc	r19, r26
 5f8:	3b 05       	cpc	r19, r11
 5fa:	49 13       	cpse	r20, r25
 5fc:	00 00       	nop
 5fe:	0f 0d       	add	r16, r15
 600:	00 03       	mulsu	r16, r16
 602:	0e 3a       	cpi	r16, 0xAE	; 174
 604:	0b 3b       	cpi	r16, 0xBB	; 187
 606:	05 49       	sbci	r16, 0x95	; 149
 608:	13 0b       	sbc	r17, r19
 60a:	0b 0d       	add	r16, r11
 60c:	0b 0c       	add	r0, r11
 60e:	0b 38       	cpi	r16, 0x8B	; 139
 610:	0a 00       	.word	0x000a	; ????
 612:	00 10       	cpse	r0, r0
 614:	0d 00       	.word	0x000d	; ????
 616:	03 08       	sbc	r0, r3
 618:	3a 0b       	sbc	r19, r26
 61a:	3b 05       	cpc	r19, r11
 61c:	49 13       	cpse	r20, r25
 61e:	0b 0b       	sbc	r16, r27
 620:	0d 0b       	sbc	r16, r29
 622:	0c 0b       	sbc	r16, r28
 624:	38 0a       	sbc	r3, r24
 626:	00 00       	nop
 628:	11 0d       	add	r17, r1
 62a:	00 03       	mulsu	r16, r16
 62c:	0e 3a       	cpi	r16, 0xAE	; 174
 62e:	0b 3b       	cpi	r16, 0xBB	; 187
 630:	05 49       	sbci	r16, 0x95	; 149
 632:	13 00       	.word	0x0013	; ????
 634:	00 12       	cpse	r0, r16
 636:	2e 01       	movw	r4, r28
 638:	03 0e       	add	r0, r19
 63a:	3a 0b       	sbc	r19, r26
 63c:	3b 0b       	sbc	r19, r27
 63e:	27 0c       	add	r2, r7
 640:	49 13       	cpse	r20, r25
 642:	20 0b       	sbc	r18, r16
 644:	01 13       	cpse	r16, r17
 646:	00 00       	nop
 648:	13 05       	cpc	r17, r3
 64a:	00 03       	mulsu	r16, r16
 64c:	08 3a       	cpi	r16, 0xA8	; 168
 64e:	0b 3b       	cpi	r16, 0xBB	; 187
 650:	0b 49       	sbci	r16, 0x9B	; 155
 652:	13 00       	.word	0x0013	; ????
 654:	00 14       	cp	r0, r0
 656:	0f 00       	.word	0x000f	; ????
 658:	0b 0b       	sbc	r16, r27
 65a:	49 13       	cpse	r20, r25
 65c:	00 00       	nop
 65e:	15 2e       	mov	r1, r21
 660:	01 3f       	cpi	r16, 0xF1	; 241
 662:	0c 03       	fmul	r16, r20
 664:	0e 3a       	cpi	r16, 0xAE	; 174
 666:	0b 3b       	cpi	r16, 0xBB	; 187
 668:	05 27       	eor	r16, r21
 66a:	0c 49       	sbci	r16, 0x9C	; 156
 66c:	13 11       	cpse	r17, r3
 66e:	01 12       	cpse	r0, r17
 670:	01 40       	sbci	r16, 0x01	; 1
 672:	0a 01       	movw	r0, r20
 674:	13 00       	.word	0x0013	; ????
 676:	00 16       	cp	r0, r16
 678:	05 00       	.word	0x0005	; ????
 67a:	03 0e       	add	r0, r19
 67c:	3a 0b       	sbc	r19, r26
 67e:	3b 05       	cpc	r19, r11
 680:	49 13       	cpse	r20, r25
 682:	02 06       	cpc	r0, r18
 684:	00 00       	nop
 686:	17 34       	cpi	r17, 0x47	; 71
 688:	00 03       	mulsu	r16, r16
 68a:	08 3a       	cpi	r16, 0xA8	; 168
 68c:	0b 3b       	cpi	r16, 0xBB	; 187
 68e:	05 49       	sbci	r16, 0x95	; 149
 690:	13 02       	muls	r17, r19
 692:	0a 00       	.word	0x000a	; ????
 694:	00 18       	sub	r0, r0
 696:	34 00       	.word	0x0034	; ????
 698:	03 0e       	add	r0, r19
 69a:	3a 0b       	sbc	r19, r26
 69c:	3b 0b       	sbc	r19, r27
 69e:	49 13       	cpse	r20, r25
 6a0:	3f 0c       	add	r3, r15
 6a2:	3c 0c       	add	r3, r12
 6a4:	00 00       	nop
 6a6:	19 26       	eor	r1, r25
 6a8:	00 49       	sbci	r16, 0x90	; 144
 6aa:	13 00       	.word	0x0013	; ????
 6ac:	00 00       	nop
 6ae:	01 11       	cpse	r16, r1
 6b0:	01 25       	eor	r16, r1
 6b2:	0e 13       	cpse	r16, r30
 6b4:	0b 03       	fmul	r16, r19
 6b6:	0e 1b       	sub	r16, r30
 6b8:	0e 11       	cpse	r16, r14
 6ba:	01 12       	cpse	r0, r17
 6bc:	01 10       	cpse	r0, r1
 6be:	06 00       	.word	0x0006	; ????
 6c0:	00 02       	muls	r16, r16
 6c2:	16 00       	.word	0x0016	; ????
 6c4:	03 0e       	add	r0, r19
 6c6:	3a 0b       	sbc	r19, r26
 6c8:	3b 0b       	sbc	r19, r27
 6ca:	49 13       	cpse	r20, r25
 6cc:	00 00       	nop
 6ce:	03 24       	eor	r0, r3
 6d0:	00 0b       	sbc	r16, r16
 6d2:	0b 3e       	cpi	r16, 0xEB	; 235
 6d4:	0b 03       	fmul	r16, r19
 6d6:	0e 00       	.word	0x000e	; ????
 6d8:	00 04       	cpc	r0, r0
 6da:	24 00       	.word	0x0024	; ????
 6dc:	0b 0b       	sbc	r16, r27
 6de:	3e 0b       	sbc	r19, r30
 6e0:	03 08       	sbc	r0, r3
 6e2:	00 00       	nop
 6e4:	05 04       	cpc	r0, r5
 6e6:	01 0b       	sbc	r16, r17
 6e8:	0b 3a       	cpi	r16, 0xAB	; 171
 6ea:	0b 3b       	cpi	r16, 0xBB	; 187
 6ec:	05 01       	movw	r0, r10
 6ee:	13 00       	.word	0x0013	; ????
 6f0:	00 06       	cpc	r0, r16
 6f2:	28 00       	.word	0x0028	; ????
 6f4:	03 0e       	add	r0, r19
 6f6:	1c 0d       	add	r17, r12
 6f8:	00 00       	nop
 6fa:	07 17       	cp	r16, r23
 6fc:	01 0b       	sbc	r16, r17
 6fe:	0b 3a       	cpi	r16, 0xAB	; 171
 700:	0b 3b       	cpi	r16, 0xBB	; 187
 702:	05 01       	movw	r0, r10
 704:	13 00       	.word	0x0013	; ????
 706:	00 08       	sbc	r0, r0
 708:	0d 00       	.word	0x000d	; ????
 70a:	03 08       	sbc	r0, r3
 70c:	3a 0b       	sbc	r19, r26
 70e:	3b 05       	cpc	r19, r11
 710:	49 13       	cpse	r20, r25
 712:	00 00       	nop
 714:	09 01       	movw	r0, r18
 716:	01 49       	sbci	r16, 0x91	; 145
 718:	13 01       	movw	r2, r6
 71a:	13 00       	.word	0x0013	; ????
 71c:	00 0a       	sbc	r0, r16
 71e:	21 00       	.word	0x0021	; ????
 720:	49 13       	cpse	r20, r25
 722:	2f 0b       	sbc	r18, r31
 724:	00 00       	nop
 726:	0b 24       	eor	r0, r11
 728:	00 0b       	sbc	r16, r16
 72a:	0b 3e       	cpi	r16, 0xEB	; 235
 72c:	0b 00       	.word	0x000b	; ????
 72e:	00 0c       	add	r0, r0
 730:	13 01       	movw	r2, r6
 732:	0b 0b       	sbc	r16, r27
 734:	3a 0b       	sbc	r19, r26
 736:	3b 05       	cpc	r19, r11
 738:	01 13       	cpse	r16, r17
 73a:	00 00       	nop
 73c:	0d 0d       	add	r16, r13
 73e:	00 03       	mulsu	r16, r16
 740:	0e 3a       	cpi	r16, 0xAE	; 174
 742:	0b 3b       	cpi	r16, 0xBB	; 187
 744:	05 49       	sbci	r16, 0x95	; 149
 746:	13 38       	cpi	r17, 0x83	; 131
 748:	0a 00       	.word	0x000a	; ????
 74a:	00 0e       	add	r0, r16
 74c:	16 00       	.word	0x0016	; ????
 74e:	03 0e       	add	r0, r19
 750:	3a 0b       	sbc	r19, r26
 752:	3b 05       	cpc	r19, r11
 754:	49 13       	cpse	r20, r25
 756:	00 00       	nop
 758:	0f 0d       	add	r16, r15
 75a:	00 03       	mulsu	r16, r16
 75c:	0e 3a       	cpi	r16, 0xAE	; 174
 75e:	0b 3b       	cpi	r16, 0xBB	; 187
 760:	05 49       	sbci	r16, 0x95	; 149
 762:	13 0b       	sbc	r17, r19
 764:	0b 0d       	add	r16, r11
 766:	0b 0c       	add	r0, r11
 768:	0b 38       	cpi	r16, 0x8B	; 139
 76a:	0a 00       	.word	0x000a	; ????
 76c:	00 10       	cpse	r0, r0
 76e:	0d 00       	.word	0x000d	; ????
 770:	03 08       	sbc	r0, r3
 772:	3a 0b       	sbc	r19, r26
 774:	3b 05       	cpc	r19, r11
 776:	49 13       	cpse	r20, r25
 778:	0b 0b       	sbc	r16, r27
 77a:	0d 0b       	sbc	r16, r29
 77c:	0c 0b       	sbc	r16, r28
 77e:	38 0a       	sbc	r3, r24
 780:	00 00       	nop
 782:	11 0d       	add	r17, r1
 784:	00 03       	mulsu	r16, r16
 786:	0e 3a       	cpi	r16, 0xAE	; 174
 788:	0b 3b       	cpi	r16, 0xBB	; 187
 78a:	05 49       	sbci	r16, 0x95	; 149
 78c:	13 00       	.word	0x0013	; ????
 78e:	00 12       	cpse	r0, r16
 790:	2e 01       	movw	r4, r28
 792:	03 0e       	add	r0, r19
 794:	3a 0b       	sbc	r19, r26
 796:	3b 0b       	sbc	r19, r27
 798:	27 0c       	add	r2, r7
 79a:	49 13       	cpse	r20, r25
 79c:	20 0b       	sbc	r18, r16
 79e:	01 13       	cpse	r16, r17
 7a0:	00 00       	nop
 7a2:	13 05       	cpc	r17, r3
 7a4:	00 03       	mulsu	r16, r16
 7a6:	08 3a       	cpi	r16, 0xA8	; 168
 7a8:	0b 3b       	cpi	r16, 0xBB	; 187
 7aa:	0b 49       	sbci	r16, 0x9B	; 155
 7ac:	13 00       	.word	0x0013	; ????
 7ae:	00 14       	cp	r0, r0
 7b0:	0f 00       	.word	0x000f	; ????
 7b2:	0b 0b       	sbc	r16, r27
 7b4:	49 13       	cpse	r20, r25
 7b6:	00 00       	nop
 7b8:	15 2e       	mov	r1, r21
 7ba:	01 3f       	cpi	r16, 0xF1	; 241
 7bc:	0c 03       	fmul	r16, r20
 7be:	0e 3a       	cpi	r16, 0xAE	; 174
 7c0:	0b 3b       	cpi	r16, 0xBB	; 187
 7c2:	05 27       	eor	r16, r21
 7c4:	0c 49       	sbci	r16, 0x9C	; 156
 7c6:	13 11       	cpse	r17, r3
 7c8:	01 12       	cpse	r0, r17
 7ca:	01 40       	sbci	r16, 0x01	; 1
 7cc:	0a 01       	movw	r0, r20
 7ce:	13 00       	.word	0x0013	; ????
 7d0:	00 16       	cp	r0, r16
 7d2:	05 00       	.word	0x0005	; ????
 7d4:	03 0e       	add	r0, r19
 7d6:	3a 0b       	sbc	r19, r26
 7d8:	3b 05       	cpc	r19, r11
 7da:	49 13       	cpse	r20, r25
 7dc:	02 06       	cpc	r0, r18
 7de:	00 00       	nop
 7e0:	17 34       	cpi	r17, 0x47	; 71
 7e2:	00 03       	mulsu	r16, r16
 7e4:	08 3a       	cpi	r16, 0xA8	; 168
 7e6:	0b 3b       	cpi	r16, 0xBB	; 187
 7e8:	05 49       	sbci	r16, 0x95	; 149
 7ea:	13 02       	muls	r17, r19
 7ec:	0a 00       	.word	0x000a	; ????
 7ee:	00 18       	sub	r0, r0
 7f0:	34 00       	.word	0x0034	; ????
 7f2:	03 0e       	add	r0, r19
 7f4:	3a 0b       	sbc	r19, r26
 7f6:	3b 0b       	sbc	r19, r27
 7f8:	49 13       	cpse	r20, r25
 7fa:	3f 0c       	add	r3, r15
 7fc:	3c 0c       	add	r3, r12
 7fe:	00 00       	nop
 800:	19 26       	eor	r1, r25
 802:	00 49       	sbci	r16, 0x90	; 144
 804:	13 00       	.word	0x0013	; ????
 806:	00 00       	nop
 808:	01 11       	cpse	r16, r1
 80a:	01 25       	eor	r16, r1
 80c:	0e 13       	cpse	r16, r30
 80e:	0b 03       	fmul	r16, r19
 810:	0e 1b       	sub	r16, r30
 812:	0e 11       	cpse	r16, r14
 814:	01 12       	cpse	r0, r17
 816:	01 10       	cpse	r0, r1
 818:	06 00       	.word	0x0006	; ????
 81a:	00 02       	muls	r16, r16
 81c:	16 00       	.word	0x0016	; ????
 81e:	03 0e       	add	r0, r19
 820:	3a 0b       	sbc	r19, r26
 822:	3b 0b       	sbc	r19, r27
 824:	49 13       	cpse	r20, r25
 826:	00 00       	nop
 828:	03 24       	eor	r0, r3
 82a:	00 0b       	sbc	r16, r16
 82c:	0b 3e       	cpi	r16, 0xEB	; 235
 82e:	0b 03       	fmul	r16, r19
 830:	0e 00       	.word	0x000e	; ????
 832:	00 04       	cpc	r0, r0
 834:	24 00       	.word	0x0024	; ????
 836:	0b 0b       	sbc	r16, r27
 838:	3e 0b       	sbc	r19, r30
 83a:	03 08       	sbc	r0, r3
 83c:	00 00       	nop
 83e:	05 04       	cpc	r0, r5
 840:	01 0b       	sbc	r16, r17
 842:	0b 3a       	cpi	r16, 0xAB	; 171
 844:	0b 3b       	cpi	r16, 0xBB	; 187
 846:	05 01       	movw	r0, r10
 848:	13 00       	.word	0x0013	; ????
 84a:	00 06       	cpc	r0, r16
 84c:	28 00       	.word	0x0028	; ????
 84e:	03 0e       	add	r0, r19
 850:	1c 0d       	add	r17, r12
 852:	00 00       	nop
 854:	07 17       	cp	r16, r23
 856:	01 0b       	sbc	r16, r17
 858:	0b 3a       	cpi	r16, 0xAB	; 171
 85a:	0b 3b       	cpi	r16, 0xBB	; 187
 85c:	05 01       	movw	r0, r10
 85e:	13 00       	.word	0x0013	; ????
 860:	00 08       	sbc	r0, r0
 862:	0d 00       	.word	0x000d	; ????
 864:	03 08       	sbc	r0, r3
 866:	3a 0b       	sbc	r19, r26
 868:	3b 05       	cpc	r19, r11
 86a:	49 13       	cpse	r20, r25
 86c:	00 00       	nop
 86e:	09 01       	movw	r0, r18
 870:	01 49       	sbci	r16, 0x91	; 145
 872:	13 01       	movw	r2, r6
 874:	13 00       	.word	0x0013	; ????
 876:	00 0a       	sbc	r0, r16
 878:	21 00       	.word	0x0021	; ????
 87a:	49 13       	cpse	r20, r25
 87c:	2f 0b       	sbc	r18, r31
 87e:	00 00       	nop
 880:	0b 24       	eor	r0, r11
 882:	00 0b       	sbc	r16, r16
 884:	0b 3e       	cpi	r16, 0xEB	; 235
 886:	0b 00       	.word	0x000b	; ????
 888:	00 0c       	add	r0, r0
 88a:	13 01       	movw	r2, r6
 88c:	0b 0b       	sbc	r16, r27
 88e:	3a 0b       	sbc	r19, r26
 890:	3b 05       	cpc	r19, r11
 892:	01 13       	cpse	r16, r17
 894:	00 00       	nop
 896:	0d 0d       	add	r16, r13
 898:	00 03       	mulsu	r16, r16
 89a:	0e 3a       	cpi	r16, 0xAE	; 174
 89c:	0b 3b       	cpi	r16, 0xBB	; 187
 89e:	05 49       	sbci	r16, 0x95	; 149
 8a0:	13 38       	cpi	r17, 0x83	; 131
 8a2:	0a 00       	.word	0x000a	; ????
 8a4:	00 0e       	add	r0, r16
 8a6:	16 00       	.word	0x0016	; ????
 8a8:	03 0e       	add	r0, r19
 8aa:	3a 0b       	sbc	r19, r26
 8ac:	3b 05       	cpc	r19, r11
 8ae:	49 13       	cpse	r20, r25
 8b0:	00 00       	nop
 8b2:	0f 0d       	add	r16, r15
 8b4:	00 03       	mulsu	r16, r16
 8b6:	0e 3a       	cpi	r16, 0xAE	; 174
 8b8:	0b 3b       	cpi	r16, 0xBB	; 187
 8ba:	05 49       	sbci	r16, 0x95	; 149
 8bc:	13 0b       	sbc	r17, r19
 8be:	0b 0d       	add	r16, r11
 8c0:	0b 0c       	add	r0, r11
 8c2:	0b 38       	cpi	r16, 0x8B	; 139
 8c4:	0a 00       	.word	0x000a	; ????
 8c6:	00 10       	cpse	r0, r0
 8c8:	0d 00       	.word	0x000d	; ????
 8ca:	03 08       	sbc	r0, r3
 8cc:	3a 0b       	sbc	r19, r26
 8ce:	3b 05       	cpc	r19, r11
 8d0:	49 13       	cpse	r20, r25
 8d2:	0b 0b       	sbc	r16, r27
 8d4:	0d 0b       	sbc	r16, r29
 8d6:	0c 0b       	sbc	r16, r28
 8d8:	38 0a       	sbc	r3, r24
 8da:	00 00       	nop
 8dc:	11 0d       	add	r17, r1
 8de:	00 03       	mulsu	r16, r16
 8e0:	0e 3a       	cpi	r16, 0xAE	; 174
 8e2:	0b 3b       	cpi	r16, 0xBB	; 187
 8e4:	05 49       	sbci	r16, 0x95	; 149
 8e6:	13 00       	.word	0x0013	; ????
 8e8:	00 12       	cpse	r0, r16
 8ea:	2e 01       	movw	r4, r28
 8ec:	03 0e       	add	r0, r19
 8ee:	3a 0b       	sbc	r19, r26
 8f0:	3b 0b       	sbc	r19, r27
 8f2:	27 0c       	add	r2, r7
 8f4:	49 13       	cpse	r20, r25
 8f6:	20 0b       	sbc	r18, r16
 8f8:	01 13       	cpse	r16, r17
 8fa:	00 00       	nop
 8fc:	13 05       	cpc	r17, r3
 8fe:	00 03       	mulsu	r16, r16
 900:	08 3a       	cpi	r16, 0xA8	; 168
 902:	0b 3b       	cpi	r16, 0xBB	; 187
 904:	0b 49       	sbci	r16, 0x9B	; 155
 906:	13 00       	.word	0x0013	; ????
 908:	00 14       	cp	r0, r0
 90a:	0f 00       	.word	0x000f	; ????
 90c:	0b 0b       	sbc	r16, r27
 90e:	49 13       	cpse	r20, r25
 910:	00 00       	nop
 912:	15 2e       	mov	r1, r21
 914:	01 3f       	cpi	r16, 0xF1	; 241
 916:	0c 03       	fmul	r16, r20
 918:	0e 3a       	cpi	r16, 0xAE	; 174
 91a:	0b 3b       	cpi	r16, 0xBB	; 187
 91c:	05 27       	eor	r16, r21
 91e:	0c 49       	sbci	r16, 0x9C	; 156
 920:	13 11       	cpse	r17, r3
 922:	01 12       	cpse	r0, r17
 924:	01 40       	sbci	r16, 0x01	; 1
 926:	0a 01       	movw	r0, r20
 928:	13 00       	.word	0x0013	; ????
 92a:	00 16       	cp	r0, r16
 92c:	05 00       	.word	0x0005	; ????
 92e:	03 0e       	add	r0, r19
 930:	3a 0b       	sbc	r19, r26
 932:	3b 05       	cpc	r19, r11
 934:	49 13       	cpse	r20, r25
 936:	02 06       	cpc	r0, r18
 938:	00 00       	nop
 93a:	17 34       	cpi	r17, 0x47	; 71
 93c:	00 03       	mulsu	r16, r16
 93e:	08 3a       	cpi	r16, 0xA8	; 168
 940:	0b 3b       	cpi	r16, 0xBB	; 187
 942:	05 49       	sbci	r16, 0x95	; 149
 944:	13 02       	muls	r17, r19
 946:	0a 00       	.word	0x000a	; ????
 948:	00 18       	sub	r0, r0
 94a:	34 00       	.word	0x0034	; ????
 94c:	03 0e       	add	r0, r19
 94e:	3a 0b       	sbc	r19, r26
 950:	3b 0b       	sbc	r19, r27
 952:	49 13       	cpse	r20, r25
 954:	3f 0c       	add	r3, r15
 956:	3c 0c       	add	r3, r12
 958:	00 00       	nop
 95a:	19 26       	eor	r1, r25
 95c:	00 49       	sbci	r16, 0x90	; 144
 95e:	13 00       	.word	0x0013	; ????
 960:	00 00       	nop
 962:	01 11       	cpse	r16, r1
 964:	01 25       	eor	r16, r1
 966:	0e 13       	cpse	r16, r30
 968:	0b 03       	fmul	r16, r19
 96a:	0e 1b       	sub	r16, r30
 96c:	0e 11       	cpse	r16, r14
 96e:	01 12       	cpse	r0, r17
 970:	01 10       	cpse	r0, r1
 972:	06 00       	.word	0x0006	; ????
 974:	00 02       	muls	r16, r16
 976:	24 00       	.word	0x0024	; ????
 978:	0b 0b       	sbc	r16, r27
 97a:	3e 0b       	sbc	r19, r30
 97c:	03 0e       	add	r0, r19
 97e:	00 00       	nop
 980:	03 24       	eor	r0, r3
 982:	00 0b       	sbc	r16, r16
 984:	0b 3e       	cpi	r16, 0xEB	; 235
 986:	0b 03       	fmul	r16, r19
 988:	08 00       	.word	0x0008	; ????
 98a:	00 04       	cpc	r0, r0
 98c:	16 00       	.word	0x0016	; ????
 98e:	03 0e       	add	r0, r19
 990:	3a 0b       	sbc	r19, r26
 992:	3b 0b       	sbc	r19, r27
 994:	49 13       	cpse	r20, r25
 996:	00 00       	nop
 998:	05 04       	cpc	r0, r5
 99a:	01 0b       	sbc	r16, r17
 99c:	0b 3a       	cpi	r16, 0xAB	; 171
 99e:	0b 3b       	cpi	r16, 0xBB	; 187
 9a0:	05 01       	movw	r0, r10
 9a2:	13 00       	.word	0x0013	; ????
 9a4:	00 06       	cpc	r0, r16
 9a6:	28 00       	.word	0x0028	; ????
 9a8:	03 0e       	add	r0, r19
 9aa:	1c 0d       	add	r17, r12
 9ac:	00 00       	nop
 9ae:	07 17       	cp	r16, r23
 9b0:	01 0b       	sbc	r16, r17
 9b2:	0b 3a       	cpi	r16, 0xAB	; 171
 9b4:	0b 3b       	cpi	r16, 0xBB	; 187
 9b6:	05 01       	movw	r0, r10
 9b8:	13 00       	.word	0x0013	; ????
 9ba:	00 08       	sbc	r0, r0
 9bc:	0d 00       	.word	0x000d	; ????
 9be:	03 08       	sbc	r0, r3
 9c0:	3a 0b       	sbc	r19, r26
 9c2:	3b 05       	cpc	r19, r11
 9c4:	49 13       	cpse	r20, r25
 9c6:	00 00       	nop
 9c8:	09 01       	movw	r0, r18
 9ca:	01 49       	sbci	r16, 0x91	; 145
 9cc:	13 01       	movw	r2, r6
 9ce:	13 00       	.word	0x0013	; ????
 9d0:	00 0a       	sbc	r0, r16
 9d2:	21 00       	.word	0x0021	; ????
 9d4:	49 13       	cpse	r20, r25
 9d6:	2f 0b       	sbc	r18, r31
 9d8:	00 00       	nop
 9da:	0b 24       	eor	r0, r11
 9dc:	00 0b       	sbc	r16, r16
 9de:	0b 3e       	cpi	r16, 0xEB	; 235
 9e0:	0b 00       	.word	0x000b	; ????
 9e2:	00 0c       	add	r0, r0
 9e4:	13 01       	movw	r2, r6
 9e6:	0b 0b       	sbc	r16, r27
 9e8:	3a 0b       	sbc	r19, r26
 9ea:	3b 05       	cpc	r19, r11
 9ec:	01 13       	cpse	r16, r17
 9ee:	00 00       	nop
 9f0:	0d 0d       	add	r16, r13
 9f2:	00 03       	mulsu	r16, r16
 9f4:	0e 3a       	cpi	r16, 0xAE	; 174
 9f6:	0b 3b       	cpi	r16, 0xBB	; 187
 9f8:	05 49       	sbci	r16, 0x95	; 149
 9fa:	13 38       	cpi	r17, 0x83	; 131
 9fc:	0a 00       	.word	0x000a	; ????
 9fe:	00 0e       	add	r0, r16
 a00:	16 00       	.word	0x0016	; ????
 a02:	03 0e       	add	r0, r19
 a04:	3a 0b       	sbc	r19, r26
 a06:	3b 05       	cpc	r19, r11
 a08:	49 13       	cpse	r20, r25
 a0a:	00 00       	nop
 a0c:	0f 0d       	add	r16, r15
 a0e:	00 03       	mulsu	r16, r16
 a10:	0e 3a       	cpi	r16, 0xAE	; 174
 a12:	0b 3b       	cpi	r16, 0xBB	; 187
 a14:	05 49       	sbci	r16, 0x95	; 149
 a16:	13 0b       	sbc	r17, r19
 a18:	0b 0d       	add	r16, r11
 a1a:	0b 0c       	add	r0, r11
 a1c:	0b 38       	cpi	r16, 0x8B	; 139
 a1e:	0a 00       	.word	0x000a	; ????
 a20:	00 10       	cpse	r0, r0
 a22:	0d 00       	.word	0x000d	; ????
 a24:	03 08       	sbc	r0, r3
 a26:	3a 0b       	sbc	r19, r26
 a28:	3b 05       	cpc	r19, r11
 a2a:	49 13       	cpse	r20, r25
 a2c:	0b 0b       	sbc	r16, r27
 a2e:	0d 0b       	sbc	r16, r29
 a30:	0c 0b       	sbc	r16, r28
 a32:	38 0a       	sbc	r3, r24
 a34:	00 00       	nop
 a36:	11 0d       	add	r17, r1
 a38:	00 03       	mulsu	r16, r16
 a3a:	0e 3a       	cpi	r16, 0xAE	; 174
 a3c:	0b 3b       	cpi	r16, 0xBB	; 187
 a3e:	05 49       	sbci	r16, 0x95	; 149
 a40:	13 00       	.word	0x0013	; ????
 a42:	00 12       	cpse	r0, r16
 a44:	2e 01       	movw	r4, r28
 a46:	03 0e       	add	r0, r19
 a48:	3a 0b       	sbc	r19, r26
 a4a:	3b 0b       	sbc	r19, r27
 a4c:	27 0c       	add	r2, r7
 a4e:	49 13       	cpse	r20, r25
 a50:	20 0b       	sbc	r18, r16
 a52:	01 13       	cpse	r16, r17
 a54:	00 00       	nop
 a56:	13 05       	cpc	r17, r3
 a58:	00 03       	mulsu	r16, r16
 a5a:	08 3a       	cpi	r16, 0xA8	; 168
 a5c:	0b 3b       	cpi	r16, 0xBB	; 187
 a5e:	0b 49       	sbci	r16, 0x9B	; 155
 a60:	13 00       	.word	0x0013	; ????
 a62:	00 14       	cp	r0, r0
 a64:	0f 00       	.word	0x000f	; ????
 a66:	0b 0b       	sbc	r16, r27
 a68:	49 13       	cpse	r20, r25
 a6a:	00 00       	nop
 a6c:	15 2e       	mov	r1, r21
 a6e:	01 3f       	cpi	r16, 0xF1	; 241
 a70:	0c 03       	fmul	r16, r20
 a72:	0e 3a       	cpi	r16, 0xAE	; 174
 a74:	0b 3b       	cpi	r16, 0xBB	; 187
 a76:	05 27       	eor	r16, r21
 a78:	0c 49       	sbci	r16, 0x9C	; 156
 a7a:	13 11       	cpse	r17, r3
 a7c:	01 12       	cpse	r0, r17
 a7e:	01 40       	sbci	r16, 0x01	; 1
 a80:	0a 01       	movw	r0, r20
 a82:	13 00       	.word	0x0013	; ????
 a84:	00 16       	cp	r0, r16
 a86:	05 00       	.word	0x0005	; ????
 a88:	03 0e       	add	r0, r19
 a8a:	3a 0b       	sbc	r19, r26
 a8c:	3b 05       	cpc	r19, r11
 a8e:	49 13       	cpse	r20, r25
 a90:	02 06       	cpc	r0, r18
 a92:	00 00       	nop
 a94:	17 34       	cpi	r17, 0x47	; 71
 a96:	00 03       	mulsu	r16, r16
 a98:	08 3a       	cpi	r16, 0xA8	; 168
 a9a:	0b 3b       	cpi	r16, 0xBB	; 187
 a9c:	05 49       	sbci	r16, 0x95	; 149
 a9e:	13 02       	muls	r17, r19
 aa0:	0a 00       	.word	0x000a	; ????
 aa2:	00 18       	sub	r0, r0
 aa4:	34 00       	.word	0x0034	; ????
 aa6:	03 08       	sbc	r0, r3
 aa8:	3a 0b       	sbc	r19, r26
 aaa:	3b 05       	cpc	r19, r11
 aac:	49 13       	cpse	r20, r25
 aae:	02 06       	cpc	r0, r18
 ab0:	00 00       	nop
 ab2:	19 1d       	adc	r17, r9
 ab4:	01 31       	cpi	r16, 0x11	; 17
 ab6:	13 11       	cpse	r17, r3
 ab8:	01 12       	cpse	r0, r17
 aba:	01 58       	subi	r16, 0x81	; 129
 abc:	0b 59       	subi	r16, 0x9B	; 155
 abe:	05 00       	.word	0x0005	; ????
 ac0:	00 1a       	sub	r0, r16
 ac2:	05 00       	.word	0x0005	; ????
 ac4:	31 13       	cpse	r19, r17
 ac6:	00 00       	nop
 ac8:	1b 34       	cpi	r17, 0x4B	; 75
 aca:	00 03       	mulsu	r16, r16
 acc:	0e 3a       	cpi	r16, 0xAE	; 174
 ace:	0b 3b       	cpi	r16, 0xBB	; 187
 ad0:	0b 49       	sbci	r16, 0x9B	; 155
 ad2:	13 3f       	cpi	r17, 0xF3	; 243
 ad4:	0c 3c       	cpi	r16, 0xCC	; 204
 ad6:	0c 00       	.word	0x000c	; ????
 ad8:	00 1c       	adc	r0, r0
 ada:	26 00       	.word	0x0026	; ????
 adc:	49 13       	cpse	r20, r25
 ade:	00 00       	nop
 ae0:	00 01       	movw	r0, r0
 ae2:	11 01       	movw	r2, r2
 ae4:	25 0e       	add	r2, r21
 ae6:	13 0b       	sbc	r17, r19
 ae8:	03 0e       	add	r0, r19
 aea:	1b 0e       	add	r1, r27
 aec:	11 01       	movw	r2, r2
 aee:	12 01       	movw	r2, r4
 af0:	10 06       	cpc	r1, r16
 af2:	00 00       	nop
 af4:	02 24       	eor	r0, r2
 af6:	00 0b       	sbc	r16, r16
 af8:	0b 3e       	cpi	r16, 0xEB	; 235
 afa:	0b 03       	fmul	r16, r19
 afc:	0e 00       	.word	0x000e	; ????
 afe:	00 03       	mulsu	r16, r16
 b00:	24 00       	.word	0x0024	; ????
 b02:	0b 0b       	sbc	r16, r27
 b04:	3e 0b       	sbc	r19, r30
 b06:	03 08       	sbc	r0, r3
 b08:	00 00       	nop
 b0a:	04 16       	cp	r0, r20
 b0c:	00 03       	mulsu	r16, r16
 b0e:	0e 3a       	cpi	r16, 0xAE	; 174
 b10:	0b 3b       	cpi	r16, 0xBB	; 187
 b12:	0b 49       	sbci	r16, 0x9B	; 155
 b14:	13 00       	.word	0x0013	; ????
 b16:	00 05       	cpc	r16, r0
 b18:	17 01       	movw	r2, r14
 b1a:	0b 0b       	sbc	r16, r27
 b1c:	3a 0b       	sbc	r19, r26
 b1e:	3b 05       	cpc	r19, r11
 b20:	01 13       	cpse	r16, r17
 b22:	00 00       	nop
 b24:	06 0d       	add	r16, r6
 b26:	00 03       	mulsu	r16, r16
 b28:	08 3a       	cpi	r16, 0xA8	; 168
 b2a:	0b 3b       	cpi	r16, 0xBB	; 187
 b2c:	05 49       	sbci	r16, 0x95	; 149
 b2e:	13 00       	.word	0x0013	; ????
 b30:	00 07       	cpc	r16, r16
 b32:	01 01       	movw	r0, r2
 b34:	49 13       	cpse	r20, r25
 b36:	01 13       	cpse	r16, r17
 b38:	00 00       	nop
 b3a:	08 21       	and	r16, r8
 b3c:	00 49       	sbci	r16, 0x90	; 144
 b3e:	13 2f       	mov	r17, r19
 b40:	0b 00       	.word	0x000b	; ????
 b42:	00 09       	sbc	r16, r0
 b44:	24 00       	.word	0x0024	; ????
 b46:	0b 0b       	sbc	r16, r27
 b48:	3e 0b       	sbc	r19, r30
 b4a:	00 00       	nop
 b4c:	0a 13       	cpse	r16, r26
 b4e:	01 0b       	sbc	r16, r17
 b50:	0b 3a       	cpi	r16, 0xAB	; 171
 b52:	0b 3b       	cpi	r16, 0xBB	; 187
 b54:	05 01       	movw	r0, r10
 b56:	13 00       	.word	0x0013	; ????
 b58:	00 0b       	sbc	r16, r16
 b5a:	0d 00       	.word	0x000d	; ????
 b5c:	03 0e       	add	r0, r19
 b5e:	3a 0b       	sbc	r19, r26
 b60:	3b 05       	cpc	r19, r11
 b62:	49 13       	cpse	r20, r25
 b64:	38 0a       	sbc	r3, r24
 b66:	00 00       	nop
 b68:	0c 16       	cp	r0, r28
 b6a:	00 03       	mulsu	r16, r16
 b6c:	0e 3a       	cpi	r16, 0xAE	; 174
 b6e:	0b 3b       	cpi	r16, 0xBB	; 187
 b70:	05 49       	sbci	r16, 0x95	; 149
 b72:	13 00       	.word	0x0013	; ????
 b74:	00 0d       	add	r16, r0
 b76:	34 00       	.word	0x0034	; ????
 b78:	03 0e       	add	r0, r19
 b7a:	3a 0b       	sbc	r19, r26
 b7c:	3b 0b       	sbc	r19, r27
 b7e:	49 13       	cpse	r20, r25
 b80:	3f 0c       	add	r3, r15
 b82:	02 0a       	sbc	r0, r18
 b84:	00 00       	nop
 b86:	0e 26       	eor	r0, r30
 b88:	00 49       	sbci	r16, 0x90	; 144
 b8a:	13 00       	.word	0x0013	; ????
 b8c:	00 00       	nop
 b8e:	01 11       	cpse	r16, r1
 b90:	01 25       	eor	r16, r1
 b92:	0e 13       	cpse	r16, r30
 b94:	0b 03       	fmul	r16, r19
 b96:	0e 1b       	sub	r16, r30
 b98:	0e 11       	cpse	r16, r14
 b9a:	01 12       	cpse	r0, r17
 b9c:	01 10       	cpse	r0, r1
 b9e:	06 00       	.word	0x0006	; ????
 ba0:	00 02       	muls	r16, r16
 ba2:	24 00       	.word	0x0024	; ????
 ba4:	0b 0b       	sbc	r16, r27
 ba6:	3e 0b       	sbc	r19, r30
 ba8:	03 0e       	add	r0, r19
 baa:	00 00       	nop
 bac:	03 24       	eor	r0, r3
 bae:	00 0b       	sbc	r16, r16
 bb0:	0b 3e       	cpi	r16, 0xEB	; 235
 bb2:	0b 03       	fmul	r16, r19
 bb4:	08 00       	.word	0x0008	; ????
 bb6:	00 04       	cpc	r0, r0
 bb8:	16 00       	.word	0x0016	; ????
 bba:	03 0e       	add	r0, r19
 bbc:	3a 0b       	sbc	r19, r26
 bbe:	3b 0b       	sbc	r19, r27
 bc0:	49 13       	cpse	r20, r25
 bc2:	00 00       	nop
 bc4:	05 04       	cpc	r0, r5
 bc6:	01 0b       	sbc	r16, r17
 bc8:	0b 3a       	cpi	r16, 0xAB	; 171
 bca:	0b 3b       	cpi	r16, 0xBB	; 187
 bcc:	05 01       	movw	r0, r10
 bce:	13 00       	.word	0x0013	; ????
 bd0:	00 06       	cpc	r0, r16
 bd2:	28 00       	.word	0x0028	; ????
 bd4:	03 0e       	add	r0, r19
 bd6:	1c 0d       	add	r17, r12
 bd8:	00 00       	nop
 bda:	07 17       	cp	r16, r23
 bdc:	01 0b       	sbc	r16, r17
 bde:	0b 3a       	cpi	r16, 0xAB	; 171
 be0:	0b 3b       	cpi	r16, 0xBB	; 187
 be2:	05 01       	movw	r0, r10
 be4:	13 00       	.word	0x0013	; ????
 be6:	00 08       	sbc	r0, r0
 be8:	0d 00       	.word	0x000d	; ????
 bea:	03 08       	sbc	r0, r3
 bec:	3a 0b       	sbc	r19, r26
 bee:	3b 05       	cpc	r19, r11
 bf0:	49 13       	cpse	r20, r25
 bf2:	00 00       	nop
 bf4:	09 01       	movw	r0, r18
 bf6:	01 49       	sbci	r16, 0x91	; 145
 bf8:	13 01       	movw	r2, r6
 bfa:	13 00       	.word	0x0013	; ????
 bfc:	00 0a       	sbc	r0, r16
 bfe:	21 00       	.word	0x0021	; ????
 c00:	49 13       	cpse	r20, r25
 c02:	2f 0b       	sbc	r18, r31
 c04:	00 00       	nop
 c06:	0b 24       	eor	r0, r11
 c08:	00 0b       	sbc	r16, r16
 c0a:	0b 3e       	cpi	r16, 0xEB	; 235
 c0c:	0b 00       	.word	0x000b	; ????
 c0e:	00 0c       	add	r0, r0
 c10:	13 01       	movw	r2, r6
 c12:	0b 0b       	sbc	r16, r27
 c14:	3a 0b       	sbc	r19, r26
 c16:	3b 05       	cpc	r19, r11
 c18:	01 13       	cpse	r16, r17
 c1a:	00 00       	nop
 c1c:	0d 0d       	add	r16, r13
 c1e:	00 03       	mulsu	r16, r16
 c20:	0e 3a       	cpi	r16, 0xAE	; 174
 c22:	0b 3b       	cpi	r16, 0xBB	; 187
 c24:	05 49       	sbci	r16, 0x95	; 149
 c26:	13 38       	cpi	r17, 0x83	; 131
 c28:	0a 00       	.word	0x000a	; ????
 c2a:	00 0e       	add	r0, r16
 c2c:	16 00       	.word	0x0016	; ????
 c2e:	03 0e       	add	r0, r19
 c30:	3a 0b       	sbc	r19, r26
 c32:	3b 05       	cpc	r19, r11
 c34:	49 13       	cpse	r20, r25
 c36:	00 00       	nop
 c38:	0f 0d       	add	r16, r15
 c3a:	00 03       	mulsu	r16, r16
 c3c:	0e 3a       	cpi	r16, 0xAE	; 174
 c3e:	0b 3b       	cpi	r16, 0xBB	; 187
 c40:	05 49       	sbci	r16, 0x95	; 149
 c42:	13 0b       	sbc	r17, r19
 c44:	0b 0d       	add	r16, r11
 c46:	0b 0c       	add	r0, r11
 c48:	0b 38       	cpi	r16, 0x8B	; 139
 c4a:	0a 00       	.word	0x000a	; ????
 c4c:	00 10       	cpse	r0, r0
 c4e:	0d 00       	.word	0x000d	; ????
 c50:	03 08       	sbc	r0, r3
 c52:	3a 0b       	sbc	r19, r26
 c54:	3b 05       	cpc	r19, r11
 c56:	49 13       	cpse	r20, r25
 c58:	0b 0b       	sbc	r16, r27
 c5a:	0d 0b       	sbc	r16, r29
 c5c:	0c 0b       	sbc	r16, r28
 c5e:	38 0a       	sbc	r3, r24
 c60:	00 00       	nop
 c62:	11 0d       	add	r17, r1
 c64:	00 03       	mulsu	r16, r16
 c66:	0e 3a       	cpi	r16, 0xAE	; 174
 c68:	0b 3b       	cpi	r16, 0xBB	; 187
 c6a:	05 49       	sbci	r16, 0x95	; 149
 c6c:	13 00       	.word	0x0013	; ????
 c6e:	00 12       	cpse	r0, r16
 c70:	2e 01       	movw	r4, r28
 c72:	03 0e       	add	r0, r19
 c74:	3a 0b       	sbc	r19, r26
 c76:	3b 0b       	sbc	r19, r27
 c78:	27 0c       	add	r2, r7
 c7a:	49 13       	cpse	r20, r25
 c7c:	20 0b       	sbc	r18, r16
 c7e:	01 13       	cpse	r16, r17
 c80:	00 00       	nop
 c82:	13 05       	cpc	r17, r3
 c84:	00 03       	mulsu	r16, r16
 c86:	08 3a       	cpi	r16, 0xA8	; 168
 c88:	0b 3b       	cpi	r16, 0xBB	; 187
 c8a:	0b 49       	sbci	r16, 0x9B	; 155
 c8c:	13 00       	.word	0x0013	; ????
 c8e:	00 14       	cp	r0, r0
 c90:	0f 00       	.word	0x000f	; ????
 c92:	0b 0b       	sbc	r16, r27
 c94:	49 13       	cpse	r20, r25
 c96:	00 00       	nop
 c98:	15 2e       	mov	r1, r21
 c9a:	01 3f       	cpi	r16, 0xF1	; 241
 c9c:	0c 03       	fmul	r16, r20
 c9e:	0e 3a       	cpi	r16, 0xAE	; 174
 ca0:	0b 3b       	cpi	r16, 0xBB	; 187
 ca2:	0b 27       	eor	r16, r27
 ca4:	0c 49       	sbci	r16, 0x9C	; 156
 ca6:	13 11       	cpse	r17, r3
 ca8:	01 12       	cpse	r0, r17
 caa:	01 40       	sbci	r16, 0x01	; 1
 cac:	0a 01       	movw	r0, r20
 cae:	13 00       	.word	0x0013	; ????
 cb0:	00 16       	cp	r0, r16
 cb2:	05 00       	.word	0x0005	; ????
 cb4:	03 08       	sbc	r0, r3
 cb6:	3a 0b       	sbc	r19, r26
 cb8:	3b 0b       	sbc	r19, r27
 cba:	49 13       	cpse	r20, r25
 cbc:	02 06       	cpc	r0, r18
 cbe:	00 00       	nop
 cc0:	17 34       	cpi	r17, 0x47	; 71
 cc2:	00 03       	mulsu	r16, r16
 cc4:	08 3a       	cpi	r16, 0xA8	; 168
 cc6:	0b 3b       	cpi	r16, 0xBB	; 187
 cc8:	0b 49       	sbci	r16, 0x9B	; 155
 cca:	13 00       	.word	0x0013	; ????
 ccc:	00 18       	sub	r0, r0
 cce:	34 00       	.word	0x0034	; ????
 cd0:	03 0e       	add	r0, r19
 cd2:	3a 0b       	sbc	r19, r26
 cd4:	3b 0b       	sbc	r19, r27
 cd6:	49 13       	cpse	r20, r25
 cd8:	02 06       	cpc	r0, r18
 cda:	00 00       	nop
 cdc:	19 34       	cpi	r17, 0x49	; 73
 cde:	00 03       	mulsu	r16, r16
 ce0:	0e 3a       	cpi	r16, 0xAE	; 174
 ce2:	0b 3b       	cpi	r16, 0xBB	; 187
 ce4:	0b 49       	sbci	r16, 0x9B	; 155
 ce6:	13 00       	.word	0x0013	; ????
 ce8:	00 1a       	sub	r0, r16
 cea:	34 00       	.word	0x0034	; ????
 cec:	03 08       	sbc	r0, r3
 cee:	3a 0b       	sbc	r19, r26
 cf0:	3b 0b       	sbc	r19, r27
 cf2:	49 13       	cpse	r20, r25
 cf4:	02 06       	cpc	r0, r18
 cf6:	00 00       	nop
 cf8:	1b 1d       	adc	r17, r11
 cfa:	01 31       	cpi	r16, 0x11	; 17
 cfc:	13 11       	cpse	r17, r3
 cfe:	01 12       	cpse	r0, r17
 d00:	01 58       	subi	r16, 0x81	; 129
 d02:	0b 59       	subi	r16, 0x9B	; 155
 d04:	0b 01       	movw	r0, r22
 d06:	13 00       	.word	0x0013	; ????
 d08:	00 1c       	adc	r0, r0
 d0a:	05 00       	.word	0x0005	; ????
 d0c:	31 13       	cpse	r19, r17
 d0e:	00 00       	nop
 d10:	1d 0b       	sbc	r17, r29
 d12:	01 11       	cpse	r16, r1
 d14:	01 12       	cpse	r0, r17
 d16:	01 00       	.word	0x0001	; ????
 d18:	00 1e       	adc	r0, r16
 d1a:	34 00       	.word	0x0034	; ????
 d1c:	03 0e       	add	r0, r19
 d1e:	3a 0b       	sbc	r19, r26
 d20:	3b 05       	cpc	r19, r11
 d22:	49 13       	cpse	r20, r25
 d24:	02 06       	cpc	r0, r18
 d26:	00 00       	nop
 d28:	1f 34       	cpi	r17, 0x4F	; 79
 d2a:	00 03       	mulsu	r16, r16
 d2c:	0e 3a       	cpi	r16, 0xAE	; 174
 d2e:	0b 3b       	cpi	r16, 0xBB	; 187
 d30:	05 49       	sbci	r16, 0x95	; 149
 d32:	13 00       	.word	0x0013	; ????
 d34:	00 20       	and	r0, r0
 d36:	34 00       	.word	0x0034	; ????
 d38:	03 0e       	add	r0, r19
 d3a:	3a 0b       	sbc	r19, r26
 d3c:	3b 0b       	sbc	r19, r27
 d3e:	49 13       	cpse	r20, r25
 d40:	3f 0c       	add	r3, r15
 d42:	3c 0c       	add	r3, r12
 d44:	00 00       	nop
 d46:	21 26       	eor	r2, r17
 d48:	00 49       	sbci	r16, 0x90	; 144
 d4a:	13 00       	.word	0x0013	; ????
 d4c:	00 00       	nop
 d4e:	01 11       	cpse	r16, r1
 d50:	01 25       	eor	r16, r1
 d52:	0e 13       	cpse	r16, r30
 d54:	0b 03       	fmul	r16, r19
 d56:	0e 1b       	sub	r16, r30
 d58:	0e 11       	cpse	r16, r14
 d5a:	01 12       	cpse	r0, r17
 d5c:	01 10       	cpse	r0, r1
 d5e:	06 00       	.word	0x0006	; ????
 d60:	00 02       	muls	r16, r16
 d62:	24 00       	.word	0x0024	; ????
 d64:	0b 0b       	sbc	r16, r27
 d66:	3e 0b       	sbc	r19, r30
 d68:	03 0e       	add	r0, r19
 d6a:	00 00       	nop
 d6c:	03 24       	eor	r0, r3
 d6e:	00 0b       	sbc	r16, r16
 d70:	0b 3e       	cpi	r16, 0xEB	; 235
 d72:	0b 03       	fmul	r16, r19
 d74:	08 00       	.word	0x0008	; ????
 d76:	00 04       	cpc	r0, r0
 d78:	16 00       	.word	0x0016	; ????
 d7a:	03 0e       	add	r0, r19
 d7c:	3a 0b       	sbc	r19, r26
 d7e:	3b 0b       	sbc	r19, r27
 d80:	49 13       	cpse	r20, r25
 d82:	00 00       	nop
 d84:	05 04       	cpc	r0, r5
 d86:	01 0b       	sbc	r16, r17
 d88:	0b 3a       	cpi	r16, 0xAB	; 171
 d8a:	0b 3b       	cpi	r16, 0xBB	; 187
 d8c:	05 01       	movw	r0, r10
 d8e:	13 00       	.word	0x0013	; ????
 d90:	00 06       	cpc	r0, r16
 d92:	28 00       	.word	0x0028	; ????
 d94:	03 0e       	add	r0, r19
 d96:	1c 0d       	add	r17, r12
 d98:	00 00       	nop
 d9a:	07 17       	cp	r16, r23
 d9c:	01 0b       	sbc	r16, r17
 d9e:	0b 3a       	cpi	r16, 0xAB	; 171
 da0:	0b 3b       	cpi	r16, 0xBB	; 187
 da2:	05 01       	movw	r0, r10
 da4:	13 00       	.word	0x0013	; ????
 da6:	00 08       	sbc	r0, r0
 da8:	0d 00       	.word	0x000d	; ????
 daa:	03 08       	sbc	r0, r3
 dac:	3a 0b       	sbc	r19, r26
 dae:	3b 05       	cpc	r19, r11
 db0:	49 13       	cpse	r20, r25
 db2:	00 00       	nop
 db4:	09 01       	movw	r0, r18
 db6:	01 49       	sbci	r16, 0x91	; 145
 db8:	13 01       	movw	r2, r6
 dba:	13 00       	.word	0x0013	; ????
 dbc:	00 0a       	sbc	r0, r16
 dbe:	21 00       	.word	0x0021	; ????
 dc0:	49 13       	cpse	r20, r25
 dc2:	2f 0b       	sbc	r18, r31
 dc4:	00 00       	nop
 dc6:	0b 24       	eor	r0, r11
 dc8:	00 0b       	sbc	r16, r16
 dca:	0b 3e       	cpi	r16, 0xEB	; 235
 dcc:	0b 00       	.word	0x000b	; ????
 dce:	00 0c       	add	r0, r0
 dd0:	13 01       	movw	r2, r6
 dd2:	0b 0b       	sbc	r16, r27
 dd4:	3a 0b       	sbc	r19, r26
 dd6:	3b 05       	cpc	r19, r11
 dd8:	01 13       	cpse	r16, r17
 dda:	00 00       	nop
 ddc:	0d 0d       	add	r16, r13
 dde:	00 03       	mulsu	r16, r16
 de0:	0e 3a       	cpi	r16, 0xAE	; 174
 de2:	0b 3b       	cpi	r16, 0xBB	; 187
 de4:	05 49       	sbci	r16, 0x95	; 149
 de6:	13 38       	cpi	r17, 0x83	; 131
 de8:	0a 00       	.word	0x000a	; ????
 dea:	00 0e       	add	r0, r16
 dec:	16 00       	.word	0x0016	; ????
 dee:	03 0e       	add	r0, r19
 df0:	3a 0b       	sbc	r19, r26
 df2:	3b 05       	cpc	r19, r11
 df4:	49 13       	cpse	r20, r25
 df6:	00 00       	nop
 df8:	0f 0d       	add	r16, r15
 dfa:	00 03       	mulsu	r16, r16
 dfc:	0e 3a       	cpi	r16, 0xAE	; 174
 dfe:	0b 3b       	cpi	r16, 0xBB	; 187
 e00:	05 49       	sbci	r16, 0x95	; 149
 e02:	13 0b       	sbc	r17, r19
 e04:	0b 0d       	add	r16, r11
 e06:	0b 0c       	add	r0, r11
 e08:	0b 38       	cpi	r16, 0x8B	; 139
 e0a:	0a 00       	.word	0x000a	; ????
 e0c:	00 10       	cpse	r0, r0
 e0e:	0d 00       	.word	0x000d	; ????
 e10:	03 08       	sbc	r0, r3
 e12:	3a 0b       	sbc	r19, r26
 e14:	3b 05       	cpc	r19, r11
 e16:	49 13       	cpse	r20, r25
 e18:	0b 0b       	sbc	r16, r27
 e1a:	0d 0b       	sbc	r16, r29
 e1c:	0c 0b       	sbc	r16, r28
 e1e:	38 0a       	sbc	r3, r24
 e20:	00 00       	nop
 e22:	11 0d       	add	r17, r1
 e24:	00 03       	mulsu	r16, r16
 e26:	0e 3a       	cpi	r16, 0xAE	; 174
 e28:	0b 3b       	cpi	r16, 0xBB	; 187
 e2a:	05 49       	sbci	r16, 0x95	; 149
 e2c:	13 00       	.word	0x0013	; ????
 e2e:	00 12       	cpse	r0, r16
 e30:	2e 01       	movw	r4, r28
 e32:	3f 0c       	add	r3, r15
 e34:	03 0e       	add	r0, r19
 e36:	3a 0b       	sbc	r19, r26
 e38:	3b 05       	cpc	r19, r11
 e3a:	27 0c       	add	r2, r7
 e3c:	11 01       	movw	r2, r2
 e3e:	12 01       	movw	r2, r4
 e40:	40 0a       	sbc	r4, r16
 e42:	01 13       	cpse	r16, r17
 e44:	00 00       	nop
 e46:	13 05       	cpc	r17, r3
 e48:	00 03       	mulsu	r16, r16
 e4a:	08 3a       	cpi	r16, 0xA8	; 168
 e4c:	0b 3b       	cpi	r16, 0xBB	; 187
 e4e:	05 49       	sbci	r16, 0x95	; 149
 e50:	13 02       	muls	r17, r19
 e52:	06 00       	.word	0x0006	; ????
 e54:	00 14       	cp	r0, r0
 e56:	34 00       	.word	0x0034	; ????
 e58:	03 0e       	add	r0, r19
 e5a:	3a 0b       	sbc	r19, r26
 e5c:	3b 05       	cpc	r19, r11
 e5e:	49 13       	cpse	r20, r25
 e60:	02 06       	cpc	r0, r18
 e62:	00 00       	nop
 e64:	15 34       	cpi	r17, 0x45	; 69
 e66:	00 03       	mulsu	r16, r16
 e68:	08 3a       	cpi	r16, 0xA8	; 168
 e6a:	0b 3b       	cpi	r16, 0xBB	; 187
 e6c:	05 49       	sbci	r16, 0x95	; 149
 e6e:	13 02       	muls	r17, r19
 e70:	06 00       	.word	0x0006	; ????
 e72:	00 16       	cp	r0, r16
 e74:	34 00       	.word	0x0034	; ????
 e76:	03 0e       	add	r0, r19
 e78:	3a 0b       	sbc	r19, r26
 e7a:	3b 05       	cpc	r19, r11
 e7c:	49 13       	cpse	r20, r25
 e7e:	00 00       	nop
 e80:	17 0f       	add	r17, r23
 e82:	00 0b       	sbc	r16, r16
 e84:	0b 49       	sbci	r16, 0x9B	; 155
 e86:	13 00       	.word	0x0013	; ????
 e88:	00 18       	sub	r0, r0
 e8a:	34 00       	.word	0x0034	; ????
 e8c:	03 0e       	add	r0, r19
 e8e:	3a 0b       	sbc	r19, r26
 e90:	3b 0b       	sbc	r19, r27
 e92:	49 13       	cpse	r20, r25
 e94:	3f 0c       	add	r3, r15
 e96:	3c 0c       	add	r3, r12
 e98:	00 00       	nop
 e9a:	19 26       	eor	r1, r25
 e9c:	00 49       	sbci	r16, 0x90	; 144
 e9e:	13 00       	.word	0x0013	; ????
 ea0:	00 00       	nop
 ea2:	01 11       	cpse	r16, r1
 ea4:	01 25       	eor	r16, r1
 ea6:	0e 13       	cpse	r16, r30
 ea8:	0b 03       	fmul	r16, r19
 eaa:	0e 1b       	sub	r16, r30
 eac:	0e 11       	cpse	r16, r14
 eae:	01 12       	cpse	r0, r17
 eb0:	01 10       	cpse	r0, r1
 eb2:	06 00       	.word	0x0006	; ????
 eb4:	00 02       	muls	r16, r16
 eb6:	24 00       	.word	0x0024	; ????
 eb8:	0b 0b       	sbc	r16, r27
 eba:	3e 0b       	sbc	r19, r30
 ebc:	03 0e       	add	r0, r19
 ebe:	00 00       	nop
 ec0:	03 24       	eor	r0, r3
 ec2:	00 0b       	sbc	r16, r16
 ec4:	0b 3e       	cpi	r16, 0xEB	; 235
 ec6:	0b 03       	fmul	r16, r19
 ec8:	08 00       	.word	0x0008	; ????
 eca:	00 04       	cpc	r0, r0
 ecc:	16 00       	.word	0x0016	; ????
 ece:	03 0e       	add	r0, r19
 ed0:	3a 0b       	sbc	r19, r26
 ed2:	3b 0b       	sbc	r19, r27
 ed4:	49 13       	cpse	r20, r25
 ed6:	00 00       	nop
 ed8:	05 04       	cpc	r0, r5
 eda:	01 0b       	sbc	r16, r17
 edc:	0b 3a       	cpi	r16, 0xAB	; 171
 ede:	0b 3b       	cpi	r16, 0xBB	; 187
 ee0:	05 01       	movw	r0, r10
 ee2:	13 00       	.word	0x0013	; ????
 ee4:	00 06       	cpc	r0, r16
 ee6:	28 00       	.word	0x0028	; ????
 ee8:	03 0e       	add	r0, r19
 eea:	1c 0d       	add	r17, r12
 eec:	00 00       	nop
 eee:	07 17       	cp	r16, r23
 ef0:	01 0b       	sbc	r16, r17
 ef2:	0b 3a       	cpi	r16, 0xAB	; 171
 ef4:	0b 3b       	cpi	r16, 0xBB	; 187
 ef6:	05 01       	movw	r0, r10
 ef8:	13 00       	.word	0x0013	; ????
 efa:	00 08       	sbc	r0, r0
 efc:	0d 00       	.word	0x000d	; ????
 efe:	03 08       	sbc	r0, r3
 f00:	3a 0b       	sbc	r19, r26
 f02:	3b 05       	cpc	r19, r11
 f04:	49 13       	cpse	r20, r25
 f06:	00 00       	nop
 f08:	09 01       	movw	r0, r18
 f0a:	01 49       	sbci	r16, 0x91	; 145
 f0c:	13 01       	movw	r2, r6
 f0e:	13 00       	.word	0x0013	; ????
 f10:	00 0a       	sbc	r0, r16
 f12:	21 00       	.word	0x0021	; ????
 f14:	49 13       	cpse	r20, r25
 f16:	2f 0b       	sbc	r18, r31
 f18:	00 00       	nop
 f1a:	0b 24       	eor	r0, r11
 f1c:	00 0b       	sbc	r16, r16
 f1e:	0b 3e       	cpi	r16, 0xEB	; 235
 f20:	0b 00       	.word	0x000b	; ????
 f22:	00 0c       	add	r0, r0
 f24:	13 01       	movw	r2, r6
 f26:	0b 0b       	sbc	r16, r27
 f28:	3a 0b       	sbc	r19, r26
 f2a:	3b 05       	cpc	r19, r11
 f2c:	01 13       	cpse	r16, r17
 f2e:	00 00       	nop
 f30:	0d 0d       	add	r16, r13
 f32:	00 03       	mulsu	r16, r16
 f34:	0e 3a       	cpi	r16, 0xAE	; 174
 f36:	0b 3b       	cpi	r16, 0xBB	; 187
 f38:	05 49       	sbci	r16, 0x95	; 149
 f3a:	13 38       	cpi	r17, 0x83	; 131
 f3c:	0a 00       	.word	0x000a	; ????
 f3e:	00 0e       	add	r0, r16
 f40:	16 00       	.word	0x0016	; ????
 f42:	03 0e       	add	r0, r19
 f44:	3a 0b       	sbc	r19, r26
 f46:	3b 05       	cpc	r19, r11
 f48:	49 13       	cpse	r20, r25
 f4a:	00 00       	nop
 f4c:	0f 2e       	mov	r0, r31
 f4e:	01 03       	mulsu	r16, r17
 f50:	0e 3a       	cpi	r16, 0xAE	; 174
 f52:	0b 3b       	cpi	r16, 0xBB	; 187
 f54:	0b 27       	eor	r16, r27
 f56:	0c 49       	sbci	r16, 0x9C	; 156
 f58:	13 20       	and	r1, r3
 f5a:	0b 01       	movw	r0, r22
 f5c:	13 00       	.word	0x0013	; ????
 f5e:	00 10       	cpse	r0, r0
 f60:	05 00       	.word	0x0005	; ????
 f62:	03 08       	sbc	r0, r3
 f64:	3a 0b       	sbc	r19, r26
 f66:	3b 0b       	sbc	r19, r27
 f68:	49 13       	cpse	r20, r25
 f6a:	00 00       	nop
 f6c:	11 0f       	add	r17, r17
 f6e:	00 0b       	sbc	r16, r16
 f70:	0b 49       	sbci	r16, 0x9B	; 155
 f72:	13 00       	.word	0x0013	; ????
 f74:	00 12       	cpse	r0, r16
 f76:	2e 01       	movw	r4, r28
 f78:	3f 0c       	add	r3, r15
 f7a:	03 0e       	add	r0, r19
 f7c:	3a 0b       	sbc	r19, r26
 f7e:	3b 05       	cpc	r19, r11
 f80:	27 0c       	add	r2, r7
 f82:	49 13       	cpse	r20, r25
 f84:	11 01       	movw	r2, r2
 f86:	12 01       	movw	r2, r4
 f88:	40 0a       	sbc	r4, r16
 f8a:	01 13       	cpse	r16, r17
 f8c:	00 00       	nop
 f8e:	13 05       	cpc	r17, r3
 f90:	00 03       	mulsu	r16, r16
 f92:	08 3a       	cpi	r16, 0xA8	; 168
 f94:	0b 3b       	cpi	r16, 0xBB	; 187
 f96:	05 49       	sbci	r16, 0x95	; 149
 f98:	13 02       	muls	r17, r19
 f9a:	06 00       	.word	0x0006	; ????
 f9c:	00 14       	cp	r0, r0
 f9e:	1d 01       	movw	r2, r26
 fa0:	31 13       	cpse	r19, r17
 fa2:	11 01       	movw	r2, r2
 fa4:	12 01       	movw	r2, r4
 fa6:	58 0b       	sbc	r21, r24
 fa8:	59 05       	cpc	r21, r9
 faa:	01 13       	cpse	r16, r17
 fac:	00 00       	nop
 fae:	15 05       	cpc	r17, r5
 fb0:	00 31       	cpi	r16, 0x10	; 16
 fb2:	13 00       	.word	0x0013	; ????
 fb4:	00 16       	cp	r0, r16
 fb6:	1d 01       	movw	r2, r26
 fb8:	31 13       	cpse	r19, r17
 fba:	11 01       	movw	r2, r2
 fbc:	12 01       	movw	r2, r4
 fbe:	58 0b       	sbc	r21, r24
 fc0:	59 05       	cpc	r21, r9
 fc2:	00 00       	nop
 fc4:	17 34       	cpi	r17, 0x47	; 71
 fc6:	00 03       	mulsu	r16, r16
 fc8:	0e 3a       	cpi	r16, 0xAE	; 174
 fca:	0b 3b       	cpi	r16, 0xBB	; 187
 fcc:	0b 49       	sbci	r16, 0x9B	; 155
 fce:	13 3f       	cpi	r17, 0xF3	; 243
 fd0:	0c 3c       	cpi	r16, 0xCC	; 204
 fd2:	0c 00       	.word	0x000c	; ????
 fd4:	00 18       	sub	r0, r0
 fd6:	26 00       	.word	0x0026	; ????
 fd8:	49 13       	cpse	r20, r25
 fda:	00 00       	nop
	...

Disassembly of section .debug_line:

00000000 <.debug_line>:
       0:	74 02       	muls	r23, r20
       2:	00 00       	nop
       4:	02 00       	.word	0x0002	; ????
       6:	96 01       	movw	r18, r12
       8:	00 00       	nop
       a:	01 01       	movw	r0, r2
       c:	f6 f5       	brtc	.+124    	; 0x8a <__fixunssfsi+0x8>
       e:	0a 00       	.word	0x000a	; ????
      10:	01 01       	movw	r0, r2
      12:	01 01       	movw	r0, r2
      14:	00 00       	nop
      16:	00 01       	movw	r0, r0
      18:	2e 2e       	mov	r2, r30
      1a:	00 2e       	mov	r0, r16
      1c:	2e 2f       	mov	r18, r30
      1e:	55 53       	subi	r21, 0x35	; 53
      20:	41 52       	subi	r20, 0x21	; 33
      22:	54 00       	.word	0x0054	; ????
      24:	63 3a       	cpi	r22, 0xA3	; 163
      26:	2f 77       	andi	r18, 0x7F	; 127
      28:	69 6e       	ori	r22, 0xE9	; 233
      2a:	61 76       	andi	r22, 0x61	; 97
      2c:	72 2d       	mov	r23, r2
      2e:	32 30       	cpi	r19, 0x02	; 2
      30:	31 30       	cpi	r19, 0x01	; 1
      32:	30 31       	cpi	r19, 0x10	; 16
      34:	31 30       	cpi	r19, 0x01	; 1
      36:	2f 6c       	ori	r18, 0xCF	; 207
      38:	69 62       	ori	r22, 0x29	; 41
      3a:	2f 67       	ori	r18, 0x7F	; 127
      3c:	63 63       	ori	r22, 0x33	; 51
      3e:	2f 2e       	mov	r2, r31
      40:	2e 2f       	mov	r18, r30
      42:	2e 2e       	mov	r2, r30
      44:	2f 61       	ori	r18, 0x1F	; 31
      46:	76 72       	andi	r23, 0x26	; 38
      48:	2f 69       	ori	r18, 0x9F	; 159
      4a:	6e 63       	ori	r22, 0x3E	; 62
      4c:	6c 75       	andi	r22, 0x5C	; 92
      4e:	64 65       	ori	r22, 0x54	; 84
      50:	00 63       	ori	r16, 0x30	; 48
      52:	3a 2f       	mov	r19, r26
      54:	77 69       	ori	r23, 0x97	; 151
      56:	6e 61       	ori	r22, 0x1E	; 30
      58:	76 72       	andi	r23, 0x26	; 38
      5a:	2d 32       	cpi	r18, 0x2D	; 45
      5c:	30 31       	cpi	r19, 0x10	; 16
      5e:	30 30       	cpi	r19, 0x00	; 0
      60:	31 31       	cpi	r19, 0x11	; 17
      62:	30 2f       	mov	r19, r16
      64:	6c 69       	ori	r22, 0x9C	; 156
      66:	62 2f       	mov	r22, r18
      68:	67 63       	ori	r22, 0x37	; 55
      6a:	63 2f       	mov	r22, r19
      6c:	2e 2e       	mov	r2, r30
      6e:	2f 2e       	mov	r2, r31
      70:	2e 2f       	mov	r18, r30
      72:	61 76       	andi	r22, 0x61	; 97
      74:	72 2f       	mov	r23, r18
      76:	69 6e       	ori	r22, 0xE9	; 233
      78:	63 6c       	ori	r22, 0xC3	; 195
      7a:	75 64       	ori	r23, 0x45	; 69
      7c:	65 2f       	mov	r22, r21
      7e:	61 76       	andi	r22, 0x61	; 97
      80:	72 00       	.word	0x0072	; ????
      82:	63 3a       	cpi	r22, 0xA3	; 163
      84:	2f 77       	andi	r18, 0x7F	; 127
      86:	69 6e       	ori	r22, 0xE9	; 233
      88:	61 76       	andi	r22, 0x61	; 97
      8a:	72 2d       	mov	r23, r2
      8c:	32 30       	cpi	r19, 0x02	; 2
      8e:	31 30       	cpi	r19, 0x01	; 1
      90:	30 31       	cpi	r19, 0x10	; 16
      92:	31 30       	cpi	r19, 0x01	; 1
      94:	2f 6c       	ori	r18, 0xCF	; 207
      96:	69 62       	ori	r22, 0x29	; 41
      98:	2f 67       	ori	r18, 0x7F	; 127
      9a:	63 63       	ori	r22, 0x33	; 51
      9c:	2f 2e       	mov	r2, r31
      9e:	2e 2f       	mov	r18, r30
      a0:	2e 2e       	mov	r2, r30
      a2:	2f 61       	ori	r18, 0x1F	; 31
      a4:	76 72       	andi	r23, 0x26	; 38
      a6:	2f 69       	ori	r18, 0x9F	; 159
      a8:	6e 63       	ori	r22, 0x3E	; 62
      aa:	6c 75       	andi	r22, 0x5C	; 92
      ac:	64 65       	ori	r22, 0x54	; 84
      ae:	2f 75       	andi	r18, 0x5F	; 95
      b0:	74 69       	ori	r23, 0x94	; 148
      b2:	6c 00       	.word	0x006c	; ????
      b4:	00 6d       	ori	r16, 0xD0	; 208
      b6:	61 69       	ori	r22, 0x91	; 145
      b8:	6e 2e       	mov	r6, r30
      ba:	63 00       	.word	0x0063	; ????
      bc:	01 00       	.word	0x0001	; ????
      be:	00 75       	andi	r16, 0x50	; 80
      c0:	74 69       	ori	r23, 0x94	; 148
      c2:	6c 2f       	mov	r22, r28
      c4:	64 65       	ori	r22, 0x54	; 84
      c6:	6c 61       	ori	r22, 0x1C	; 28
      c8:	79 2e       	mov	r7, r25
      ca:	68 00       	.word	0x0068	; ????
      cc:	03 00       	.word	0x0003	; ????
      ce:	00 69       	ori	r16, 0x90	; 144
      d0:	6e 74       	andi	r22, 0x4E	; 78
      d2:	74 79       	andi	r23, 0x94	; 148
      d4:	70 65       	ori	r23, 0x50	; 80
      d6:	73 2e       	mov	r7, r19
      d8:	68 00       	.word	0x0068	; ????
      da:	03 00       	.word	0x0003	; ????
      dc:	00 73       	andi	r16, 0x30	; 48
      de:	74 64       	ori	r23, 0x44	; 68
      e0:	69 6e       	ori	r22, 0xE9	; 233
      e2:	74 2e       	mov	r7, r20
      e4:	68 00       	.word	0x0068	; ????
      e6:	03 00       	.word	0x0003	; ????
      e8:	00 75       	andi	r16, 0x50	; 80
      ea:	74 69       	ori	r23, 0x94	; 148
      ec:	6c 2f       	mov	r22, r28
      ee:	64 65       	ori	r22, 0x54	; 84
      f0:	6c 61       	ori	r22, 0x1C	; 28
      f2:	79 5f       	subi	r23, 0xF9	; 249
      f4:	62 61       	ori	r22, 0x12	; 18
      f6:	73 69       	ori	r23, 0x93	; 147
      f8:	63 2e       	mov	r6, r19
      fa:	68 00       	.word	0x0068	; ????
      fc:	03 00       	.word	0x0003	; ????
      fe:	00 61       	ori	r16, 0x10	; 16
     100:	76 72       	andi	r23, 0x26	; 38
     102:	2f 69       	ori	r18, 0x9F	; 159
     104:	6f 2e       	mov	r6, r31
     106:	68 00       	.word	0x0068	; ????
     108:	03 00       	.word	0x0003	; ????
     10a:	00 61       	ori	r16, 0x10	; 16
     10c:	76 72       	andi	r23, 0x26	; 38
     10e:	2f 73       	andi	r18, 0x3F	; 63
     110:	66 72       	andi	r22, 0x26	; 38
     112:	5f 64       	ori	r21, 0x4F	; 79
     114:	65 66       	ori	r22, 0x65	; 101
     116:	73 2e       	mov	r7, r19
     118:	68 00       	.word	0x0068	; ????
     11a:	03 00       	.word	0x0003	; ????
     11c:	00 61       	ori	r16, 0x10	; 16
     11e:	76 72       	andi	r23, 0x26	; 38
     120:	2f 69       	ori	r18, 0x9F	; 159
     122:	6f 6d       	ori	r22, 0xDF	; 223
     124:	33 32       	cpi	r19, 0x23	; 35
     126:	2e 68       	ori	r18, 0x8E	; 142
     128:	00 03       	mulsu	r16, r16
     12a:	00 00       	nop
     12c:	61 76       	andi	r22, 0x61	; 97
     12e:	72 2f       	mov	r23, r18
     130:	70 6f       	ori	r23, 0xF0	; 240
     132:	72 74       	andi	r23, 0x42	; 66
     134:	70 69       	ori	r23, 0x90	; 144
     136:	6e 73       	andi	r22, 0x3E	; 62
     138:	2e 68       	ori	r18, 0x8E	; 142
     13a:	00 03       	mulsu	r16, r16
     13c:	00 00       	nop
     13e:	61 76       	andi	r22, 0x61	; 97
     140:	72 2f       	mov	r23, r18
     142:	63 6f       	ori	r22, 0xF3	; 243
     144:	6d 6d       	ori	r22, 0xDD	; 221
     146:	6f 6e       	ori	r22, 0xEF	; 239
     148:	2e 68       	ori	r18, 0x8E	; 142
     14a:	00 03       	mulsu	r16, r16
     14c:	00 00       	nop
     14e:	61 76       	andi	r22, 0x61	; 97
     150:	72 2f       	mov	r23, r18
     152:	76 65       	ori	r23, 0x56	; 86
     154:	72 73       	andi	r23, 0x32	; 50
     156:	69 6f       	ori	r22, 0xF9	; 249
     158:	6e 2e       	mov	r6, r30
     15a:	68 00       	.word	0x0068	; ????
     15c:	03 00       	.word	0x0003	; ????
     15e:	00 61       	ori	r16, 0x10	; 16
     160:	76 72       	andi	r23, 0x26	; 38
     162:	2f 66       	ori	r18, 0x6F	; 111
     164:	75 73       	andi	r23, 0x35	; 53
     166:	65 2e       	mov	r6, r21
     168:	68 00       	.word	0x0068	; ????
     16a:	03 00       	.word	0x0003	; ????
     16c:	00 61       	ori	r16, 0x10	; 16
     16e:	76 72       	andi	r23, 0x26	; 38
     170:	2f 6c       	ori	r18, 0xCF	; 207
     172:	6f 63       	ori	r22, 0x3F	; 63
     174:	6b 2e       	mov	r6, r27
     176:	68 00       	.word	0x0068	; ????
     178:	03 00       	.word	0x0003	; ????
     17a:	00 61       	ori	r16, 0x10	; 16
     17c:	76 72       	andi	r23, 0x26	; 38
     17e:	2f 69       	ori	r18, 0x9F	; 159
     180:	6e 74       	andi	r22, 0x4E	; 78
     182:	65 72       	andi	r22, 0x25	; 37
     184:	72 75       	andi	r23, 0x52	; 82
     186:	70 74       	andi	r23, 0x40	; 64
     188:	2e 68       	ori	r18, 0x8E	; 142
     18a:	00 03       	mulsu	r16, r16
     18c:	00 00       	nop
     18e:	55 53       	subi	r21, 0x35	; 53
     190:	41 52       	subi	r20, 0x21	; 33
     192:	54 2f       	mov	r21, r20
     194:	55 53       	subi	r21, 0x35	; 53
     196:	41 52       	subi	r20, 0x21	; 33
     198:	54 2e       	mov	r5, r20
     19a:	68 00       	.word	0x0068	; ????
     19c:	01 00       	.word	0x0001	; ????
     19e:	00 00       	nop
     1a0:	00 05       	cpc	r16, r0
     1a2:	02 82       	std	Z+2, r0	; 0x02
     1a4:	00 00       	nop
     1a6:	00 00       	nop
     1a8:	01 01       	movw	r0, r2
     1aa:	00 05       	cpc	r16, r0
     1ac:	02 36       	cpi	r16, 0x62	; 98
     1ae:	0b 00       	.word	0x000b	; ????
     1b0:	00 24       	eor	r0, r0
     1b2:	00 05       	cpc	r16, r0
     1b4:	02 4a       	sbci	r16, 0xA2	; 162
     1b6:	0b 00       	.word	0x000b	; ????
     1b8:	00 15       	cp	r16, r0
     1ba:	00 05       	cpc	r16, r0
     1bc:	02 4c       	sbci	r16, 0xC2	; 194
     1be:	0b 00       	.word	0x000b	; ????
     1c0:	00 18       	sub	r0, r0
     1c2:	00 05       	cpc	r16, r0
     1c4:	02 50       	subi	r16, 0x02	; 2
     1c6:	0b 00       	.word	0x000b	; ????
     1c8:	00 15       	cp	r16, r0
     1ca:	00 05       	cpc	r16, r0
     1cc:	02 54       	subi	r16, 0x42	; 66
     1ce:	0b 00       	.word	0x000b	; ????
     1d0:	00 15       	cp	r16, r0
     1d2:	00 05       	cpc	r16, r0
     1d4:	02 58       	subi	r16, 0x82	; 130
     1d6:	0b 00       	.word	0x000b	; ????
     1d8:	00 15       	cp	r16, r0
     1da:	00 05       	cpc	r16, r0
     1dc:	02 5a       	subi	r16, 0xA2	; 162
     1de:	0b 00       	.word	0x000b	; ????
     1e0:	00 15       	cp	r16, r0
     1e2:	00 05       	cpc	r16, r0
     1e4:	02 5c       	subi	r16, 0xC2	; 194
     1e6:	0b 00       	.word	0x000b	; ????
     1e8:	00 15       	cp	r16, r0
     1ea:	00 05       	cpc	r16, r0
     1ec:	02 5e       	subi	r16, 0xE2	; 226
     1ee:	0b 00       	.word	0x000b	; ????
     1f0:	00 15       	cp	r16, r0
     1f2:	00 05       	cpc	r16, r0
     1f4:	02 60       	ori	r16, 0x02	; 2
     1f6:	0b 00       	.word	0x000b	; ????
     1f8:	00 15       	cp	r16, r0
     1fa:	00 05       	cpc	r16, r0
     1fc:	02 62       	ori	r16, 0x22	; 34
     1fe:	0b 00       	.word	0x000b	; ????
     200:	00 15       	cp	r16, r0
     202:	00 05       	cpc	r16, r0
     204:	02 64       	ori	r16, 0x42	; 66
     206:	0b 00       	.word	0x000b	; ????
     208:	00 17       	cp	r16, r16
     20a:	00 05       	cpc	r16, r0
     20c:	02 6c       	ori	r16, 0xC2	; 194
     20e:	0b 00       	.word	0x000b	; ????
     210:	00 19       	sub	r16, r0
     212:	00 05       	cpc	r16, r0
     214:	02 84       	ldd	r0, Z+10	; 0x0a
     216:	0b 00       	.word	0x000b	; ????
     218:	00 04       	cpc	r0, r0
     21a:	02 5f       	subi	r16, 0xF2	; 242
     21c:	00 05       	cpc	r16, r0
     21e:	02 a4       	ldd	r0, Z+42	; 0x2a
     220:	0b 00       	.word	0x000b	; ????
     222:	00 15       	cp	r16, r0
     224:	00 05       	cpc	r16, r0
     226:	02 bc       	out	0x22, r0	; 34
     228:	0b 00       	.word	0x000b	; ????
     22a:	00 15       	cp	r16, r0
     22c:	00 05       	cpc	r16, r0
     22e:	02 c6       	rjmp	.+3076   	; 0xe34 <__data_load_end+0x160>
     230:	0b 00       	.word	0x000b	; ????
     232:	00 15       	cp	r16, r0
     234:	00 05       	cpc	r16, r0
     236:	02 de       	rcall	.-1020   	; 0xfffffe3c <__eeprom_end+0xff7efe3c>
     238:	0b 00       	.word	0x000b	; ????
     23a:	00 17       	cp	r16, r16
     23c:	00 05       	cpc	r16, r0
     23e:	02 10       	cpse	r0, r2
     240:	0c 00       	.word	0x000c	; ????
     242:	00 04       	cpc	r0, r0
     244:	05 03       	mulsu	r16, r21
     246:	72 01       	movw	r14, r4
     248:	00 05       	cpc	r16, r0
     24a:	02 1c       	adc	r0, r2
     24c:	0c 00       	.word	0x000c	; ????
     24e:	00 04       	cpc	r0, r0
     250:	02 27       	eor	r16, r18
     252:	00 05       	cpc	r16, r0
     254:	02 26       	eor	r0, r18
     256:	0c 00       	.word	0x000c	; ????
     258:	00 10       	cpse	r0, r0
     25a:	00 05       	cpc	r16, r0
     25c:	02 30       	cpi	r16, 0x02	; 2
     25e:	0c 00       	.word	0x000c	; ????
     260:	00 1d       	adc	r16, r0
     262:	00 05       	cpc	r16, r0
     264:	02 4c       	sbci	r16, 0xC2	; 194
     266:	0c 00       	.word	0x000c	; ????
     268:	00 04       	cpc	r0, r0
     26a:	05 03       	mulsu	r16, r21
     26c:	68 01       	movw	r12, r16
     26e:	00 05       	cpc	r16, r0
     270:	02 5a       	subi	r16, 0xA2	; 162
     272:	0c 00       	.word	0x000c	; ????
     274:	00 00       	nop
     276:	01 01       	movw	r0, r2
     278:	16 00       	.word	0x0016	; ????
     27a:	00 00       	nop
     27c:	02 00       	.word	0x0002	; ????
     27e:	10 00       	.word	0x0010	; ????
     280:	00 00       	nop
     282:	01 01       	movw	r0, r2
     284:	fb 0e       	add	r15, r27
     286:	0a 00       	.word	0x000a	; ????
     288:	01 01       	movw	r0, r2
     28a:	01 01       	movw	r0, r2
     28c:	00 00       	nop
     28e:	00 01       	movw	r0, r0
     290:	00 00       	nop
     292:	89 00       	.word	0x0089	; ????
     294:	00 00       	nop
     296:	02 00       	.word	0x0002	; ????
     298:	4e 00       	.word	0x004e	; ????
     29a:	00 00       	nop
     29c:	01 01       	movw	r0, r2
     29e:	f6 f5       	brtc	.+124    	; 0x31c <_fpadd_parts+0x242>
     2a0:	0a 00       	.word	0x000a	; ????
     2a2:	01 01       	movw	r0, r2
     2a4:	01 01       	movw	r0, r2
     2a6:	00 00       	nop
     2a8:	00 01       	movw	r0, r0
     2aa:	2e 2e       	mov	r2, r30
     2ac:	2f 2e       	mov	r2, r31
     2ae:	2e 2f       	mov	r18, r30
     2b0:	2e 2e       	mov	r2, r30
     2b2:	2f 2e       	mov	r2, r31
     2b4:	2e 2f       	mov	r18, r30
     2b6:	67 63       	ori	r22, 0x37	; 55
     2b8:	63 2d       	mov	r22, r3
     2ba:	34 2e       	mov	r3, r20
     2bc:	33 2e       	mov	r3, r19
     2be:	33 2f       	mov	r19, r19
     2c0:	6c 69       	ori	r22, 0x9C	; 156
     2c2:	62 67       	ori	r22, 0x72	; 114
     2c4:	63 63       	ori	r22, 0x33	; 51
     2c6:	2f 2e       	mov	r2, r31
     2c8:	2e 2f       	mov	r18, r30
     2ca:	67 63       	ori	r22, 0x37	; 55
     2cc:	63 00       	.word	0x0063	; ????
     2ce:	00 6c       	ori	r16, 0xC0	; 192
     2d0:	69 62       	ori	r22, 0x29	; 41
     2d2:	67 63       	ori	r22, 0x37	; 55
     2d4:	63 32       	cpi	r22, 0x23	; 35
     2d6:	2e 63       	ori	r18, 0x3E	; 62
     2d8:	00 01       	movw	r0, r0
     2da:	00 00       	nop
     2dc:	6c 69       	ori	r22, 0x9C	; 156
     2de:	62 67       	ori	r22, 0x72	; 114
     2e0:	63 63       	ori	r22, 0x33	; 51
     2e2:	32 2e       	mov	r3, r18
     2e4:	68 00       	.word	0x0068	; ????
     2e6:	01 00       	.word	0x0001	; ????
     2e8:	00 00       	nop
     2ea:	00 05       	cpc	r16, r0
     2ec:	02 82       	std	Z+2, r0	; 0x02
     2ee:	00 00       	nop
     2f0:	00 03       	mulsu	r16, r16
     2f2:	a4 0d       	add	r26, r4
     2f4:	01 00       	.word	0x0001	; ????
     2f6:	05 02       	muls	r16, r21
     2f8:	8e 00       	.word	0x008e	; ????
     2fa:	00 00       	nop
     2fc:	15 00       	.word	0x0015	; ????
     2fe:	05 02       	muls	r16, r21
     300:	9e 00       	.word	0x009e	; ????
     302:	00 00       	nop
     304:	15 00       	.word	0x0015	; ????
     306:	05 02       	muls	r16, r21
     308:	c0 00       	.word	0x00c0	; ????
     30a:	00 00       	nop
     30c:	15 00       	.word	0x0015	; ????
     30e:	05 02       	muls	r16, r21
     310:	cc 00       	.word	0x00cc	; ????
     312:	00 00       	nop
     314:	15 00       	.word	0x0015	; ????
     316:	05 02       	muls	r16, r21
     318:	da 00       	.word	0x00da	; ????
     31a:	00 00       	nop
     31c:	00 01       	movw	r0, r0
     31e:	01 16       	cp	r0, r17
     320:	00 00       	nop
     322:	00 02       	muls	r16, r16
     324:	00 10       	cpse	r0, r0
     326:	00 00       	nop
     328:	00 01       	movw	r0, r0
     32a:	01 fb       	bst	r16, 1
     32c:	0e 0a       	sbc	r0, r30
     32e:	00 01       	movw	r0, r0
     330:	01 01       	movw	r0, r2
     332:	01 00       	.word	0x0001	; ????
     334:	00 00       	nop
     336:	01 00       	.word	0x0001	; ????
     338:	00 91 02 00 	lds	r16, 0x0002
     33c:	00 02       	muls	r16, r16
     33e:	00 62       	ori	r16, 0x20	; 32
     340:	00 00       	nop
     342:	00 01       	movw	r0, r0
     344:	01 f6       	brne	.-128    	; 0x2c6 <_fpadd_parts+0x1ec>
     346:	f5 0a       	sbc	r15, r21
     348:	00 01       	movw	r0, r0
     34a:	01 01       	movw	r0, r2
     34c:	01 00       	.word	0x0001	; ????
     34e:	00 00       	nop
     350:	01 2e       	mov	r0, r17
     352:	2e 2f       	mov	r18, r30
     354:	2e 2e       	mov	r2, r30
     356:	2f 2e       	mov	r2, r31
     358:	2e 2f       	mov	r18, r30
     35a:	2e 2e       	mov	r2, r30
     35c:	2f 67       	ori	r18, 0x7F	; 127
     35e:	63 63       	ori	r22, 0x33	; 51
     360:	2d 34       	cpi	r18, 0x4D	; 77
     362:	2e 33       	cpi	r18, 0x3E	; 62
     364:	2e 33       	cpi	r18, 0x3E	; 62
     366:	2f 6c       	ori	r18, 0xCF	; 207
     368:	69 62       	ori	r22, 0x29	; 41
     36a:	67 63       	ori	r22, 0x37	; 55
     36c:	63 2f       	mov	r22, r19
     36e:	2e 2e       	mov	r2, r30
     370:	2f 67       	ori	r18, 0x7F	; 127
     372:	63 63       	ori	r22, 0x33	; 51
     374:	2f 63       	ori	r18, 0x3F	; 63
     376:	6f 6e       	ori	r22, 0xEF	; 239
     378:	66 69       	ori	r22, 0x96	; 150
     37a:	67 00       	.word	0x0067	; ????
     37c:	2e 2e       	mov	r2, r30
     37e:	2f 2e       	mov	r2, r31
     380:	2e 2f       	mov	r18, r30
     382:	2e 2e       	mov	r2, r30
     384:	2f 2e       	mov	r2, r31
     386:	2f 67       	ori	r18, 0x7F	; 127
     388:	63 63       	ori	r22, 0x33	; 51
     38a:	00 00       	nop
     38c:	66 70       	andi	r22, 0x06	; 6
     38e:	2d 62       	ori	r18, 0x2D	; 45
     390:	69 74       	andi	r22, 0x49	; 73
     392:	2e 63       	ori	r18, 0x3E	; 62
     394:	00 02       	muls	r16, r16
     396:	00 00       	nop
     398:	66 70       	andi	r22, 0x06	; 6
     39a:	2d 62       	ori	r18, 0x2D	; 45
     39c:	69 74       	andi	r22, 0x49	; 73
     39e:	2e 68       	ori	r18, 0x8E	; 142
     3a0:	00 01       	movw	r0, r0
     3a2:	00 00       	nop
     3a4:	00 00       	nop
     3a6:	05 02       	muls	r16, r21
     3a8:	da 00       	.word	0x00da	; ????
     3aa:	00 00       	nop
     3ac:	03 e2       	ldi	r16, 0x23	; 35
     3ae:	04 01       	movw	r0, r8
     3b0:	00 05       	cpc	r16, r0
     3b2:	02 ec       	ldi	r16, 0xC2	; 194
     3b4:	00 00       	nop
     3b6:	00 03       	mulsu	r16, r16
     3b8:	c4 7c       	andi	r28, 0xC4	; 196
     3ba:	01 00       	.word	0x0001	; ????
     3bc:	05 02       	muls	r16, r21
     3be:	ee 00       	.word	0x00ee	; ????
     3c0:	00 00       	nop
     3c2:	03 c5       	rjmp	.+2566   	; 0xdca <__data_load_end+0xf6>
     3c4:	03 01       	movw	r0, r6
     3c6:	00 05       	cpc	r16, r0
     3c8:	02 f4       	brpl	.+0      	; 0x3ca <__subsf3+0x58>
     3ca:	00 00       	nop
     3cc:	00 03       	mulsu	r16, r16
     3ce:	bb 7c       	andi	r27, 0xCB	; 203
     3d0:	01 00       	.word	0x0001	; ????
     3d2:	05 02       	muls	r16, r21
     3d4:	f8 00       	.word	0x00f8	; ????
     3d6:	00 00       	nop
     3d8:	03 c9       	rjmp	.-3578   	; 0xfffff5e0 <__eeprom_end+0xff7ef5e0>
     3da:	03 01       	movw	r0, r6
     3dc:	00 05       	cpc	r16, r0
     3de:	02 fe       	sbrs	r0, 2
     3e0:	00 00       	nop
     3e2:	00 18       	sub	r0, r0
     3e4:	00 05       	cpc	r16, r0
     3e6:	02 02       	muls	r16, r18
     3e8:	01 00       	.word	0x0001	; ????
     3ea:	00 17       	cp	r16, r16
     3ec:	00 05       	cpc	r16, r0
     3ee:	02 16       	cp	r0, r18
     3f0:	01 00       	.word	0x0001	; ????
     3f2:	00 03       	mulsu	r16, r16
     3f4:	a6 7c       	andi	r26, 0xC6	; 198
     3f6:	01 00       	.word	0x0001	; ????
     3f8:	05 02       	muls	r16, r21
     3fa:	1c 01       	movw	r2, r24
     3fc:	00 00       	nop
     3fe:	03 de       	rcall	.-1018   	; 0x6 <__zero_reg__+0x5>
     400:	03 01       	movw	r0, r6
     402:	00 05       	cpc	r16, r0
     404:	02 22       	and	r0, r18
     406:	01 00       	.word	0x0001	; ????
     408:	00 18       	sub	r0, r0
     40a:	00 05       	cpc	r16, r0
     40c:	02 26       	eor	r0, r18
     40e:	01 00       	.word	0x0001	; ????
     410:	00 16       	cp	r0, r16
     412:	00 05       	cpc	r16, r0
     414:	02 2c       	mov	r0, r2
     416:	01 00       	.word	0x0001	; ????
     418:	00 16       	cp	r0, r16
     41a:	00 05       	cpc	r16, r0
     41c:	02 42       	sbci	r16, 0x22	; 34
     41e:	01 00       	.word	0x0001	; ????
     420:	00 15       	cp	r16, r0
     422:	00 05       	cpc	r16, r0
     424:	02 50       	subi	r16, 0x02	; 2
     426:	01 00       	.word	0x0001	; ????
     428:	00 19       	sub	r16, r0
     42a:	00 05       	cpc	r16, r0
     42c:	02 56       	subi	r16, 0x62	; 98
     42e:	01 00       	.word	0x0001	; ????
     430:	00 1f       	adc	r16, r16
     432:	00 05       	cpc	r16, r0
     434:	02 5e       	subi	r16, 0xE2	; 226
     436:	01 00       	.word	0x0001	; ????
     438:	00 15       	cp	r16, r0
     43a:	00 05       	cpc	r16, r0
     43c:	02 64       	ori	r16, 0x42	; 66
     43e:	01 00       	.word	0x0001	; ????
     440:	00 15       	cp	r16, r0
     442:	00 05       	cpc	r16, r0
     444:	02 70       	andi	r16, 0x02	; 2
     446:	01 00       	.word	0x0001	; ????
     448:	00 15       	cp	r16, r0
     44a:	00 05       	cpc	r16, r0
     44c:	02 78       	andi	r16, 0x82	; 130
     44e:	01 00       	.word	0x0001	; ????
     450:	00 16       	cp	r0, r16
     452:	00 05       	cpc	r16, r0
     454:	02 8c       	ldd	r0, Z+26	; 0x1a
     456:	01 00       	.word	0x0001	; ????
     458:	00 19       	sub	r16, r0
     45a:	00 05       	cpc	r16, r0
     45c:	02 94       	swap	r0
     45e:	01 00       	.word	0x0001	; ????
     460:	00 16       	cp	r0, r16
     462:	00 05       	cpc	r16, r0
     464:	02 9a       	sbi	0x00, 2	; 0
     466:	01 00       	.word	0x0001	; ????
     468:	00 17       	cp	r16, r16
     46a:	00 05       	cpc	r16, r0
     46c:	02 f4       	brpl	.+0      	; 0x46e <__mulsf3+0x40>
     46e:	01 00       	.word	0x0001	; ????
     470:	00 16       	cp	r0, r16
     472:	00 05       	cpc	r16, r0
     474:	02 f8       	bld	r0, 2
     476:	01 00       	.word	0x0001	; ????
     478:	00 16       	cp	r0, r16
     47a:	00 05       	cpc	r16, r0
     47c:	02 fc       	sbrc	r0, 2
     47e:	01 00       	.word	0x0001	; ????
     480:	00 15       	cp	r16, r0
     482:	00 05       	cpc	r16, r0
     484:	02 56       	subi	r16, 0x62	; 98
     486:	02 00       	.word	0x0002	; ????
     488:	00 1a       	sub	r0, r16
     48a:	00 05       	cpc	r16, r0
     48c:	02 6c       	ori	r16, 0xC2	; 194
     48e:	02 00       	.word	0x0002	; ????
     490:	00 21       	and	r16, r0
     492:	00 05       	cpc	r16, r0
     494:	02 7c       	andi	r16, 0xC2	; 194
     496:	02 00       	.word	0x0002	; ????
     498:	00 16       	cp	r0, r16
     49a:	00 05       	cpc	r16, r0
     49c:	02 80       	ldd	r0, Z+2	; 0x02
     49e:	02 00       	.word	0x0002	; ????
     4a0:	00 16       	cp	r0, r16
     4a2:	00 05       	cpc	r16, r0
     4a4:	02 8e       	std	Z+26, r0	; 0x1a
     4a6:	02 00       	.word	0x0002	; ????
     4a8:	00 18       	sub	r0, r0
     4aa:	00 05       	cpc	r16, r0
     4ac:	02 9a       	sbi	0x00, 2	; 0
     4ae:	02 00       	.word	0x0002	; ????
     4b0:	00 16       	cp	r0, r16
     4b2:	00 05       	cpc	r16, r0
     4b4:	02 9e       	mul	r0, r18
     4b6:	02 00       	.word	0x0002	; ????
     4b8:	00 16       	cp	r0, r16
     4ba:	00 05       	cpc	r16, r0
     4bc:	02 a0       	ldd	r0, Z+34	; 0x22
     4be:	02 00       	.word	0x0002	; ????
     4c0:	00 15       	cp	r16, r0
     4c2:	00 05       	cpc	r16, r0
     4c4:	02 a4       	ldd	r0, Z+42	; 0x2a
     4c6:	02 00       	.word	0x0002	; ????
     4c8:	00 15       	cp	r16, r0
     4ca:	00 05       	cpc	r16, r0
     4cc:	02 ae       	std	Z+58, r0	; 0x3a
     4ce:	02 00       	.word	0x0002	; ????
     4d0:	00 18       	sub	r0, r0
     4d2:	00 05       	cpc	r16, r0
     4d4:	02 b2       	in	r0, 0x12	; 18
     4d6:	02 00       	.word	0x0002	; ????
     4d8:	00 15       	cp	r16, r0
     4da:	00 05       	cpc	r16, r0
     4dc:	02 b6       	in	r0, 0x32	; 50
     4de:	02 00       	.word	0x0002	; ????
     4e0:	00 15       	cp	r16, r0
     4e2:	00 05       	cpc	r16, r0
     4e4:	02 ce       	rjmp	.-1020   	; 0xea <_fpadd_parts+0x10>
     4e6:	02 00       	.word	0x0002	; ????
     4e8:	00 1a       	sub	r0, r16
     4ea:	00 05       	cpc	r16, r0
     4ec:	02 de       	rcall	.-1020   	; 0xf2 <_fpadd_parts+0x18>
     4ee:	02 00       	.word	0x0002	; ????
     4f0:	00 15       	cp	r16, r0
     4f2:	00 05       	cpc	r16, r0
     4f4:	02 e8       	ldi	r16, 0x82	; 130
     4f6:	02 00       	.word	0x0002	; ????
     4f8:	00 11       	cpse	r16, r0
     4fa:	00 05       	cpc	r16, r0
     4fc:	02 06       	cpc	r0, r18
     4fe:	03 00       	.word	0x0003	; ????
     500:	00 1c       	adc	r0, r0
     502:	00 05       	cpc	r16, r0
     504:	02 08       	sbc	r0, r2
     506:	03 00       	.word	0x0003	; ????
     508:	00 15       	cp	r16, r0
     50a:	00 05       	cpc	r16, r0
     50c:	02 0c       	add	r0, r2
     50e:	03 00       	.word	0x0003	; ????
     510:	00 15       	cp	r16, r0
     512:	00 05       	cpc	r16, r0
     514:	02 1c       	adc	r0, r2
     516:	03 00       	.word	0x0003	; ????
     518:	00 16       	cp	r0, r16
     51a:	00 05       	cpc	r16, r0
     51c:	02 20       	and	r0, r2
     51e:	03 00       	.word	0x0003	; ????
     520:	00 18       	sub	r0, r0
     522:	00 05       	cpc	r16, r0
     524:	02 2c       	mov	r0, r2
     526:	03 00       	.word	0x0003	; ????
     528:	00 16       	cp	r0, r16
     52a:	00 05       	cpc	r16, r0
     52c:	02 56       	subi	r16, 0x62	; 98
     52e:	03 00       	.word	0x0003	; ????
     530:	00 15       	cp	r16, r0
     532:	00 05       	cpc	r16, r0
     534:	02 66       	ori	r16, 0x62	; 98
     536:	03 00       	.word	0x0003	; ????
     538:	00 18       	sub	r0, r0
     53a:	00 05       	cpc	r16, r0
     53c:	02 72       	andi	r16, 0x22	; 34
     53e:	03 00       	.word	0x0003	; ????
     540:	00 2c       	mov	r0, r0
     542:	00 05       	cpc	r16, r0
     544:	02 7e       	andi	r16, 0xE2	; 226
     546:	03 00       	.word	0x0003	; ????
     548:	00 1b       	sub	r16, r16
     54a:	00 05       	cpc	r16, r0
     54c:	02 86       	std	Z+10, r0	; 0x0a
     54e:	03 00       	.word	0x0003	; ????
     550:	00 15       	cp	r16, r0
     552:	00 05       	cpc	r16, r0
     554:	02 8e       	std	Z+26, r0	; 0x1a
     556:	03 00       	.word	0x0003	; ????
     558:	00 16       	cp	r0, r16
     55a:	00 05       	cpc	r16, r0
     55c:	02 a2       	std	Z+34, r0	; 0x22
     55e:	03 00       	.word	0x0003	; ????
     560:	00 15       	cp	r16, r0
     562:	00 05       	cpc	r16, r0
     564:	02 b2       	in	r0, 0x12	; 18
     566:	03 00       	.word	0x0003	; ????
     568:	00 16       	cp	r0, r16
     56a:	00 05       	cpc	r16, r0
     56c:	02 ba       	out	0x12, r0	; 18
     56e:	03 00       	.word	0x0003	; ????
     570:	00 16       	cp	r0, r16
     572:	00 05       	cpc	r16, r0
     574:	02 c8       	rjmp	.-4092   	; 0xfffff57a <__eeprom_end+0xff7ef57a>
     576:	03 00       	.word	0x0003	; ????
     578:	00 16       	cp	r0, r16
     57a:	00 05       	cpc	r16, r0
     57c:	02 cc       	rjmp	.-2044   	; 0xfffffd82 <__eeprom_end+0xff7efd82>
     57e:	03 00       	.word	0x0003	; ????
     580:	00 15       	cp	r16, r0
     582:	00 05       	cpc	r16, r0
     584:	02 d4       	rcall	.+2052   	; 0xd8a <__data_load_end+0xb6>
     586:	03 00       	.word	0x0003	; ????
     588:	00 03       	mulsu	r16, r16
     58a:	5a 01       	movw	r10, r20
     58c:	00 05       	cpc	r16, r0
     58e:	02 e0       	ldi	r16, 0x02	; 2
     590:	03 00       	.word	0x0003	; ????
     592:	00 1b       	sub	r16, r16
     594:	00 05       	cpc	r16, r0
     596:	02 e8       	ldi	r16, 0x82	; 130
     598:	03 00       	.word	0x0003	; ????
     59a:	00 15       	cp	r16, r0
     59c:	00 05       	cpc	r16, r0
     59e:	02 f0       	brmi	.+0      	; 0x5a0 <__mulsf3+0x172>
     5a0:	03 00       	.word	0x0003	; ????
     5a2:	00 16       	cp	r0, r16
     5a4:	00 05       	cpc	r16, r0
     5a6:	02 04       	cpc	r0, r2
     5a8:	04 00       	.word	0x0004	; ????
     5aa:	00 15       	cp	r16, r0
     5ac:	00 05       	cpc	r16, r0
     5ae:	02 14       	cp	r0, r2
     5b0:	04 00       	.word	0x0004	; ????
     5b2:	00 16       	cp	r0, r16
     5b4:	00 05       	cpc	r16, r0
     5b6:	02 22       	and	r0, r18
     5b8:	04 00       	.word	0x0004	; ????
     5ba:	00 16       	cp	r0, r16
     5bc:	00 05       	cpc	r16, r0
     5be:	02 26       	eor	r0, r18
     5c0:	04 00       	.word	0x0004	; ????
     5c2:	00 15       	cp	r16, r0
     5c4:	00 05       	cpc	r16, r0
     5c6:	02 2e       	mov	r0, r18
     5c8:	04 00       	.word	0x0004	; ????
     5ca:	00 00       	nop
     5cc:	01 01       	movw	r0, r2
     5ce:	16 00       	.word	0x0016	; ????
     5d0:	00 00       	nop
     5d2:	02 00       	.word	0x0002	; ????
     5d4:	10 00       	.word	0x0010	; ????
     5d6:	00 00       	nop
     5d8:	01 01       	movw	r0, r2
     5da:	fb 0e       	add	r15, r27
     5dc:	0a 00       	.word	0x000a	; ????
     5de:	01 01       	movw	r0, r2
     5e0:	01 01       	movw	r0, r2
     5e2:	00 00       	nop
     5e4:	00 01       	movw	r0, r0
     5e6:	00 00       	nop
     5e8:	1b 02       	muls	r17, r27
     5ea:	00 00       	nop
     5ec:	02 00       	.word	0x0002	; ????
     5ee:	62 00       	.word	0x0062	; ????
     5f0:	00 00       	nop
     5f2:	01 01       	movw	r0, r2
     5f4:	f6 f5       	brtc	.+124    	; 0x672 <__gtsf2+0x50>
     5f6:	0a 00       	.word	0x000a	; ????
     5f8:	01 01       	movw	r0, r2
     5fa:	01 01       	movw	r0, r2
     5fc:	00 00       	nop
     5fe:	00 01       	movw	r0, r0
     600:	2e 2e       	mov	r2, r30
     602:	2f 2e       	mov	r2, r31
     604:	2e 2f       	mov	r18, r30
     606:	2e 2e       	mov	r2, r30
     608:	2f 2e       	mov	r2, r31
     60a:	2e 2f       	mov	r18, r30
     60c:	67 63       	ori	r22, 0x37	; 55
     60e:	63 2d       	mov	r22, r3
     610:	34 2e       	mov	r3, r20
     612:	33 2e       	mov	r3, r19
     614:	33 2f       	mov	r19, r19
     616:	6c 69       	ori	r22, 0x9C	; 156
     618:	62 67       	ori	r22, 0x72	; 114
     61a:	63 63       	ori	r22, 0x33	; 51
     61c:	2f 2e       	mov	r2, r31
     61e:	2e 2f       	mov	r18, r30
     620:	67 63       	ori	r22, 0x37	; 55
     622:	63 2f       	mov	r22, r19
     624:	63 6f       	ori	r22, 0xF3	; 243
     626:	6e 66       	ori	r22, 0x6E	; 110
     628:	69 67       	ori	r22, 0x79	; 121
     62a:	00 2e       	mov	r0, r16
     62c:	2e 2f       	mov	r18, r30
     62e:	2e 2e       	mov	r2, r30
     630:	2f 2e       	mov	r2, r31
     632:	2e 2f       	mov	r18, r30
     634:	2e 2f       	mov	r18, r30
     636:	67 63       	ori	r22, 0x37	; 55
     638:	63 00       	.word	0x0063	; ????
     63a:	00 66       	ori	r16, 0x60	; 96
     63c:	70 2d       	mov	r23, r0
     63e:	62 69       	ori	r22, 0x92	; 146
     640:	74 2e       	mov	r7, r20
     642:	63 00       	.word	0x0063	; ????
     644:	02 00       	.word	0x0002	; ????
     646:	00 66       	ori	r16, 0x60	; 96
     648:	70 2d       	mov	r23, r0
     64a:	62 69       	ori	r22, 0x92	; 146
     64c:	74 2e       	mov	r7, r20
     64e:	68 00       	.word	0x0068	; ????
     650:	01 00       	.word	0x0001	; ????
     652:	00 00       	nop
     654:	00 05       	cpc	r16, r0
     656:	02 2e       	mov	r0, r18
     658:	04 00       	.word	0x0004	; ????
     65a:	00 03       	mulsu	r16, r16
     65c:	bb 07       	cpc	r27, r27
     65e:	01 00       	.word	0x0001	; ????
     660:	05 02       	muls	r16, r21
     662:	3a 04       	cpc	r3, r10
     664:	00 00       	nop
     666:	1b 00       	.word	0x001b	; ????
     668:	05 02       	muls	r16, r21
     66a:	42 04       	cpc	r4, r2
     66c:	00 00       	nop
     66e:	15 00       	.word	0x0015	; ????
     670:	05 02       	muls	r16, r21
     672:	4a 04       	cpc	r4, r10
     674:	00 00       	nop
     676:	16 00       	.word	0x0016	; ????
     678:	05 02       	muls	r16, r21
     67a:	58 04       	cpc	r5, r8
     67c:	00 00       	nop
     67e:	15 00       	.word	0x0015	; ????
     680:	05 02       	muls	r16, r21
     682:	66 04       	cpc	r6, r6
     684:	00 00       	nop
     686:	03 e0       	ldi	r16, 0x03	; 3
     688:	79 01       	movw	r14, r18
     68a:	00 05       	cpc	r16, r0
     68c:	02 68       	ori	r16, 0x82	; 130
     68e:	04 00       	.word	0x0004	; ????
     690:	00 03       	mulsu	r16, r16
     692:	f9 04       	cpc	r15, r9
     694:	01 00       	.word	0x0001	; ????
     696:	05 02       	muls	r16, r21
     698:	6c 04       	cpc	r6, r12
     69a:	00 00       	nop
     69c:	03 87       	std	Z+11, r16	; 0x0b
     69e:	7b 01       	movw	r14, r22
     6a0:	00 05       	cpc	r16, r0
     6a2:	02 6e       	ori	r16, 0xE2	; 226
     6a4:	04 00       	.word	0x0004	; ????
     6a6:	00 03       	mulsu	r16, r16
     6a8:	fe 04       	cpc	r15, r14
     6aa:	01 00       	.word	0x0001	; ????
     6ac:	05 02       	muls	r16, r21
     6ae:	72 04       	cpc	r7, r2
     6b0:	00 00       	nop
     6b2:	19 00       	.word	0x0019	; ????
     6b4:	05 02       	muls	r16, r21
     6b6:	76 04       	cpc	r7, r6
     6b8:	00 00       	nop
     6ba:	16 00       	.word	0x0016	; ????
     6bc:	05 02       	muls	r16, r21
     6be:	7c 04       	cpc	r7, r12
     6c0:	00 00       	nop
     6c2:	19 00       	.word	0x0019	; ????
     6c4:	05 02       	muls	r16, r21
     6c6:	80 04       	cpc	r8, r0
     6c8:	00 00       	nop
     6ca:	16 00       	.word	0x0016	; ????
     6cc:	05 02       	muls	r16, r21
     6ce:	84 04       	cpc	r8, r4
     6d0:	00 00       	nop
     6d2:	03 ea       	ldi	r16, 0xA3	; 163
     6d4:	7a 01       	movw	r14, r20
     6d6:	00 05       	cpc	r16, r0
     6d8:	02 8a       	std	Z+18, r0	; 0x12
     6da:	04 00       	.word	0x0004	; ????
     6dc:	00 03       	mulsu	r16, r16
     6de:	9d 05       	cpc	r25, r13
     6e0:	01 00       	.word	0x0001	; ????
     6e2:	05 02       	muls	r16, r21
     6e4:	8e 04       	cpc	r8, r14
     6e6:	00 00       	nop
     6e8:	16 00       	.word	0x0016	; ????
     6ea:	05 02       	muls	r16, r21
     6ec:	a0 04       	cpc	r10, r0
     6ee:	00 00       	nop
     6f0:	17 00       	.word	0x0017	; ????
     6f2:	05 02       	muls	r16, r21
     6f4:	a4 04       	cpc	r10, r4
     6f6:	00 00       	nop
     6f8:	16 00       	.word	0x0016	; ????
     6fa:	05 02       	muls	r16, r21
     6fc:	b6 04       	cpc	r11, r6
     6fe:	00 00       	nop
     700:	1d 00       	.word	0x001d	; ????
     702:	05 02       	muls	r16, r21
     704:	be 04       	cpc	r11, r14
     706:	00 00       	nop
     708:	15 00       	.word	0x0015	; ????
     70a:	05 02       	muls	r16, r21
     70c:	de 04       	cpc	r13, r14
     70e:	00 00       	nop
     710:	1d 00       	.word	0x001d	; ????
     712:	05 02       	muls	r16, r21
     714:	e8 04       	cpc	r14, r8
     716:	00 00       	nop
     718:	16 00       	.word	0x0016	; ????
     71a:	05 02       	muls	r16, r21
     71c:	f0 04       	cpc	r15, r0
     71e:	00 00       	nop
     720:	15 00       	.word	0x0015	; ????
     722:	05 02       	muls	r16, r21
     724:	22 05       	cpc	r18, r2
     726:	00 00       	nop
     728:	16 00       	.word	0x0016	; ????
     72a:	05 02       	muls	r16, r21
     72c:	2a 05       	cpc	r18, r10
     72e:	00 00       	nop
     730:	15 00       	.word	0x0015	; ????
     732:	05 02       	muls	r16, r21
     734:	2e 05       	cpc	r18, r14
     736:	00 00       	nop
     738:	16 00       	.word	0x0016	; ????
     73a:	05 02       	muls	r16, r21
     73c:	3e 05       	cpc	r19, r14
     73e:	00 00       	nop
     740:	03 74       	andi	r16, 0x43	; 67
     742:	01 00       	.word	0x0001	; ????
     744:	05 02       	muls	r16, r21
     746:	46 05       	cpc	r20, r6
     748:	00 00       	nop
     74a:	22 00       	.word	0x0022	; ????
     74c:	05 02       	muls	r16, r21
     74e:	4e 05       	cpc	r20, r14
     750:	00 00       	nop
     752:	15 00       	.word	0x0015	; ????
     754:	05 02       	muls	r16, r21
     756:	58 05       	cpc	r21, r8
     758:	00 00       	nop
     75a:	3e 00       	.word	0x003e	; ????
     75c:	05 02       	muls	r16, r21
     75e:	6e 05       	cpc	r22, r14
     760:	00 00       	nop
     762:	18 00       	.word	0x0018	; ????
     764:	05 02       	muls	r16, r21
     766:	78 05       	cpc	r23, r8
     768:	00 00       	nop
     76a:	16 00       	.word	0x0016	; ????
     76c:	05 02       	muls	r16, r21
     76e:	80 05       	cpc	r24, r0
     770:	00 00       	nop
     772:	15 00       	.word	0x0015	; ????
     774:	05 02       	muls	r16, r21
     776:	90 05       	cpc	r25, r0
     778:	00 00       	nop
     77a:	16 00       	.word	0x0016	; ????
     77c:	05 02       	muls	r16, r21
     77e:	9c 05       	cpc	r25, r12
     780:	00 00       	nop
     782:	0c 00       	.word	0x000c	; ????
     784:	05 02       	muls	r16, r21
     786:	a2 05       	cpc	r26, r2
     788:	00 00       	nop
     78a:	22 00       	.word	0x0022	; ????
     78c:	05 02       	muls	r16, r21
     78e:	aa 05       	cpc	r26, r10
     790:	00 00       	nop
     792:	15 00       	.word	0x0015	; ????
     794:	05 02       	muls	r16, r21
     796:	ac 05       	cpc	r26, r12
     798:	00 00       	nop
     79a:	15 00       	.word	0x0015	; ????
     79c:	05 02       	muls	r16, r21
     79e:	ae 05       	cpc	r26, r14
     7a0:	00 00       	nop
     7a2:	15 00       	.word	0x0015	; ????
     7a4:	05 02       	muls	r16, r21
     7a6:	ba 05       	cpc	r27, r10
     7a8:	00 00       	nop
     7aa:	0d 00       	.word	0x000d	; ????
     7ac:	05 02       	muls	r16, r21
     7ae:	ce 05       	cpc	r28, r14
     7b0:	00 00       	nop
     7b2:	1e 00       	.word	0x001e	; ????
     7b4:	05 02       	muls	r16, r21
     7b6:	e4 05       	cpc	r30, r4
     7b8:	00 00       	nop
     7ba:	16 00       	.word	0x0016	; ????
     7bc:	05 02       	muls	r16, r21
     7be:	e8 05       	cpc	r30, r8
     7c0:	00 00       	nop
     7c2:	1d 00       	.word	0x001d	; ????
     7c4:	05 02       	muls	r16, r21
     7c6:	f2 05       	cpc	r31, r2
     7c8:	00 00       	nop
     7ca:	1a 00       	.word	0x001a	; ????
     7cc:	05 02       	muls	r16, r21
     7ce:	fa 05       	cpc	r31, r10
     7d0:	00 00       	nop
     7d2:	17 00       	.word	0x0017	; ????
     7d4:	05 02       	muls	r16, r21
     7d6:	fc 05       	cpc	r31, r12
     7d8:	00 00       	nop
     7da:	03 57       	subi	r16, 0x73	; 115
     7dc:	01 00       	.word	0x0001	; ????
     7de:	05 02       	muls	r16, r21
     7e0:	06 06       	cpc	r0, r22
     7e2:	00 00       	nop
     7e4:	40 00       	.word	0x0040	; ????
     7e6:	05 02       	muls	r16, r21
     7e8:	0e 06       	cpc	r0, r30
     7ea:	00 00       	nop
     7ec:	15 00       	.word	0x0015	; ????
     7ee:	05 02       	muls	r16, r21
     7f0:	16 06       	cpc	r1, r22
     7f2:	00 00       	nop
     7f4:	29 00       	.word	0x0029	; ????
     7f6:	05 02       	muls	r16, r21
     7f8:	1a 06       	cpc	r1, r26
     7fa:	00 00       	nop
     7fc:	15 00       	.word	0x0015	; ????
     7fe:	05 02       	muls	r16, r21
     800:	22 06       	cpc	r2, r18
     802:	00 00       	nop
     804:	00 01       	movw	r0, r0
     806:	01 16       	cp	r0, r17
     808:	00 00       	nop
     80a:	00 02       	muls	r16, r16
     80c:	00 10       	cpse	r0, r0
     80e:	00 00       	nop
     810:	00 01       	movw	r0, r0
     812:	01 fb       	bst	r16, 1
     814:	0e 0a       	sbc	r0, r30
     816:	00 01       	movw	r0, r0
     818:	01 01       	movw	r0, r2
     81a:	01 00       	.word	0x0001	; ????
     81c:	00 00       	nop
     81e:	01 00       	.word	0x0001	; ????
     820:	00 b5       	in	r16, 0x20	; 32
     822:	00 00       	nop
     824:	00 02       	muls	r16, r16
     826:	00 62       	ori	r16, 0x20	; 32
     828:	00 00       	nop
     82a:	00 01       	movw	r0, r0
     82c:	01 f6       	brne	.-128    	; 0x7ae <__fixsfsi+0x6c>
     82e:	f5 0a       	sbc	r15, r21
     830:	00 01       	movw	r0, r0
     832:	01 01       	movw	r0, r2
     834:	01 00       	.word	0x0001	; ????
     836:	00 00       	nop
     838:	01 2e       	mov	r0, r17
     83a:	2e 2f       	mov	r18, r30
     83c:	2e 2e       	mov	r2, r30
     83e:	2f 2e       	mov	r2, r31
     840:	2e 2f       	mov	r18, r30
     842:	2e 2e       	mov	r2, r30
     844:	2f 67       	ori	r18, 0x7F	; 127
     846:	63 63       	ori	r22, 0x33	; 51
     848:	2d 34       	cpi	r18, 0x4D	; 77
     84a:	2e 33       	cpi	r18, 0x3E	; 62
     84c:	2e 33       	cpi	r18, 0x3E	; 62
     84e:	2f 6c       	ori	r18, 0xCF	; 207
     850:	69 62       	ori	r22, 0x29	; 41
     852:	67 63       	ori	r22, 0x37	; 55
     854:	63 2f       	mov	r22, r19
     856:	2e 2e       	mov	r2, r30
     858:	2f 67       	ori	r18, 0x7F	; 127
     85a:	63 63       	ori	r22, 0x33	; 51
     85c:	2f 63       	ori	r18, 0x3F	; 63
     85e:	6f 6e       	ori	r22, 0xEF	; 239
     860:	66 69       	ori	r22, 0x96	; 150
     862:	67 00       	.word	0x0067	; ????
     864:	2e 2e       	mov	r2, r30
     866:	2f 2e       	mov	r2, r31
     868:	2e 2f       	mov	r18, r30
     86a:	2e 2e       	mov	r2, r30
     86c:	2f 2e       	mov	r2, r31
     86e:	2f 67       	ori	r18, 0x7F	; 127
     870:	63 63       	ori	r22, 0x33	; 51
     872:	00 00       	nop
     874:	66 70       	andi	r22, 0x06	; 6
     876:	2d 62       	ori	r18, 0x2D	; 45
     878:	69 74       	andi	r22, 0x49	; 73
     87a:	2e 63       	ori	r18, 0x3E	; 62
     87c:	00 02       	muls	r16, r16
     87e:	00 00       	nop
     880:	66 70       	andi	r22, 0x06	; 6
     882:	2d 62       	ori	r18, 0x2D	; 45
     884:	69 74       	andi	r22, 0x49	; 73
     886:	2e 68       	ori	r18, 0x8E	; 142
     888:	00 01       	movw	r0, r0
     88a:	00 00       	nop
     88c:	00 00       	nop
     88e:	05 02       	muls	r16, r21
     890:	22 06       	cpc	r2, r18
     892:	00 00       	nop
     894:	03 dd       	rcall	.-1530   	; 0x29c <_fpadd_parts+0x1c2>
     896:	09 01       	movw	r0, r18
     898:	00 05       	cpc	r16, r0
     89a:	02 2e       	mov	r0, r18
     89c:	06 00       	.word	0x0006	; ????
     89e:	00 19       	sub	r16, r0
     8a0:	00 05       	cpc	r16, r0
     8a2:	02 36       	cpi	r16, 0x62	; 98
     8a4:	06 00       	.word	0x0006	; ????
     8a6:	00 15       	cp	r16, r0
     8a8:	00 05       	cpc	r16, r0
     8aa:	02 3e       	cpi	r16, 0xE2	; 226
     8ac:	06 00       	.word	0x0006	; ????
     8ae:	00 16       	cp	r0, r16
     8b0:	00 05       	cpc	r16, r0
     8b2:	02 52       	subi	r16, 0x22	; 34
     8b4:	06 00       	.word	0x0006	; ????
     8b6:	00 15       	cp	r16, r0
     8b8:	00 05       	cpc	r16, r0
     8ba:	02 62       	ori	r16, 0x22	; 34
     8bc:	06 00       	.word	0x0006	; ????
     8be:	00 16       	cp	r0, r16
     8c0:	00 05       	cpc	r16, r0
     8c2:	02 6e       	ori	r16, 0xE2	; 226
     8c4:	06 00       	.word	0x0006	; ????
     8c6:	00 17       	cp	r16, r16
     8c8:	00 05       	cpc	r16, r0
     8ca:	02 7a       	andi	r16, 0xA2	; 162
     8cc:	06 00       	.word	0x0006	; ????
     8ce:	00 15       	cp	r16, r0
     8d0:	00 05       	cpc	r16, r0
     8d2:	02 82       	std	Z+2, r0	; 0x02
     8d4:	06 00       	.word	0x0006	; ????
     8d6:	00 00       	nop
     8d8:	01 01       	movw	r0, r2
     8da:	16 00       	.word	0x0016	; ????
     8dc:	00 00       	nop
     8de:	02 00       	.word	0x0002	; ????
     8e0:	10 00       	.word	0x0010	; ????
     8e2:	00 00       	nop
     8e4:	01 01       	movw	r0, r2
     8e6:	fb 0e       	add	r15, r27
     8e8:	0a 00       	.word	0x000a	; ????
     8ea:	01 01       	movw	r0, r2
     8ec:	01 01       	movw	r0, r2
     8ee:	00 00       	nop
     8f0:	00 01       	movw	r0, r0
     8f2:	00 00       	nop
     8f4:	b5 00       	.word	0x00b5	; ????
     8f6:	00 00       	nop
     8f8:	02 00       	.word	0x0002	; ????
     8fa:	62 00       	.word	0x0062	; ????
     8fc:	00 00       	nop
     8fe:	01 01       	movw	r0, r2
     900:	f6 f5       	brtc	.+124    	; 0x97e <__stack+0x11f>
     902:	0a 00       	.word	0x000a	; ????
     904:	01 01       	movw	r0, r2
     906:	01 01       	movw	r0, r2
     908:	00 00       	nop
     90a:	00 01       	movw	r0, r0
     90c:	2e 2e       	mov	r2, r30
     90e:	2f 2e       	mov	r2, r31
     910:	2e 2f       	mov	r18, r30
     912:	2e 2e       	mov	r2, r30
     914:	2f 2e       	mov	r2, r31
     916:	2e 2f       	mov	r18, r30
     918:	67 63       	ori	r22, 0x37	; 55
     91a:	63 2d       	mov	r22, r3
     91c:	34 2e       	mov	r3, r20
     91e:	33 2e       	mov	r3, r19
     920:	33 2f       	mov	r19, r19
     922:	6c 69       	ori	r22, 0x9C	; 156
     924:	62 67       	ori	r22, 0x72	; 114
     926:	63 63       	ori	r22, 0x33	; 51
     928:	2f 2e       	mov	r2, r31
     92a:	2e 2f       	mov	r18, r30
     92c:	67 63       	ori	r22, 0x37	; 55
     92e:	63 2f       	mov	r22, r19
     930:	63 6f       	ori	r22, 0xF3	; 243
     932:	6e 66       	ori	r22, 0x6E	; 110
     934:	69 67       	ori	r22, 0x79	; 121
     936:	00 2e       	mov	r0, r16
     938:	2e 2f       	mov	r18, r30
     93a:	2e 2e       	mov	r2, r30
     93c:	2f 2e       	mov	r2, r31
     93e:	2e 2f       	mov	r18, r30
     940:	2e 2f       	mov	r18, r30
     942:	67 63       	ori	r22, 0x37	; 55
     944:	63 00       	.word	0x0063	; ????
     946:	00 66       	ori	r16, 0x60	; 96
     948:	70 2d       	mov	r23, r0
     94a:	62 69       	ori	r22, 0x92	; 146
     94c:	74 2e       	mov	r7, r20
     94e:	63 00       	.word	0x0063	; ????
     950:	02 00       	.word	0x0002	; ????
     952:	00 66       	ori	r16, 0x60	; 96
     954:	70 2d       	mov	r23, r0
     956:	62 69       	ori	r22, 0x92	; 146
     958:	74 2e       	mov	r7, r20
     95a:	68 00       	.word	0x0068	; ????
     95c:	01 00       	.word	0x0001	; ????
     95e:	00 00       	nop
     960:	00 05       	cpc	r16, r0
     962:	02 82       	std	Z+2, r0	; 0x02
     964:	06 00       	.word	0x0006	; ????
     966:	00 03       	mulsu	r16, r16
     968:	f2 09       	sbc	r31, r2
     96a:	01 00       	.word	0x0001	; ????
     96c:	05 02       	muls	r16, r21
     96e:	8e 06       	cpc	r8, r30
     970:	00 00       	nop
     972:	19 00       	.word	0x0019	; ????
     974:	05 02       	muls	r16, r21
     976:	96 06       	cpc	r9, r22
     978:	00 00       	nop
     97a:	15 00       	.word	0x0015	; ????
     97c:	05 02       	muls	r16, r21
     97e:	9e 06       	cpc	r9, r30
     980:	00 00       	nop
     982:	16 00       	.word	0x0016	; ????
     984:	05 02       	muls	r16, r21
     986:	b2 06       	cpc	r11, r18
     988:	00 00       	nop
     98a:	15 00       	.word	0x0015	; ????
     98c:	05 02       	muls	r16, r21
     98e:	c2 06       	cpc	r12, r18
     990:	00 00       	nop
     992:	16 00       	.word	0x0016	; ????
     994:	05 02       	muls	r16, r21
     996:	ce 06       	cpc	r12, r30
     998:	00 00       	nop
     99a:	16 00       	.word	0x0016	; ????
     99c:	05 02       	muls	r16, r21
     99e:	da 06       	cpc	r13, r26
     9a0:	00 00       	nop
     9a2:	15 00       	.word	0x0015	; ????
     9a4:	05 02       	muls	r16, r21
     9a6:	e2 06       	cpc	r14, r18
     9a8:	00 00       	nop
     9aa:	00 01       	movw	r0, r0
     9ac:	01 16       	cp	r0, r17
     9ae:	00 00       	nop
     9b0:	00 02       	muls	r16, r16
     9b2:	00 10       	cpse	r0, r0
     9b4:	00 00       	nop
     9b6:	00 01       	movw	r0, r0
     9b8:	01 fb       	bst	r16, 1
     9ba:	0e 0a       	sbc	r0, r30
     9bc:	00 01       	movw	r0, r0
     9be:	01 01       	movw	r0, r2
     9c0:	01 00       	.word	0x0001	; ????
     9c2:	00 00       	nop
     9c4:	01 00       	.word	0x0001	; ????
     9c6:	00 b5       	in	r16, 0x20	; 32
     9c8:	00 00       	nop
     9ca:	00 02       	muls	r16, r16
     9cc:	00 62       	ori	r16, 0x20	; 32
     9ce:	00 00       	nop
     9d0:	00 01       	movw	r0, r0
     9d2:	01 f6       	brne	.-128    	; 0x954 <__stack+0xf5>
     9d4:	f5 0a       	sbc	r15, r21
     9d6:	00 01       	movw	r0, r0
     9d8:	01 01       	movw	r0, r2
     9da:	01 00       	.word	0x0001	; ????
     9dc:	00 00       	nop
     9de:	01 2e       	mov	r0, r17
     9e0:	2e 2f       	mov	r18, r30
     9e2:	2e 2e       	mov	r2, r30
     9e4:	2f 2e       	mov	r2, r31
     9e6:	2e 2f       	mov	r18, r30
     9e8:	2e 2e       	mov	r2, r30
     9ea:	2f 67       	ori	r18, 0x7F	; 127
     9ec:	63 63       	ori	r22, 0x33	; 51
     9ee:	2d 34       	cpi	r18, 0x4D	; 77
     9f0:	2e 33       	cpi	r18, 0x3E	; 62
     9f2:	2e 33       	cpi	r18, 0x3E	; 62
     9f4:	2f 6c       	ori	r18, 0xCF	; 207
     9f6:	69 62       	ori	r22, 0x29	; 41
     9f8:	67 63       	ori	r22, 0x37	; 55
     9fa:	63 2f       	mov	r22, r19
     9fc:	2e 2e       	mov	r2, r30
     9fe:	2f 67       	ori	r18, 0x7F	; 127
     a00:	63 63       	ori	r22, 0x33	; 51
     a02:	2f 63       	ori	r18, 0x3F	; 63
     a04:	6f 6e       	ori	r22, 0xEF	; 239
     a06:	66 69       	ori	r22, 0x96	; 150
     a08:	67 00       	.word	0x0067	; ????
     a0a:	2e 2e       	mov	r2, r30
     a0c:	2f 2e       	mov	r2, r31
     a0e:	2e 2f       	mov	r18, r30
     a10:	2e 2e       	mov	r2, r30
     a12:	2f 2e       	mov	r2, r31
     a14:	2f 67       	ori	r18, 0x7F	; 127
     a16:	63 63       	ori	r22, 0x33	; 51
     a18:	00 00       	nop
     a1a:	66 70       	andi	r22, 0x06	; 6
     a1c:	2d 62       	ori	r18, 0x2D	; 45
     a1e:	69 74       	andi	r22, 0x49	; 73
     a20:	2e 63       	ori	r18, 0x3E	; 62
     a22:	00 02       	muls	r16, r16
     a24:	00 00       	nop
     a26:	66 70       	andi	r22, 0x06	; 6
     a28:	2d 62       	ori	r18, 0x2D	; 45
     a2a:	69 74       	andi	r22, 0x49	; 73
     a2c:	2e 68       	ori	r18, 0x8E	; 142
     a2e:	00 01       	movw	r0, r0
     a30:	00 00       	nop
     a32:	00 00       	nop
     a34:	05 02       	muls	r16, r21
     a36:	e2 06       	cpc	r14, r18
     a38:	00 00       	nop
     a3a:	03 86       	std	Z+11, r0	; 0x0b
     a3c:	0a 01       	movw	r0, r20
     a3e:	00 05       	cpc	r16, r0
     a40:	02 ee       	ldi	r16, 0xE2	; 226
     a42:	06 00       	.word	0x0006	; ????
     a44:	00 19       	sub	r16, r0
     a46:	00 05       	cpc	r16, r0
     a48:	02 f6       	brpl	.-128    	; 0x9ca <__unpack_f+0x36>
     a4a:	06 00       	.word	0x0006	; ????
     a4c:	00 15       	cp	r16, r0
     a4e:	00 05       	cpc	r16, r0
     a50:	02 fe       	sbrs	r0, 2
     a52:	06 00       	.word	0x0006	; ????
     a54:	00 16       	cp	r0, r16
     a56:	00 05       	cpc	r16, r0
     a58:	02 12       	cpse	r0, r18
     a5a:	07 00       	.word	0x0007	; ????
     a5c:	00 15       	cp	r16, r0
     a5e:	00 05       	cpc	r16, r0
     a60:	02 22       	and	r0, r18
     a62:	07 00       	.word	0x0007	; ????
     a64:	00 16       	cp	r0, r16
     a66:	00 05       	cpc	r16, r0
     a68:	02 2e       	mov	r0, r18
     a6a:	07 00       	.word	0x0007	; ????
     a6c:	00 17       	cp	r16, r16
     a6e:	00 05       	cpc	r16, r0
     a70:	02 3a       	cpi	r16, 0xA2	; 162
     a72:	07 00       	.word	0x0007	; ????
     a74:	00 15       	cp	r16, r0
     a76:	00 05       	cpc	r16, r0
     a78:	02 42       	sbci	r16, 0x22	; 34
     a7a:	07 00       	.word	0x0007	; ????
     a7c:	00 00       	nop
     a7e:	01 01       	movw	r0, r2
     a80:	16 00       	.word	0x0016	; ????
     a82:	00 00       	nop
     a84:	02 00       	.word	0x0002	; ????
     a86:	10 00       	.word	0x0010	; ????
     a88:	00 00       	nop
     a8a:	01 01       	movw	r0, r2
     a8c:	fb 0e       	add	r15, r27
     a8e:	0a 00       	.word	0x000a	; ????
     a90:	01 01       	movw	r0, r2
     a92:	01 01       	movw	r0, r2
     a94:	00 00       	nop
     a96:	00 01       	movw	r0, r0
     a98:	00 00       	nop
     a9a:	eb 00       	.word	0x00eb	; ????
     a9c:	00 00       	nop
     a9e:	02 00       	.word	0x0002	; ????
     aa0:	62 00       	.word	0x0062	; ????
     aa2:	00 00       	nop
     aa4:	01 01       	movw	r0, r2
     aa6:	f6 f5       	brtc	.+124    	; 0xb24 <__fpcmp_parts_f+0xa0>
     aa8:	0a 00       	.word	0x000a	; ????
     aaa:	01 01       	movw	r0, r2
     aac:	01 01       	movw	r0, r2
     aae:	00 00       	nop
     ab0:	00 01       	movw	r0, r0
     ab2:	2e 2e       	mov	r2, r30
     ab4:	2f 2e       	mov	r2, r31
     ab6:	2e 2f       	mov	r18, r30
     ab8:	2e 2e       	mov	r2, r30
     aba:	2f 2e       	mov	r2, r31
     abc:	2e 2f       	mov	r18, r30
     abe:	67 63       	ori	r22, 0x37	; 55
     ac0:	63 2d       	mov	r22, r3
     ac2:	34 2e       	mov	r3, r20
     ac4:	33 2e       	mov	r3, r19
     ac6:	33 2f       	mov	r19, r19
     ac8:	6c 69       	ori	r22, 0x9C	; 156
     aca:	62 67       	ori	r22, 0x72	; 114
     acc:	63 63       	ori	r22, 0x33	; 51
     ace:	2f 2e       	mov	r2, r31
     ad0:	2e 2f       	mov	r18, r30
     ad2:	67 63       	ori	r22, 0x37	; 55
     ad4:	63 2f       	mov	r22, r19
     ad6:	63 6f       	ori	r22, 0xF3	; 243
     ad8:	6e 66       	ori	r22, 0x6E	; 110
     ada:	69 67       	ori	r22, 0x79	; 121
     adc:	00 2e       	mov	r0, r16
     ade:	2e 2f       	mov	r18, r30
     ae0:	2e 2e       	mov	r2, r30
     ae2:	2f 2e       	mov	r2, r31
     ae4:	2e 2f       	mov	r18, r30
     ae6:	2e 2f       	mov	r18, r30
     ae8:	67 63       	ori	r22, 0x37	; 55
     aea:	63 00       	.word	0x0063	; ????
     aec:	00 66       	ori	r16, 0x60	; 96
     aee:	70 2d       	mov	r23, r0
     af0:	62 69       	ori	r22, 0x92	; 146
     af2:	74 2e       	mov	r7, r20
     af4:	63 00       	.word	0x0063	; ????
     af6:	02 00       	.word	0x0002	; ????
     af8:	00 66       	ori	r16, 0x60	; 96
     afa:	70 2d       	mov	r23, r0
     afc:	62 69       	ori	r22, 0x92	; 146
     afe:	74 2e       	mov	r7, r20
     b00:	68 00       	.word	0x0068	; ????
     b02:	01 00       	.word	0x0001	; ????
     b04:	00 00       	nop
     b06:	00 05       	cpc	r16, r0
     b08:	02 42       	sbci	r16, 0x22	; 34
     b0a:	07 00       	.word	0x0007	; ????
     b0c:	00 03       	mulsu	r16, r16
     b0e:	92 0b       	sbc	r25, r18
     b10:	01 00       	.word	0x0001	; ????
     b12:	05 02       	muls	r16, r21
     b14:	4e 07       	cpc	r20, r30
     b16:	00 00       	nop
     b18:	19 00       	.word	0x0019	; ????
     b1a:	05 02       	muls	r16, r21
     b1c:	56 07       	cpc	r21, r22
     b1e:	00 00       	nop
     b20:	15 00       	.word	0x0015	; ????
     b22:	05 02       	muls	r16, r21
     b24:	64 07       	cpc	r22, r20
     b26:	00 00       	nop
     b28:	03 9f       	mul	r16, r19
     b2a:	76 01       	movw	r14, r12
     b2c:	00 05       	cpc	r16, r0
     b2e:	02 66       	ori	r16, 0x62	; 98
     b30:	07 00       	.word	0x0007	; ????
     b32:	00 03       	mulsu	r16, r16
     b34:	e3 09       	sbc	r30, r3
     b36:	01 00       	.word	0x0001	; ????
     b38:	05 02       	muls	r16, r21
     b3a:	6a 07       	cpc	r22, r26
     b3c:	00 00       	nop
     b3e:	16 00       	.word	0x0016	; ????
     b40:	05 02       	muls	r16, r21
     b42:	6e 07       	cpc	r22, r30
     b44:	00 00       	nop
     b46:	17 00       	.word	0x0017	; ????
     b48:	05 02       	muls	r16, r21
     b4a:	72 07       	cpc	r23, r18
     b4c:	00 00       	nop
     b4e:	15 00       	.word	0x0015	; ????
     b50:	05 02       	muls	r16, r21
     b52:	7a 07       	cpc	r23, r26
     b54:	00 00       	nop
     b56:	16 00       	.word	0x0016	; ????
     b58:	05 02       	muls	r16, r21
     b5a:	84 07       	cpc	r24, r20
     b5c:	00 00       	nop
     b5e:	16 00       	.word	0x0016	; ????
     b60:	05 02       	muls	r16, r21
     b62:	8a 07       	cpc	r24, r26
     b64:	00 00       	nop
     b66:	15 00       	.word	0x0015	; ????
     b68:	05 02       	muls	r16, r21
     b6a:	90 07       	cpc	r25, r16
     b6c:	00 00       	nop
     b6e:	15 00       	.word	0x0015	; ????
     b70:	05 02       	muls	r16, r21
     b72:	ae 07       	cpc	r26, r30
     b74:	00 00       	nop
     b76:	15 00       	.word	0x0015	; ????
     b78:	05 02       	muls	r16, r21
     b7a:	de 07       	cpc	r29, r30
     b7c:	00 00       	nop
     b7e:	15 00       	.word	0x0015	; ????
     b80:	05 02       	muls	r16, r21
     b82:	ea 07       	cpc	r30, r26
     b84:	00 00       	nop
     b86:	00 01       	movw	r0, r0
     b88:	01 16       	cp	r0, r17
     b8a:	00 00       	nop
     b8c:	00 02       	muls	r16, r16
     b8e:	00 10       	cpse	r0, r0
     b90:	00 00       	nop
     b92:	00 01       	movw	r0, r0
     b94:	01 fb       	bst	r16, 1
     b96:	0e 0a       	sbc	r0, r30
     b98:	00 01       	movw	r0, r0
     b9a:	01 01       	movw	r0, r2
     b9c:	01 00       	.word	0x0001	; ????
     b9e:	00 00       	nop
     ba0:	01 00       	.word	0x0001	; ????
     ba2:	00 72       	andi	r16, 0x20	; 32
     ba4:	00 00       	nop
     ba6:	00 02       	muls	r16, r16
     ba8:	00 62       	ori	r16, 0x20	; 32
     baa:	00 00       	nop
     bac:	00 01       	movw	r0, r0
     bae:	01 f6       	brne	.-128    	; 0xb30 <__fpcmp_parts_f+0xac>
     bb0:	f5 0a       	sbc	r15, r21
     bb2:	00 01       	movw	r0, r0
     bb4:	01 01       	movw	r0, r2
     bb6:	01 00       	.word	0x0001	; ????
     bb8:	00 00       	nop
     bba:	01 2e       	mov	r0, r17
     bbc:	2e 2f       	mov	r18, r30
     bbe:	2e 2e       	mov	r2, r30
     bc0:	2f 2e       	mov	r2, r31
     bc2:	2e 2f       	mov	r18, r30
     bc4:	2e 2e       	mov	r2, r30
     bc6:	2f 67       	ori	r18, 0x7F	; 127
     bc8:	63 63       	ori	r22, 0x33	; 51
     bca:	2d 34       	cpi	r18, 0x4D	; 77
     bcc:	2e 33       	cpi	r18, 0x3E	; 62
     bce:	2e 33       	cpi	r18, 0x3E	; 62
     bd0:	2f 6c       	ori	r18, 0xCF	; 207
     bd2:	69 62       	ori	r22, 0x29	; 41
     bd4:	67 63       	ori	r22, 0x37	; 55
     bd6:	63 2f       	mov	r22, r19
     bd8:	2e 2e       	mov	r2, r30
     bda:	2f 67       	ori	r18, 0x7F	; 127
     bdc:	63 63       	ori	r22, 0x33	; 51
     bde:	2f 63       	ori	r18, 0x3F	; 63
     be0:	6f 6e       	ori	r22, 0xEF	; 239
     be2:	66 69       	ori	r22, 0x96	; 150
     be4:	67 00       	.word	0x0067	; ????
     be6:	2e 2e       	mov	r2, r30
     be8:	2f 2e       	mov	r2, r31
     bea:	2e 2f       	mov	r18, r30
     bec:	2e 2e       	mov	r2, r30
     bee:	2f 2e       	mov	r2, r31
     bf0:	2f 67       	ori	r18, 0x7F	; 127
     bf2:	63 63       	ori	r22, 0x33	; 51
     bf4:	00 00       	nop
     bf6:	66 70       	andi	r22, 0x06	; 6
     bf8:	2d 62       	ori	r18, 0x2D	; 45
     bfa:	69 74       	andi	r22, 0x49	; 73
     bfc:	2e 68       	ori	r18, 0x8E	; 142
     bfe:	00 01       	movw	r0, r0
     c00:	00 00       	nop
     c02:	66 70       	andi	r22, 0x06	; 6
     c04:	2d 62       	ori	r18, 0x2D	; 45
     c06:	69 74       	andi	r22, 0x49	; 73
     c08:	2e 63       	ori	r18, 0x3E	; 62
     c0a:	00 02       	muls	r16, r16
     c0c:	00 00       	nop
     c0e:	00 00       	nop
     c10:	05 02       	muls	r16, r21
     c12:	ea 07       	cpc	r30, r26
     c14:	00 00       	nop
     c16:	00 01       	movw	r0, r0
     c18:	01 16       	cp	r0, r17
     c1a:	00 00       	nop
     c1c:	00 02       	muls	r16, r16
     c1e:	00 10       	cpse	r0, r0
     c20:	00 00       	nop
     c22:	00 01       	movw	r0, r0
     c24:	01 fb       	bst	r16, 1
     c26:	0e 0a       	sbc	r0, r30
     c28:	00 01       	movw	r0, r0
     c2a:	01 01       	movw	r0, r2
     c2c:	01 00       	.word	0x0001	; ????
     c2e:	00 00       	nop
     c30:	01 00       	.word	0x0001	; ????
     c32:	00 6c       	ori	r16, 0xC0	; 192
     c34:	01 00       	.word	0x0001	; ????
     c36:	00 02       	muls	r16, r16
     c38:	00 62       	ori	r16, 0x20	; 32
     c3a:	00 00       	nop
     c3c:	00 01       	movw	r0, r0
     c3e:	01 f6       	brne	.-128    	; 0xbc0 <main+0x8a>
     c40:	f5 0a       	sbc	r15, r21
     c42:	00 01       	movw	r0, r0
     c44:	01 01       	movw	r0, r2
     c46:	01 00       	.word	0x0001	; ????
     c48:	00 00       	nop
     c4a:	01 2e       	mov	r0, r17
     c4c:	2e 2f       	mov	r18, r30
     c4e:	2e 2e       	mov	r2, r30
     c50:	2f 2e       	mov	r2, r31
     c52:	2e 2f       	mov	r18, r30
     c54:	2e 2e       	mov	r2, r30
     c56:	2f 67       	ori	r18, 0x7F	; 127
     c58:	63 63       	ori	r22, 0x33	; 51
     c5a:	2d 34       	cpi	r18, 0x4D	; 77
     c5c:	2e 33       	cpi	r18, 0x3E	; 62
     c5e:	2e 33       	cpi	r18, 0x3E	; 62
     c60:	2f 6c       	ori	r18, 0xCF	; 207
     c62:	69 62       	ori	r22, 0x29	; 41
     c64:	67 63       	ori	r22, 0x37	; 55
     c66:	63 2f       	mov	r22, r19
     c68:	2e 2e       	mov	r2, r30
     c6a:	2f 67       	ori	r18, 0x7F	; 127
     c6c:	63 63       	ori	r22, 0x33	; 51
     c6e:	2f 63       	ori	r18, 0x3F	; 63
     c70:	6f 6e       	ori	r22, 0xEF	; 239
     c72:	66 69       	ori	r22, 0x96	; 150
     c74:	67 00       	.word	0x0067	; ????
     c76:	2e 2e       	mov	r2, r30
     c78:	2f 2e       	mov	r2, r31
     c7a:	2e 2f       	mov	r18, r30
     c7c:	2e 2e       	mov	r2, r30
     c7e:	2f 2e       	mov	r2, r31
     c80:	2f 67       	ori	r18, 0x7F	; 127
     c82:	63 63       	ori	r22, 0x33	; 51
     c84:	00 00       	nop
     c86:	66 70       	andi	r22, 0x06	; 6
     c88:	2d 62       	ori	r18, 0x2D	; 45
     c8a:	69 74       	andi	r22, 0x49	; 73
     c8c:	2e 63       	ori	r18, 0x3E	; 62
     c8e:	00 02       	muls	r16, r16
     c90:	00 00       	nop
     c92:	66 70       	andi	r22, 0x06	; 6
     c94:	2d 62       	ori	r18, 0x2D	; 45
     c96:	69 74       	andi	r22, 0x49	; 73
     c98:	2e 68       	ori	r18, 0x8E	; 142
     c9a:	00 01       	movw	r0, r0
     c9c:	00 00       	nop
     c9e:	00 00       	nop
     ca0:	05 02       	muls	r16, r21
     ca2:	ea 07       	cpc	r30, r26
     ca4:	00 00       	nop
     ca6:	ea 00       	.word	0x00ea	; ????
     ca8:	05 02       	muls	r16, r21
     caa:	f6 07       	cpc	r31, r22
     cac:	00 00       	nop
     cae:	16 00       	.word	0x0016	; ????
     cb0:	05 02       	muls	r16, r21
     cb2:	fe 07       	cpc	r31, r30
     cb4:	00 00       	nop
     cb6:	15 00       	.word	0x0015	; ????
     cb8:	05 02       	muls	r16, r21
     cba:	00 08       	sbc	r0, r0
     cbc:	00 00       	nop
     cbe:	03 4d       	sbci	r16, 0xD3	; 211
     cc0:	01 00       	.word	0x0001	; ????
     cc2:	05 02       	muls	r16, r21
     cc4:	02 08       	sbc	r0, r2
     cc6:	00 00       	nop
     cc8:	52 00       	.word	0x0052	; ????
     cca:	05 02       	muls	r16, r21
     ccc:	06 08       	sbc	r0, r6
     cce:	00 00       	nop
     cd0:	1c 00       	.word	0x001c	; ????
     cd2:	05 02       	muls	r16, r21
     cd4:	18 08       	sbc	r1, r8
     cd6:	00 00       	nop
     cd8:	18 00       	.word	0x0018	; ????
     cda:	05 02       	muls	r16, r21
     cdc:	1e 08       	sbc	r1, r14
     cde:	00 00       	nop
     ce0:	19 00       	.word	0x0019	; ????
     ce2:	05 02       	muls	r16, r21
     ce4:	2a 08       	sbc	r2, r10
     ce6:	00 00       	nop
     ce8:	19 00       	.word	0x0019	; ????
     cea:	05 02       	muls	r16, r21
     cec:	3a 08       	sbc	r3, r10
     cee:	00 00       	nop
     cf0:	1a 00       	.word	0x001a	; ????
     cf2:	05 02       	muls	r16, r21
     cf4:	48 08       	sbc	r4, r8
     cf6:	00 00       	nop
     cf8:	21 00       	.word	0x0021	; ????
     cfa:	05 02       	muls	r16, r21
     cfc:	50 08       	sbc	r5, r0
     cfe:	00 00       	nop
     d00:	18 00       	.word	0x0018	; ????
     d02:	05 02       	muls	r16, r21
     d04:	60 08       	sbc	r6, r0
     d06:	00 00       	nop
     d08:	1c 00       	.word	0x001c	; ????
     d0a:	05 02       	muls	r16, r21
     d0c:	b4 08       	sbc	r11, r4
     d0e:	00 00       	nop
     d10:	16 00       	.word	0x0016	; ????
     d12:	05 02       	muls	r16, r21
     d14:	ca 08       	sbc	r12, r10
     d16:	00 00       	nop
     d18:	16 00       	.word	0x0016	; ????
     d1a:	05 02       	muls	r16, r21
     d1c:	ce 08       	sbc	r12, r14
     d1e:	00 00       	nop
     d20:	15 00       	.word	0x0015	; ????
     d22:	05 02       	muls	r16, r21
     d24:	d8 08       	sbc	r13, r8
     d26:	00 00       	nop
     d28:	19 00       	.word	0x0019	; ????
     d2a:	05 02       	muls	r16, r21
     d2c:	f8 08       	sbc	r15, r8
     d2e:	00 00       	nop
     d30:	1c 00       	.word	0x001c	; ????
     d32:	05 02       	muls	r16, r21
     d34:	fe 08       	sbc	r15, r14
     d36:	00 00       	nop
     d38:	17 00       	.word	0x0017	; ????
     d3a:	05 02       	muls	r16, r21
     d3c:	04 09       	sbc	r16, r4
     d3e:	00 00       	nop
     d40:	1c 00       	.word	0x001c	; ????
     d42:	05 02       	muls	r16, r21
     d44:	0a 09       	sbc	r16, r10
     d46:	00 00       	nop
     d48:	1a 00       	.word	0x001a	; ????
     d4a:	05 02       	muls	r16, r21
     d4c:	20 09       	sbc	r18, r0
     d4e:	00 00       	nop
     d50:	16 00       	.word	0x0016	; ????
     d52:	05 02       	muls	r16, r21
     d54:	24 09       	sbc	r18, r4
     d56:	00 00       	nop
     d58:	15 00       	.word	0x0015	; ????
     d5a:	05 02       	muls	r16, r21
     d5c:	2e 09       	sbc	r18, r14
     d5e:	00 00       	nop
     d60:	19 00       	.word	0x0019	; ????
     d62:	05 02       	muls	r16, r21
     d64:	3e 09       	sbc	r19, r14
     d66:	00 00       	nop
     d68:	16 00       	.word	0x0016	; ????
     d6a:	05 02       	muls	r16, r21
     d6c:	42 09       	sbc	r20, r2
     d6e:	00 00       	nop
     d70:	16 00       	.word	0x0016	; ????
     d72:	05 02       	muls	r16, r21
     d74:	4a 09       	sbc	r20, r10
     d76:	00 00       	nop
     d78:	15 00       	.word	0x0015	; ????
     d7a:	05 02       	muls	r16, r21
     d7c:	4c 09       	sbc	r20, r12
     d7e:	00 00       	nop
     d80:	17 00       	.word	0x0017	; ????
     d82:	05 02       	muls	r16, r21
     d84:	66 09       	sbc	r22, r6
     d86:	00 00       	nop
     d88:	24 00       	.word	0x0024	; ????
     d8a:	05 02       	muls	r16, r21
     d8c:	72 09       	sbc	r23, r2
     d8e:	00 00       	nop
     d90:	15 00       	.word	0x0015	; ????
     d92:	05 02       	muls	r16, r21
     d94:	84 09       	sbc	r24, r4
     d96:	00 00       	nop
     d98:	7a 00       	.word	0x007a	; ????
     d9a:	05 02       	muls	r16, r21
     d9c:	94 09       	sbc	r25, r4
     d9e:	00 00       	nop
     da0:	00 01       	movw	r0, r0
     da2:	01 16       	cp	r0, r17
     da4:	00 00       	nop
     da6:	00 02       	muls	r16, r16
     da8:	00 10       	cpse	r0, r0
     daa:	00 00       	nop
     dac:	00 01       	movw	r0, r0
     dae:	01 fb       	bst	r16, 1
     db0:	0e 0a       	sbc	r0, r30
     db2:	00 01       	movw	r0, r0
     db4:	01 01       	movw	r0, r2
     db6:	01 00       	.word	0x0001	; ????
     db8:	00 00       	nop
     dba:	01 00       	.word	0x0001	; ????
     dbc:	00 2d       	mov	r16, r0
     dbe:	01 00       	.word	0x0001	; ????
     dc0:	00 02       	muls	r16, r16
     dc2:	00 62       	ori	r16, 0x20	; 32
     dc4:	00 00       	nop
     dc6:	00 01       	movw	r0, r0
     dc8:	01 f6       	brne	.-128    	; 0xd4a <__data_load_end+0x76>
     dca:	f5 0a       	sbc	r15, r21
     dcc:	00 01       	movw	r0, r0
     dce:	01 01       	movw	r0, r2
     dd0:	01 00       	.word	0x0001	; ????
     dd2:	00 00       	nop
     dd4:	01 2e       	mov	r0, r17
     dd6:	2e 2f       	mov	r18, r30
     dd8:	2e 2e       	mov	r2, r30
     dda:	2f 2e       	mov	r2, r31
     ddc:	2e 2f       	mov	r18, r30
     dde:	2e 2e       	mov	r2, r30
     de0:	2f 67       	ori	r18, 0x7F	; 127
     de2:	63 63       	ori	r22, 0x33	; 51
     de4:	2d 34       	cpi	r18, 0x4D	; 77
     de6:	2e 33       	cpi	r18, 0x3E	; 62
     de8:	2e 33       	cpi	r18, 0x3E	; 62
     dea:	2f 6c       	ori	r18, 0xCF	; 207
     dec:	69 62       	ori	r22, 0x29	; 41
     dee:	67 63       	ori	r22, 0x37	; 55
     df0:	63 2f       	mov	r22, r19
     df2:	2e 2e       	mov	r2, r30
     df4:	2f 67       	ori	r18, 0x7F	; 127
     df6:	63 63       	ori	r22, 0x33	; 51
     df8:	2f 63       	ori	r18, 0x3F	; 63
     dfa:	6f 6e       	ori	r22, 0xEF	; 239
     dfc:	66 69       	ori	r22, 0x96	; 150
     dfe:	67 00       	.word	0x0067	; ????
     e00:	2e 2e       	mov	r2, r30
     e02:	2f 2e       	mov	r2, r31
     e04:	2e 2f       	mov	r18, r30
     e06:	2e 2e       	mov	r2, r30
     e08:	2f 2e       	mov	r2, r31
     e0a:	2f 67       	ori	r18, 0x7F	; 127
     e0c:	63 63       	ori	r22, 0x33	; 51
     e0e:	00 00       	nop
     e10:	66 70       	andi	r22, 0x06	; 6
     e12:	2d 62       	ori	r18, 0x2D	; 45
     e14:	69 74       	andi	r22, 0x49	; 73
     e16:	2e 63       	ori	r18, 0x3E	; 62
     e18:	00 02       	muls	r16, r16
     e1a:	00 00       	nop
     e1c:	66 70       	andi	r22, 0x06	; 6
     e1e:	2d 62       	ori	r18, 0x2D	; 45
     e20:	69 74       	andi	r22, 0x49	; 73
     e22:	2e 68       	ori	r18, 0x8E	; 142
     e24:	00 01       	movw	r0, r0
     e26:	00 00       	nop
     e28:	00 00       	nop
     e2a:	05 02       	muls	r16, r21
     e2c:	94 09       	sbc	r25, r4
     e2e:	00 00       	nop
     e30:	03 c9       	rjmp	.-3578   	; 0x38 <__CCP__+0x4>
     e32:	03 01       	movw	r0, r6
     e34:	00 05       	cpc	r16, r0
     e36:	02 98       	cbi	0x00, 2	; 0
     e38:	09 00       	.word	0x0009	; ????
     e3a:	00 2c       	mov	r0, r0
     e3c:	00 05       	cpc	r16, r0
     e3e:	02 a4       	ldd	r0, Z+42	; 0x2a
     e40:	09 00       	.word	0x0009	; ????
     e42:	00 15       	cp	r16, r0
     e44:	00 05       	cpc	r16, r0
     e46:	02 b6       	in	r0, 0x32	; 50
     e48:	09 00       	.word	0x0009	; ????
     e4a:	00 49       	sbci	r16, 0x90	; 144
     e4c:	00 05       	cpc	r16, r0
     e4e:	02 c2       	rjmp	.+1028   	; 0x1254 <__data_load_end+0x580>
     e50:	09 00       	.word	0x0009	; ????
     e52:	00 15       	cp	r16, r0
     e54:	00 05       	cpc	r16, r0
     e56:	02 c8       	rjmp	.-4092   	; 0xfffffe5c <__eeprom_end+0xff7efe5c>
     e58:	09 00       	.word	0x0009	; ????
     e5a:	00 17       	cp	r16, r16
     e5c:	00 05       	cpc	r16, r0
     e5e:	02 d2       	rcall	.+1028   	; 0x1264 <__data_load_end+0x590>
     e60:	09 00       	.word	0x0009	; ????
     e62:	00 1b       	sub	r16, r16
     e64:	00 05       	cpc	r16, r0
     e66:	02 d6       	rcall	.+3076   	; 0x1a6c <__data_load_end+0xd98>
     e68:	09 00       	.word	0x0009	; ????
     e6a:	00 1b       	sub	r16, r16
     e6c:	00 05       	cpc	r16, r0
     e6e:	02 e2       	ldi	r16, 0x22	; 34
     e70:	09 00       	.word	0x0009	; ????
     e72:	00 15       	cp	r16, r0
     e74:	00 05       	cpc	r16, r0
     e76:	02 f4       	brpl	.+0      	; 0xe78 <__data_load_end+0x1a4>
     e78:	09 00       	.word	0x0009	; ????
     e7a:	00 16       	cp	r0, r16
     e7c:	00 05       	cpc	r16, r0
     e7e:	02 fa       	bst	r0, 2
     e80:	09 00       	.word	0x0009	; ????
     e82:	00 18       	sub	r0, r0
     e84:	00 05       	cpc	r16, r0
     e86:	02 02       	muls	r16, r18
     e88:	0a 00       	.word	0x000a	; ????
     e8a:	00 15       	cp	r16, r0
     e8c:	00 05       	cpc	r16, r0
     e8e:	02 14       	cp	r0, r2
     e90:	0a 00       	.word	0x000a	; ????
     e92:	00 11       	cpse	r16, r0
     e94:	00 05       	cpc	r16, r0
     e96:	02 24       	eor	r0, r2
     e98:	0a 00       	.word	0x000a	; ????
     e9a:	00 1a       	sub	r0, r16
     e9c:	00 05       	cpc	r16, r0
     e9e:	02 32       	cpi	r16, 0x22	; 34
     ea0:	0a 00       	.word	0x000a	; ????
     ea2:	00 17       	cp	r16, r16
     ea4:	00 05       	cpc	r16, r0
     ea6:	02 38       	cpi	r16, 0x82	; 130
     ea8:	0a 00       	.word	0x000a	; ????
     eaa:	00 18       	sub	r0, r0
     eac:	00 05       	cpc	r16, r0
     eae:	02 42       	sbci	r16, 0x22	; 34
     eb0:	0a 00       	.word	0x000a	; ????
     eb2:	00 17       	cp	r16, r16
     eb4:	00 05       	cpc	r16, r0
     eb6:	02 48       	sbci	r16, 0x82	; 130
     eb8:	0a 00       	.word	0x000a	; ????
     eba:	00 1c       	adc	r0, r0
     ebc:	00 05       	cpc	r16, r0
     ebe:	02 4c       	sbci	r16, 0xC2	; 194
     ec0:	0a 00       	.word	0x000a	; ????
     ec2:	00 17       	cp	r16, r16
     ec4:	00 05       	cpc	r16, r0
     ec6:	02 52       	subi	r16, 0x22	; 34
     ec8:	0a 00       	.word	0x000a	; ????
     eca:	00 18       	sub	r0, r0
     ecc:	00 05       	cpc	r16, r0
     ece:	02 56       	subi	r16, 0x62	; 98
     ed0:	0a 00       	.word	0x000a	; ????
     ed2:	00 1d       	adc	r16, r0
     ed4:	00 05       	cpc	r16, r0
     ed6:	02 62       	ori	r16, 0x22	; 34
     ed8:	0a 00       	.word	0x000a	; ????
     eda:	00 15       	cp	r16, r0
     edc:	00 05       	cpc	r16, r0
     ede:	02 66       	ori	r16, 0x62	; 98
     ee0:	0a 00       	.word	0x000a	; ????
     ee2:	00 15       	cp	r16, r0
     ee4:	00 05       	cpc	r16, r0
     ee6:	02 84       	ldd	r0, Z+10	; 0x0a
     ee8:	0a 00       	.word	0x000a	; ????
     eea:	00 00       	nop
     eec:	01 01       	movw	r0, r2
     eee:	16 00       	.word	0x0016	; ????
     ef0:	00 00       	nop
     ef2:	02 00       	.word	0x0002	; ????
     ef4:	10 00       	.word	0x0010	; ????
     ef6:	00 00       	nop
     ef8:	01 01       	movw	r0, r2
     efa:	fb 0e       	add	r15, r27
     efc:	0a 00       	.word	0x000a	; ????
     efe:	01 01       	movw	r0, r2
     f00:	01 01       	movw	r0, r2
     f02:	00 00       	nop
     f04:	00 01       	movw	r0, r0
     f06:	00 00       	nop
     f08:	19 01       	movw	r2, r18
     f0a:	00 00       	nop
     f0c:	02 00       	.word	0x0002	; ????
     f0e:	62 00       	.word	0x0062	; ????
     f10:	00 00       	nop
     f12:	01 01       	movw	r0, r2
     f14:	f6 f5       	brtc	.+124    	; 0xf92 <__data_load_end+0x2be>
     f16:	0a 00       	.word	0x000a	; ????
     f18:	01 01       	movw	r0, r2
     f1a:	01 01       	movw	r0, r2
     f1c:	00 00       	nop
     f1e:	00 01       	movw	r0, r0
     f20:	2e 2e       	mov	r2, r30
     f22:	2f 2e       	mov	r2, r31
     f24:	2e 2f       	mov	r18, r30
     f26:	2e 2e       	mov	r2, r30
     f28:	2f 2e       	mov	r2, r31
     f2a:	2e 2f       	mov	r18, r30
     f2c:	67 63       	ori	r22, 0x37	; 55
     f2e:	63 2d       	mov	r22, r3
     f30:	34 2e       	mov	r3, r20
     f32:	33 2e       	mov	r3, r19
     f34:	33 2f       	mov	r19, r19
     f36:	6c 69       	ori	r22, 0x9C	; 156
     f38:	62 67       	ori	r22, 0x72	; 114
     f3a:	63 63       	ori	r22, 0x33	; 51
     f3c:	2f 2e       	mov	r2, r31
     f3e:	2e 2f       	mov	r18, r30
     f40:	67 63       	ori	r22, 0x37	; 55
     f42:	63 2f       	mov	r22, r19
     f44:	63 6f       	ori	r22, 0xF3	; 243
     f46:	6e 66       	ori	r22, 0x6E	; 110
     f48:	69 67       	ori	r22, 0x79	; 121
     f4a:	00 2e       	mov	r0, r16
     f4c:	2e 2f       	mov	r18, r30
     f4e:	2e 2e       	mov	r2, r30
     f50:	2f 2e       	mov	r2, r31
     f52:	2e 2f       	mov	r18, r30
     f54:	2e 2f       	mov	r18, r30
     f56:	67 63       	ori	r22, 0x37	; 55
     f58:	63 00       	.word	0x0063	; ????
     f5a:	00 66       	ori	r16, 0x60	; 96
     f5c:	70 2d       	mov	r23, r0
     f5e:	62 69       	ori	r22, 0x92	; 146
     f60:	74 2e       	mov	r7, r20
     f62:	63 00       	.word	0x0063	; ????
     f64:	02 00       	.word	0x0002	; ????
     f66:	00 66       	ori	r16, 0x60	; 96
     f68:	70 2d       	mov	r23, r0
     f6a:	62 69       	ori	r22, 0x92	; 146
     f6c:	74 2e       	mov	r7, r20
     f6e:	68 00       	.word	0x0068	; ????
     f70:	01 00       	.word	0x0001	; ????
     f72:	00 00       	nop
     f74:	00 05       	cpc	r16, r0
     f76:	02 84       	ldd	r0, Z+10	; 0x0a
     f78:	0a 00       	.word	0x000a	; ????
     f7a:	00 03       	mulsu	r16, r16
     f7c:	ce 08       	sbc	r12, r14
     f7e:	01 00       	.word	0x0001	; ????
     f80:	05 02       	muls	r16, r21
     f82:	8a 0a       	sbc	r8, r26
     f84:	00 00       	nop
     f86:	03 d8       	rcall	.-4090   	; 0xffffff8e <__eeprom_end+0xff7eff8e>
     f88:	78 01       	movw	r14, r16
     f8a:	00 05       	cpc	r16, r0
     f8c:	02 8c       	ldd	r0, Z+26	; 0x1a
     f8e:	0a 00       	.word	0x000a	; ????
     f90:	00 03       	mulsu	r16, r16
     f92:	b1 07       	cpc	r27, r17
     f94:	01 00       	.word	0x0001	; ????
     f96:	05 02       	muls	r16, r21
     f98:	92 0a       	sbc	r9, r18
     f9a:	00 00       	nop
     f9c:	03 cf       	rjmp	.-506    	; 0xda4 <__data_load_end+0xd0>
     f9e:	78 01       	movw	r14, r16
     fa0:	00 05       	cpc	r16, r0
     fa2:	02 94       	swap	r0
     fa4:	0a 00       	.word	0x000a	; ????
     fa6:	00 03       	mulsu	r16, r16
     fa8:	b1 07       	cpc	r27, r17
     faa:	01 00       	.word	0x0001	; ????
     fac:	05 02       	muls	r16, r21
     fae:	9a 0a       	sbc	r9, r26
     fb0:	00 00       	nop
     fb2:	18 00       	.word	0x0018	; ????
     fb4:	05 02       	muls	r16, r21
     fb6:	a6 0a       	sbc	r10, r22
     fb8:	00 00       	nop
     fba:	1f 00       	.word	0x001f	; ????
     fbc:	05 02       	muls	r16, r21
     fbe:	b2 0a       	sbc	r11, r18
     fc0:	00 00       	nop
     fc2:	1b 00       	.word	0x001b	; ????
     fc4:	05 02       	muls	r16, r21
     fc6:	b6 0a       	sbc	r11, r22
     fc8:	00 00       	nop
     fca:	18 00       	.word	0x0018	; ????
     fcc:	05 02       	muls	r16, r21
     fce:	be 0a       	sbc	r11, r30
     fd0:	00 00       	nop
     fd2:	1a 00       	.word	0x001a	; ????
     fd4:	05 02       	muls	r16, r21
     fd6:	cc 0a       	sbc	r12, r28
     fd8:	00 00       	nop
     fda:	16 00       	.word	0x0016	; ????
     fdc:	05 02       	muls	r16, r21
     fde:	d0 0a       	sbc	r13, r16
     fe0:	00 00       	nop
     fe2:	19 00       	.word	0x0019	; ????
     fe4:	05 02       	muls	r16, r21
     fe6:	d6 0a       	sbc	r13, r22
     fe8:	00 00       	nop
     fea:	1a 00       	.word	0x001a	; ????
     fec:	05 02       	muls	r16, r21
     fee:	e8 0a       	sbc	r14, r24
     ff0:	00 00       	nop
     ff2:	18 00       	.word	0x0018	; ????
     ff4:	05 02       	muls	r16, r21
     ff6:	ee 0a       	sbc	r14, r30
     ff8:	00 00       	nop
     ffa:	19 00       	.word	0x0019	; ????
     ffc:	05 02       	muls	r16, r21
     ffe:	0c 0b       	sbc	r16, r28
    1000:	00 00       	nop
    1002:	16 00       	.word	0x0016	; ????
    1004:	05 02       	muls	r16, r21
    1006:	12 0b       	sbc	r17, r18
    1008:	00 00       	nop
    100a:	16 00       	.word	0x0016	; ????
    100c:	05 02       	muls	r16, r21
    100e:	1c 0b       	sbc	r17, r28
    1010:	00 00       	nop
    1012:	16 00       	.word	0x0016	; ????
    1014:	05 02       	muls	r16, r21
    1016:	30 0b       	sbc	r19, r16
    1018:	00 00       	nop
    101a:	18 00       	.word	0x0018	; ????
    101c:	05 02       	muls	r16, r21
    101e:	36 0b       	sbc	r19, r22
    1020:	00 00       	nop
    1022:	00 01       	movw	r0, r0
    1024:	01 16       	cp	r0, r17
    1026:	00 00       	nop
    1028:	00 02       	muls	r16, r16
    102a:	00 10       	cpse	r0, r0
    102c:	00 00       	nop
    102e:	00 01       	movw	r0, r0
    1030:	01 fb       	bst	r16, 1
    1032:	0e 0a       	sbc	r0, r30
    1034:	00 01       	movw	r0, r0
    1036:	01 01       	movw	r0, r2
    1038:	01 00       	.word	0x0001	; ????
    103a:	00 00       	nop
    103c:	01 00       	.word	0x0001	; ????
	...

Disassembly of section .debug_frame:

00000000 <.debug_frame>:
   0:	0c 00       	.word	0x000c	; ????
   2:	00 00       	nop
   4:	ff ff       	.word	0xffff	; ????
   6:	ff ff       	.word	0xffff	; ????
   8:	01 00       	.word	0x0001	; ????
   a:	01 7f       	andi	r16, 0xF1	; 241
   c:	24 0c       	add	r2, r4
   e:	20 00       	.word	0x0020	; ????
  10:	0c 00       	.word	0x000c	; ????
  12:	00 00       	nop
  14:	00 00       	nop
  16:	00 00       	nop
  18:	36 0b       	sbc	r19, r22
  1a:	00 00       	nop
  1c:	24 01       	movw	r4, r8
  1e:	00 00       	nop
  20:	0c 00       	.word	0x000c	; ????
  22:	00 00       	nop
  24:	ff ff       	.word	0xffff	; ????
  26:	ff ff       	.word	0xffff	; ????
  28:	01 00       	.word	0x0001	; ????
  2a:	01 7f       	andi	r16, 0xF1	; 241
  2c:	24 0c       	add	r2, r4
  2e:	20 00       	.word	0x0020	; ????
  30:	0c 00       	.word	0x000c	; ????
  32:	00 00       	nop
  34:	20 00       	.word	0x0020	; ????
  36:	00 00       	nop
  38:	82 00       	.word	0x0082	; ????
  3a:	00 00       	nop
  3c:	58 00       	.word	0x0058	; ????
  3e:	00 00       	nop
  40:	0c 00       	.word	0x000c	; ????
  42:	00 00       	nop
  44:	ff ff       	.word	0xffff	; ????
  46:	ff ff       	.word	0xffff	; ????
  48:	01 00       	.word	0x0001	; ????
  4a:	01 7f       	andi	r16, 0xF1	; 241
  4c:	24 0c       	add	r2, r4
  4e:	20 00       	.word	0x0020	; ????
  50:	0c 00       	.word	0x000c	; ????
  52:	00 00       	nop
  54:	40 00       	.word	0x0040	; ????
  56:	00 00       	nop
  58:	da 00       	.word	0x00da	; ????
  5a:	00 00       	nop
  5c:	98 02       	muls	r25, r24
  5e:	00 00       	nop
  60:	0c 00       	.word	0x000c	; ????
  62:	00 00       	nop
  64:	40 00       	.word	0x0040	; ????
  66:	00 00       	nop
  68:	72 03       	mulsu	r23, r18
  6a:	00 00       	nop
  6c:	62 00       	.word	0x0062	; ????
  6e:	00 00       	nop
  70:	0c 00       	.word	0x000c	; ????
  72:	00 00       	nop
  74:	40 00       	.word	0x0040	; ????
  76:	00 00       	nop
  78:	d4 03       	fmuls	r21, r20
  7a:	00 00       	nop
  7c:	5a 00       	.word	0x005a	; ????
  7e:	00 00       	nop
  80:	0c 00       	.word	0x000c	; ????
  82:	00 00       	nop
  84:	ff ff       	.word	0xffff	; ????
  86:	ff ff       	.word	0xffff	; ????
  88:	01 00       	.word	0x0001	; ????
  8a:	01 7f       	andi	r16, 0xF1	; 241
  8c:	24 0c       	add	r2, r4
  8e:	20 00       	.word	0x0020	; ????
  90:	0c 00       	.word	0x000c	; ????
  92:	00 00       	nop
  94:	80 00       	.word	0x0080	; ????
  96:	00 00       	nop
  98:	2e 04       	cpc	r2, r14
  9a:	00 00       	nop
  9c:	f4 01       	movw	r30, r8
  9e:	00 00       	nop
  a0:	0c 00       	.word	0x000c	; ????
  a2:	00 00       	nop
  a4:	ff ff       	.word	0xffff	; ????
  a6:	ff ff       	.word	0xffff	; ????
  a8:	01 00       	.word	0x0001	; ????
  aa:	01 7f       	andi	r16, 0xF1	; 241
  ac:	24 0c       	add	r2, r4
  ae:	20 00       	.word	0x0020	; ????
  b0:	0c 00       	.word	0x000c	; ????
  b2:	00 00       	nop
  b4:	a0 00       	.word	0x00a0	; ????
  b6:	00 00       	nop
  b8:	22 06       	cpc	r2, r18
  ba:	00 00       	nop
  bc:	60 00       	.word	0x0060	; ????
  be:	00 00       	nop
  c0:	0c 00       	.word	0x000c	; ????
  c2:	00 00       	nop
  c4:	ff ff       	.word	0xffff	; ????
  c6:	ff ff       	.word	0xffff	; ????
  c8:	01 00       	.word	0x0001	; ????
  ca:	01 7f       	andi	r16, 0xF1	; 241
  cc:	24 0c       	add	r2, r4
  ce:	20 00       	.word	0x0020	; ????
  d0:	0c 00       	.word	0x000c	; ????
  d2:	00 00       	nop
  d4:	c0 00       	.word	0x00c0	; ????
  d6:	00 00       	nop
  d8:	82 06       	cpc	r8, r18
  da:	00 00       	nop
  dc:	60 00       	.word	0x0060	; ????
  de:	00 00       	nop
  e0:	0c 00       	.word	0x000c	; ????
  e2:	00 00       	nop
  e4:	ff ff       	.word	0xffff	; ????
  e6:	ff ff       	.word	0xffff	; ????
  e8:	01 00       	.word	0x0001	; ????
  ea:	01 7f       	andi	r16, 0xF1	; 241
  ec:	24 0c       	add	r2, r4
  ee:	20 00       	.word	0x0020	; ????
  f0:	0c 00       	.word	0x000c	; ????
  f2:	00 00       	nop
  f4:	e0 00       	.word	0x00e0	; ????
  f6:	00 00       	nop
  f8:	e2 06       	cpc	r14, r18
  fa:	00 00       	nop
  fc:	60 00       	.word	0x0060	; ????
  fe:	00 00       	nop
 100:	0c 00       	.word	0x000c	; ????
 102:	00 00       	nop
 104:	ff ff       	.word	0xffff	; ????
 106:	ff ff       	.word	0xffff	; ????
 108:	01 00       	.word	0x0001	; ????
 10a:	01 7f       	andi	r16, 0xF1	; 241
 10c:	24 0c       	add	r2, r4
 10e:	20 00       	.word	0x0020	; ????
 110:	0c 00       	.word	0x000c	; ????
 112:	00 00       	nop
 114:	00 01       	movw	r0, r0
 116:	00 00       	nop
 118:	42 07       	cpc	r20, r18
 11a:	00 00       	nop
 11c:	a8 00       	.word	0x00a8	; ????
 11e:	00 00       	nop
 120:	0c 00       	.word	0x000c	; ????
 122:	00 00       	nop
 124:	ff ff       	.word	0xffff	; ????
 126:	ff ff       	.word	0xffff	; ????
 128:	01 00       	.word	0x0001	; ????
 12a:	01 7f       	andi	r16, 0xF1	; 241
 12c:	24 0c       	add	r2, r4
 12e:	20 00       	.word	0x0020	; ????
 130:	0c 00       	.word	0x000c	; ????
 132:	00 00       	nop
 134:	20 01       	movw	r4, r0
 136:	00 00       	nop
 138:	ea 07       	cpc	r30, r26
 13a:	00 00       	nop
 13c:	aa 01       	movw	r20, r20
 13e:	00 00       	nop
 140:	0c 00       	.word	0x000c	; ????
 142:	00 00       	nop
 144:	ff ff       	.word	0xffff	; ????
 146:	ff ff       	.word	0xffff	; ????
 148:	01 00       	.word	0x0001	; ????
 14a:	01 7f       	andi	r16, 0xF1	; 241
 14c:	24 0c       	add	r2, r4
 14e:	20 00       	.word	0x0020	; ????
 150:	0c 00       	.word	0x000c	; ????
 152:	00 00       	nop
 154:	40 01       	movw	r8, r0
 156:	00 00       	nop
 158:	94 09       	sbc	r25, r4
 15a:	00 00       	nop
 15c:	f0 00       	.word	0x00f0	; ????
 15e:	00 00       	nop
 160:	0c 00       	.word	0x000c	; ????
 162:	00 00       	nop
 164:	ff ff       	.word	0xffff	; ????
 166:	ff ff       	.word	0xffff	; ????
 168:	01 00       	.word	0x0001	; ????
 16a:	01 7f       	andi	r16, 0xF1	; 241
 16c:	24 0c       	add	r2, r4
 16e:	20 00       	.word	0x0020	; ????
 170:	0c 00       	.word	0x000c	; ????
 172:	00 00       	nop
 174:	60 01       	movw	r12, r0
 176:	00 00       	nop
 178:	84 0a       	sbc	r8, r20
 17a:	00 00       	nop
 17c:	b2 00       	.word	0x00b2	; ????
	...

Disassembly of section .debug_str:

00000000 <.debug_str>:
   0:	55 53       	subi	r21, 0x35	; 53
   2:	41 52       	subi	r20, 0x21	; 33
   4:	54 5f       	subi	r21, 0xF4	; 244
   6:	53 54       	subi	r21, 0x43	; 67
   8:	4f 50       	subi	r20, 0x0F	; 15
   a:	42 49       	sbci	r20, 0x92	; 146
   c:	54 00       	.word	0x0054	; ????
   e:	55 53       	subi	r21, 0x35	; 53
  10:	41 52       	subi	r20, 0x21	; 33
  12:	54 5f       	subi	r21, 0xF4	; 244
  14:	53 50       	subi	r21, 0x03	; 3
  16:	45 45       	sbci	r20, 0x55	; 85
  18:	44 5f       	subi	r20, 0xF4	; 244
  1a:	4d 4f       	sbci	r20, 0xFD	; 253
  1c:	44 45       	sbci	r20, 0x54	; 84
  1e:	00 55       	subi	r16, 0x50	; 80
  20:	53 41       	sbci	r21, 0x13	; 19
  22:	52 54       	subi	r21, 0x42	; 66
  24:	5f 52       	subi	r21, 0x2F	; 47
  26:	45 43       	sbci	r20, 0x35	; 53
  28:	49 45       	sbci	r20, 0x59	; 89
  2a:	56 45       	sbci	r21, 0x56	; 86
  2c:	5f 49       	sbci	r21, 0x9F	; 159
  2e:	4e 54       	subi	r20, 0x4E	; 78
  30:	00 5f       	subi	r16, 0xF0	; 240
  32:	64 65       	ori	r22, 0x54	; 84
  34:	6c 61       	ori	r22, 0x1C	; 28
  36:	79 5f       	subi	r23, 0xF9	; 249
  38:	6d 73       	andi	r22, 0x3D	; 61
  3a:	00 64       	ori	r16, 0x40	; 64
  3c:	6f 75       	andi	r22, 0x5F	; 95
  3e:	62 6c       	ori	r22, 0xC2	; 194
  40:	65 00       	.word	0x0065	; ????
  42:	55 53       	subi	r21, 0x35	; 53
  44:	41 52       	subi	r20, 0x21	; 33
  46:	54 5f       	subi	r21, 0xF4	; 244
  48:	39 5f       	subi	r19, 0xF9	; 249
  4a:	42 69       	ori	r20, 0x92	; 146
  4c:	74 5f       	subi	r23, 0xF4	; 244
  4e:	43 48       	sbci	r20, 0x83	; 131
  50:	41 52       	subi	r20, 0x21	; 33
  52:	00 55       	subi	r16, 0x50	; 80
  54:	53 41       	sbci	r21, 0x13	; 19
  56:	52 54       	subi	r21, 0x42	; 66
  58:	5f 4e       	sbci	r21, 0xEF	; 239
  5a:	4f 5f       	subi	r20, 0xFF	; 255
  5c:	50 41       	sbci	r21, 0x10	; 16
  5e:	52 49       	sbci	r21, 0x92	; 146
  60:	54 59       	subi	r21, 0x94	; 148
  62:	00 55       	subi	r16, 0x50	; 80
  64:	53 41       	sbci	r21, 0x13	; 19
  66:	52 54       	subi	r21, 0x42	; 66
  68:	5f 4f       	sbci	r21, 0xFF	; 255
  6a:	44 44       	sbci	r20, 0x44	; 68
  6c:	5f 50       	subi	r21, 0x0F	; 15
  6e:	41 52       	subi	r20, 0x21	; 33
  70:	49 54       	subi	r20, 0x49	; 73
  72:	59 00       	.word	0x0059	; ????
  74:	55 53       	subi	r21, 0x35	; 53
  76:	41 52       	subi	r20, 0x21	; 33
  78:	54 5f       	subi	r21, 0xF4	; 244
  7a:	41 53       	subi	r20, 0x31	; 49
  7c:	59 4e       	sbci	r21, 0xE9	; 233
  7e:	43 48       	sbci	r20, 0x83	; 131
  80:	00 55       	subi	r16, 0x50	; 80
  82:	53 41       	sbci	r21, 0x13	; 19
  84:	52 54       	subi	r21, 0x42	; 66
  86:	5f 54       	subi	r21, 0x4F	; 79
  88:	52 41       	sbci	r21, 0x12	; 18
  8a:	4e 53       	subi	r20, 0x3E	; 62
  8c:	4d 49       	sbci	r20, 0x9D	; 157
  8e:	54 45       	sbci	r21, 0x54	; 84
  90:	52 5f       	subi	r21, 0xF2	; 242
  92:	49 4e       	sbci	r20, 0xE9	; 233
  94:	54 00       	.word	0x0054	; ????
  96:	55 53       	subi	r21, 0x35	; 53
  98:	41 52       	subi	r20, 0x21	; 33
  9a:	54 5f       	subi	r21, 0xF4	; 244
  9c:	32 5f       	subi	r19, 0xF2	; 242
  9e:	53 54       	subi	r21, 0x43	; 67
  a0:	4f 50       	subi	r20, 0x0F	; 15
  a2:	42 49       	sbci	r20, 0x92	; 146
  a4:	54 00       	.word	0x0054	; ????
  a6:	75 6e       	ori	r23, 0xE5	; 229
  a8:	73 69       	ori	r23, 0x93	; 147
  aa:	67 6e       	ori	r22, 0xE7	; 231
  ac:	65 64       	ori	r22, 0x45	; 69
  ae:	20 63       	ori	r18, 0x30	; 48
  b0:	68 61       	ori	r22, 0x18	; 24
  b2:	72 00       	.word	0x0072	; ????
  b4:	55 53       	subi	r21, 0x35	; 53
  b6:	41 52       	subi	r20, 0x21	; 33
  b8:	54 5f       	subi	r21, 0xF4	; 244
  ba:	45 56       	subi	r20, 0x65	; 101
  bc:	45 4e       	sbci	r20, 0xE5	; 229
  be:	5f 50       	subi	r21, 0x0F	; 15
  c0:	41 52       	subi	r20, 0x21	; 33
  c2:	49 54       	subi	r20, 0x49	; 73
  c4:	59 00       	.word	0x0059	; ????
  c6:	5f 64       	ori	r21, 0x4F	; 79
  c8:	65 6c       	ori	r22, 0xC5	; 197
  ca:	61 79       	andi	r22, 0x91	; 145
  cc:	5f 6c       	ori	r21, 0xCF	; 207
  ce:	6f 6f       	ori	r22, 0xFF	; 255
  d0:	70 5f       	subi	r23, 0xF0	; 240
  d2:	32 00       	.word	0x0032	; ????
  d4:	55 53       	subi	r21, 0x35	; 53
  d6:	41 52       	subi	r20, 0x21	; 33
  d8:	54 5f       	subi	r21, 0xF4	; 244
  da:	38 5f       	subi	r19, 0xF8	; 248
  dc:	42 69       	ori	r20, 0x92	; 146
  de:	74 5f       	subi	r23, 0xF4	; 244
  e0:	43 48       	sbci	r20, 0x83	; 131
  e2:	41 52       	subi	r20, 0x21	; 33
  e4:	00 47       	sbci	r16, 0x70	; 112
  e6:	4e 55       	subi	r20, 0x5E	; 94
  e8:	20 43       	sbci	r18, 0x30	; 48
  ea:	20 34       	cpi	r18, 0x40	; 64
  ec:	2e 33       	cpi	r18, 0x3E	; 62
  ee:	2e 33       	cpi	r18, 0x3E	; 62
  f0:	00 55       	subi	r16, 0x50	; 80
  f2:	53 41       	sbci	r21, 0x13	; 19
  f4:	52 54       	subi	r21, 0x42	; 66
  f6:	5f 50       	subi	r21, 0x0F	; 15
  f8:	41 52       	subi	r20, 0x21	; 33
  fa:	49 54       	subi	r20, 0x49	; 73
  fc:	59 5f       	subi	r21, 0xF9	; 249
  fe:	4d 4f       	sbci	r20, 0xFD	; 253
 100:	44 45       	sbci	r20, 0x54	; 84
 102:	00 55       	subi	r16, 0x50	; 80
 104:	53 41       	sbci	r21, 0x13	; 19
 106:	52 54       	subi	r21, 0x42	; 66
 108:	5f 4e       	sbci	r21, 0xEF	; 239
 10a:	4f 52       	subi	r20, 0x2F	; 47
 10c:	4d 41       	sbci	r20, 0x1D	; 29
 10e:	4c 5f       	subi	r20, 0xFC	; 252
 110:	53 50       	subi	r21, 0x03	; 3
 112:	45 45       	sbci	r20, 0x55	; 85
 114:	44 00       	.word	0x0044	; ????
 116:	55 53       	subi	r21, 0x35	; 53
 118:	41 52       	subi	r20, 0x21	; 33
 11a:	54 5f       	subi	r21, 0xF4	; 244
 11c:	54 52       	subi	r21, 0x24	; 36
 11e:	41 4e       	sbci	r20, 0xE1	; 225
 120:	53 4d       	sbci	r21, 0xD3	; 211
 122:	49 54       	subi	r20, 0x49	; 73
 124:	5f 44       	sbci	r21, 0x4F	; 79
 126:	49 53       	subi	r20, 0x39	; 57
 128:	41 42       	sbci	r20, 0x21	; 33
 12a:	4c 45       	sbci	r20, 0x5C	; 92
 12c:	00 55       	subi	r16, 0x50	; 80
 12e:	53 41       	sbci	r21, 0x13	; 19
 130:	52 54       	subi	r21, 0x42	; 66
 132:	5f 52       	subi	r21, 0x2F	; 47
 134:	45 43       	sbci	r20, 0x35	; 53
 136:	49 45       	sbci	r20, 0x59	; 89
 138:	56 45       	sbci	r21, 0x56	; 86
 13a:	5f 44       	sbci	r21, 0x4F	; 79
 13c:	49 53       	subi	r20, 0x39	; 57
 13e:	41 42       	sbci	r20, 0x21	; 33
 140:	4c 45       	sbci	r20, 0x5C	; 92
 142:	00 43       	sbci	r16, 0x30	; 48
 144:	3a 5c       	subi	r19, 0xCA	; 202
 146:	55 73       	andi	r21, 0x35	; 53
 148:	65 72       	andi	r22, 0x25	; 37
 14a:	73 5c       	subi	r23, 0xC3	; 195
 14c:	6b 6b       	ori	r22, 0xBB	; 187
 14e:	68 61       	ori	r22, 0x18	; 24
 150:	6c 69       	ori	r22, 0x9C	; 156
 152:	6c 5c       	subi	r22, 0xCC	; 204
 154:	61 76       	andi	r22, 0x61	; 97
 156:	72 5f       	subi	r23, 0xF2	; 242
 158:	77 73       	andi	r23, 0x37	; 55
 15a:	5c 41       	sbci	r21, 0x1C	; 28
 15c:	54 4d       	sbci	r21, 0xD4	; 212
 15e:	45 47       	sbci	r20, 0x75	; 117
 160:	41 33       	cpi	r20, 0x31	; 49
 162:	32 5f       	subi	r19, 0xF2	; 242
 164:	44 72       	andi	r20, 0x24	; 36
 166:	69 76       	andi	r22, 0x69	; 105
 168:	65 72       	andi	r22, 0x25	; 37
 16a:	73 5c       	subi	r23, 0xC3	; 195
 16c:	44 65       	ori	r20, 0x54	; 84
 16e:	62 75       	andi	r22, 0x52	; 82
 170:	67 00       	.word	0x0067	; ????
 172:	5f 5f       	subi	r21, 0xFF	; 255
 174:	74 6d       	ori	r23, 0xD4	; 212
 176:	70 00       	.word	0x0070	; ????
 178:	55 53       	subi	r21, 0x35	; 53
 17a:	41 52       	subi	r20, 0x21	; 33
 17c:	54 5f       	subi	r21, 0xF4	; 244
 17e:	54 52       	subi	r21, 0x24	; 36
 180:	41 4e       	sbci	r20, 0xE1	; 225
 182:	53 4d       	sbci	r21, 0xD3	; 211
 184:	49 54       	subi	r20, 0x49	; 73
 186:	45 52       	subi	r20, 0x25	; 37
 188:	5f 44       	sbci	r21, 0x4F	; 79
 18a:	49 53       	subi	r20, 0x39	; 57
 18c:	41 42       	sbci	r20, 0x21	; 33
 18e:	4c 45       	sbci	r20, 0x5C	; 92
 190:	00 55       	subi	r16, 0x50	; 80
 192:	53 41       	sbci	r21, 0x13	; 19
 194:	52 54       	subi	r21, 0x42	; 66
 196:	5f 37       	cpi	r21, 0x7F	; 127
 198:	5f 42       	sbci	r21, 0x2F	; 47
 19a:	69 74       	andi	r22, 0x49	; 73
 19c:	5f 43       	sbci	r21, 0x3F	; 63
 19e:	48 41       	sbci	r20, 0x18	; 24
 1a0:	52 00       	.word	0x0052	; ????
 1a2:	6d 61       	ori	r22, 0x1D	; 29
 1a4:	69 6e       	ori	r22, 0xE9	; 233
 1a6:	00 55       	subi	r16, 0x50	; 80
 1a8:	53 41       	sbci	r21, 0x13	; 19
 1aa:	52 54       	subi	r21, 0x42	; 66
 1ac:	5f 52       	subi	r21, 0x2F	; 47
 1ae:	45 43       	sbci	r20, 0x35	; 53
 1b0:	49 45       	sbci	r20, 0x59	; 89
 1b2:	56 45       	sbci	r21, 0x56	; 86
 1b4:	52 5f       	subi	r21, 0xF2	; 242
 1b6:	44 49       	sbci	r20, 0x94	; 148
 1b8:	53 41       	sbci	r21, 0x13	; 19
 1ba:	42 4c       	sbci	r20, 0xC2	; 194
 1bc:	45 00       	.word	0x0045	; ????
 1be:	55 53       	subi	r21, 0x35	; 53
 1c0:	41 52       	subi	r20, 0x21	; 33
 1c2:	54 5f       	subi	r21, 0xF4	; 244
 1c4:	52 45       	sbci	r21, 0x52	; 82
 1c6:	43 49       	sbci	r20, 0x93	; 147
 1c8:	45 56       	subi	r20, 0x65	; 101
 1ca:	45 5f       	subi	r20, 0xF5	; 245
 1cc:	45 4e       	sbci	r20, 0xE5	; 229
 1ce:	41 42       	sbci	r20, 0x21	; 33
 1d0:	4c 45       	sbci	r20, 0x5C	; 92
 1d2:	00 6c       	ori	r16, 0xC0	; 192
 1d4:	6f 6e       	ori	r22, 0xEF	; 239
 1d6:	67 20       	and	r6, r7
 1d8:	6c 6f       	ori	r22, 0xFC	; 252
 1da:	6e 67       	ori	r22, 0x7E	; 126
 1dc:	20 75       	andi	r18, 0x50	; 80
 1de:	6e 73       	andi	r22, 0x3E	; 62
 1e0:	69 67       	ori	r22, 0x79	; 121
 1e2:	6e 65       	ori	r22, 0x5E	; 94
 1e4:	64 20       	and	r6, r4
 1e6:	69 6e       	ori	r22, 0xE9	; 233
 1e8:	74 00       	.word	0x0074	; ????
 1ea:	63 6f       	ori	r22, 0xF3	; 243
 1ec:	75 6e       	ori	r23, 0xE5	; 229
 1ee:	74 65       	ori	r23, 0x54	; 84
 1f0:	72 00       	.word	0x0072	; ????
 1f2:	55 53       	subi	r21, 0x35	; 53
 1f4:	41 52       	subi	r20, 0x21	; 33
 1f6:	54 5f       	subi	r21, 0xF4	; 244
 1f8:	44 4f       	sbci	r20, 0xF4	; 244
 1fa:	55 42       	sbci	r21, 0x25	; 37
 1fc:	4c 45       	sbci	r20, 0x5C	; 92
 1fe:	5f 53       	subi	r21, 0x3F	; 63
 200:	50 45       	sbci	r21, 0x50	; 80
 202:	45 44       	sbci	r20, 0x45	; 69
 204:	00 55       	subi	r16, 0x50	; 80
 206:	53 41       	sbci	r21, 0x13	; 19
 208:	52 54       	subi	r21, 0x42	; 66
 20a:	5f 36       	cpi	r21, 0x6F	; 111
 20c:	5f 42       	sbci	r21, 0x2F	; 47
 20e:	69 74       	andi	r22, 0x49	; 73
 210:	5f 43       	sbci	r21, 0x3F	; 63
 212:	48 41       	sbci	r20, 0x18	; 24
 214:	52 00       	.word	0x0052	; ????
 216:	55 53       	subi	r21, 0x35	; 53
 218:	41 52       	subi	r20, 0x21	; 33
 21a:	54 5f       	subi	r21, 0xF4	; 244
 21c:	54 52       	subi	r21, 0x24	; 36
 21e:	41 4e       	sbci	r20, 0xE1	; 225
 220:	53 4d       	sbci	r21, 0xD3	; 211
 222:	49 54       	subi	r20, 0x49	; 73
 224:	5f 45       	sbci	r21, 0x5F	; 95
 226:	4e 41       	sbci	r20, 0x1E	; 30
 228:	42 4c       	sbci	r20, 0xC2	; 194
 22a:	45 00       	.word	0x0045	; ????
 22c:	55 53       	subi	r21, 0x35	; 53
 22e:	41 52       	subi	r20, 0x21	; 33
 230:	54 5f       	subi	r21, 0xF4	; 244
 232:	53 59       	subi	r21, 0x93	; 147
 234:	4e 43       	sbci	r20, 0x3E	; 62
 236:	00 6c       	ori	r16, 0xC0	; 192
 238:	6f 6e       	ori	r22, 0xEF	; 239
 23a:	67 20       	and	r6, r7
 23c:	6c 6f       	ori	r22, 0xFC	; 252
 23e:	6e 67       	ori	r22, 0x7E	; 126
 240:	20 69       	ori	r18, 0x90	; 144
 242:	6e 74       	andi	r22, 0x4E	; 78
 244:	00 55       	subi	r16, 0x50	; 80
 246:	53 41       	sbci	r21, 0x13	; 19
 248:	52 54       	subi	r21, 0x42	; 66
 24a:	5f 52       	subi	r21, 0x2F	; 47
 24c:	45 43       	sbci	r20, 0x35	; 53
 24e:	49 45       	sbci	r20, 0x59	; 89
 250:	56 45       	sbci	r21, 0x56	; 86
 252:	52 5f       	subi	r21, 0xF2	; 242
 254:	45 4e       	sbci	r20, 0xE5	; 229
 256:	41 42       	sbci	r20, 0x21	; 33
 258:	4c 45       	sbci	r20, 0x5C	; 92
 25a:	00 55       	subi	r16, 0x50	; 80
 25c:	53 41       	sbci	r21, 0x13	; 19
 25e:	52 54       	subi	r21, 0x42	; 66
 260:	5f 43       	sbci	r21, 0x3F	; 63
 262:	6f 6e       	ori	r22, 0xEF	; 239
 264:	66 69       	ori	r22, 0x96	; 150
 266:	67 00       	.word	0x0067	; ????
 268:	2e 2e       	mov	r2, r30
 26a:	2f 6d       	ori	r18, 0xDF	; 223
 26c:	61 69       	ori	r22, 0x91	; 145
 26e:	6e 2e       	mov	r6, r30
 270:	63 00       	.word	0x0063	; ????
 272:	5f 5f       	subi	r21, 0xFF	; 255
 274:	63 6f       	ori	r22, 0xF3	; 243
 276:	75 6e       	ori	r23, 0xE5	; 229
 278:	74 00       	.word	0x0074	; ????
 27a:	55 53       	subi	r21, 0x35	; 53
 27c:	41 52       	subi	r20, 0x21	; 33
 27e:	54 5f       	subi	r21, 0xF4	; 244
 280:	35 5f       	subi	r19, 0xF5	; 245
 282:	42 69       	ori	r20, 0x92	; 146
 284:	74 5f       	subi	r23, 0xF4	; 244
 286:	43 48       	sbci	r20, 0x83	; 131
 288:	41 52       	subi	r20, 0x21	; 33
 28a:	00 75       	andi	r16, 0x50	; 80
 28c:	69 6e       	ori	r22, 0xE9	; 233
 28e:	74 31       	cpi	r23, 0x14	; 20
 290:	36 5f       	subi	r19, 0xF6	; 246
 292:	74 00       	.word	0x0074	; ????
 294:	5f 5f       	subi	r21, 0xFF	; 255
 296:	74 69       	ori	r23, 0x94	; 148
 298:	63 6b       	ori	r22, 0xB3	; 179
 29a:	73 00       	.word	0x0073	; ????
 29c:	55 53       	subi	r21, 0x35	; 53
 29e:	41 52       	subi	r20, 0x21	; 33
 2a0:	54 5f       	subi	r21, 0xF4	; 244
 2a2:	54 52       	subi	r21, 0x24	; 36
 2a4:	41 4e       	sbci	r20, 0xE1	; 225
 2a6:	53 4d       	sbci	r21, 0xD3	; 211
 2a8:	49 54       	subi	r20, 0x49	; 73
 2aa:	45 52       	subi	r20, 0x25	; 37
 2ac:	5f 45       	sbci	r21, 0x5F	; 95
 2ae:	4e 41       	sbci	r20, 0x1E	; 30
 2b0:	42 4c       	sbci	r20, 0xC2	; 194
 2b2:	45 00       	.word	0x0045	; ????
 2b4:	55 53       	subi	r21, 0x35	; 53
 2b6:	41 52       	subi	r20, 0x21	; 33
 2b8:	54 5f       	subi	r21, 0xF4	; 244
 2ba:	54 52       	subi	r21, 0x24	; 36
 2bc:	41 4e       	sbci	r20, 0xE1	; 225
 2be:	53 4d       	sbci	r21, 0xD3	; 211
 2c0:	49 54       	subi	r20, 0x49	; 73
 2c2:	00 55       	subi	r16, 0x50	; 80
 2c4:	53 41       	sbci	r21, 0x13	; 19
 2c6:	52 54       	subi	r21, 0x42	; 66
 2c8:	5f 43       	sbci	r21, 0x3F	; 63
 2ca:	48 41       	sbci	r20, 0x18	; 24
 2cc:	52 5f       	subi	r21, 0xF2	; 242
 2ce:	53 49       	sbci	r21, 0x93	; 147
 2d0:	5a 45       	sbci	r21, 0x5A	; 90
 2d2:	00 55       	subi	r16, 0x50	; 80
 2d4:	53 41       	sbci	r21, 0x13	; 19
 2d6:	52 54       	subi	r21, 0x42	; 66
 2d8:	5f 31       	cpi	r21, 0x1F	; 31
 2da:	5f 53       	subi	r21, 0x3F	; 63
 2dc:	54 4f       	sbci	r21, 0xF4	; 244
 2de:	50 42       	sbci	r21, 0x20	; 32
 2e0:	49 54       	subi	r20, 0x49	; 73
 2e2:	00 55       	subi	r16, 0x50	; 80
 2e4:	53 41       	sbci	r21, 0x13	; 19
 2e6:	52 54       	subi	r21, 0x42	; 66
 2e8:	5f 53       	subi	r21, 0x3F	; 63
 2ea:	59 4e       	sbci	r21, 0xE9	; 233
 2ec:	43 48       	sbci	r20, 0x83	; 131
 2ee:	5f 4d       	sbci	r21, 0xDF	; 223
 2f0:	4f 44       	sbci	r20, 0x4F	; 79
 2f2:	45 00       	.word	0x0045	; ????
 2f4:	55 53       	subi	r21, 0x35	; 53
 2f6:	41 52       	subi	r20, 0x21	; 33
 2f8:	54 5f       	subi	r21, 0xF4	; 244
 2fa:	52 45       	sbci	r21, 0x52	; 82
 2fc:	43 49       	sbci	r20, 0x93	; 147
 2fe:	45 56       	subi	r20, 0x65	; 101
 300:	45 00       	.word	0x0045	; ????
 302:	5f 5f       	subi	r21, 0xFF	; 255
 304:	6d 73       	andi	r22, 0x3D	; 61
 306:	00 63       	ori	r16, 0x30	; 48
 308:	3a 5c       	subi	r19, 0xCA	; 202
 30a:	61 76       	andi	r22, 0x61	; 97
 30c:	72 64       	ori	r23, 0x42	; 66
 30e:	65 76       	andi	r22, 0x65	; 101
 310:	5c 67       	ori	r21, 0x7C	; 124
 312:	63 63       	ori	r22, 0x33	; 51
 314:	5c 62       	ori	r21, 0x2C	; 44
 316:	75 69       	ori	r23, 0x95	; 149
 318:	6c 64       	ori	r22, 0x4C	; 76
 31a:	2d 61       	ori	r18, 0x1D	; 29
 31c:	76 72       	andi	r23, 0x26	; 38
 31e:	5c 61       	ori	r21, 0x1C	; 28
 320:	76 72       	andi	r23, 0x26	; 38
 322:	5c 61       	ori	r21, 0x1C	; 28
 324:	76 72       	andi	r23, 0x26	; 38
 326:	35 5c       	subi	r19, 0xC5	; 197
 328:	6c 69       	ori	r22, 0x9C	; 156
 32a:	62 67       	ori	r22, 0x72	; 114
 32c:	63 63       	ori	r22, 0x33	; 51
 32e:	00 5f       	subi	r16, 0xF0	; 240
 330:	5f 66       	ori	r21, 0x6F	; 111
 332:	69 78       	andi	r22, 0x89	; 137
 334:	75 6e       	ori	r23, 0xE5	; 229
 336:	73 73       	andi	r23, 0x33	; 51
 338:	66 73       	andi	r22, 0x36	; 54
 33a:	69 00       	.word	0x0069	; ????
 33c:	63 6f       	ori	r22, 0xF3	; 243
 33e:	6d 70       	andi	r22, 0x0D	; 13
 340:	6c 65       	ori	r22, 0x5C	; 92
 342:	78 20       	and	r7, r8
 344:	66 6c       	ori	r22, 0xC6	; 198
 346:	6f 61       	ori	r22, 0x1F	; 31
 348:	74 00       	.word	0x0074	; ????
 34a:	53 46       	sbci	r21, 0x63	; 99
 34c:	74 79       	andi	r23, 0x94	; 148
 34e:	70 65       	ori	r23, 0x50	; 80
 350:	00 55       	subi	r16, 0x50	; 80
 352:	53 49       	sbci	r21, 0x93	; 147
 354:	74 79       	andi	r23, 0x94	; 148
 356:	70 65       	ori	r23, 0x50	; 80
 358:	00 2e       	mov	r0, r16
 35a:	2e 2f       	mov	r18, r30
 35c:	2e 2e       	mov	r2, r30
 35e:	2f 2e       	mov	r2, r31
 360:	2e 2f       	mov	r18, r30
 362:	2e 2e       	mov	r2, r30
 364:	2f 67       	ori	r18, 0x7F	; 127
 366:	63 63       	ori	r22, 0x33	; 51
 368:	2d 34       	cpi	r18, 0x4D	; 77
 36a:	2e 33       	cpi	r18, 0x3E	; 62
 36c:	2e 33       	cpi	r18, 0x3E	; 62
 36e:	2f 6c       	ori	r18, 0xCF	; 207
 370:	69 62       	ori	r22, 0x29	; 41
 372:	67 63       	ori	r22, 0x37	; 55
 374:	63 2f       	mov	r22, r19
 376:	2e 2e       	mov	r2, r30
 378:	2f 67       	ori	r18, 0x7F	; 127
 37a:	63 63       	ori	r22, 0x33	; 51
 37c:	2f 6c       	ori	r18, 0xCF	; 207
 37e:	69 62       	ori	r22, 0x29	; 41
 380:	67 63       	ori	r22, 0x37	; 55
 382:	63 32       	cpi	r22, 0x23	; 35
 384:	2e 63       	ori	r18, 0x3E	; 62
 386:	00 5f       	subi	r16, 0xF0	; 240
 388:	5f 61       	ori	r21, 0x1F	; 31
 38a:	64 64       	ori	r22, 0x44	; 68
 38c:	73 66       	ori	r23, 0x63	; 99
 38e:	33 00       	.word	0x0033	; ????
 390:	73 64       	ori	r23, 0x43	; 67
 392:	69 66       	ori	r22, 0x69	; 105
 394:	66 00       	.word	0x0066	; ????
 396:	43 4c       	sbci	r20, 0xC3	; 195
 398:	41 53       	subi	r20, 0x31	; 49
 39a:	53 5f       	subi	r21, 0xF3	; 243
 39c:	5a 45       	sbci	r21, 0x5A	; 90
 39e:	52 4f       	sbci	r21, 0xF2	; 242
 3a0:	00 61       	ori	r16, 0x10	; 16
 3a2:	5f 6e       	ori	r21, 0xEF	; 239
 3a4:	6f 72       	andi	r22, 0x2F	; 47
 3a6:	6d 61       	ori	r22, 0x1D	; 29
 3a8:	6c 5f       	subi	r22, 0xFC	; 252
 3aa:	65 78       	andi	r22, 0x85	; 133
 3ac:	70 00       	.word	0x0070	; ????
 3ae:	69 73       	andi	r22, 0x39	; 57
 3b0:	6e 61       	ori	r22, 0x1E	; 30
 3b2:	6e 00       	.word	0x006e	; ????
 3b4:	5f 5f       	subi	r21, 0xFF	; 255
 3b6:	74 68       	ori	r23, 0x84	; 132
 3b8:	65 6e       	ori	r22, 0xE5	; 229
 3ba:	61 6e       	ori	r22, 0xE1	; 225
 3bc:	5f 73       	andi	r21, 0x3F	; 63
 3be:	66 00       	.word	0x0066	; ????
 3c0:	69 73       	andi	r22, 0x39	; 57
 3c2:	69 6e       	ori	r22, 0xE9	; 233
 3c4:	66 00       	.word	0x0066	; ????
 3c6:	63 6c       	ori	r22, 0xC3	; 195
 3c8:	61 73       	andi	r22, 0x31	; 49
 3ca:	73 00       	.word	0x0073	; ????
 3cc:	62 5f       	subi	r22, 0xF2	; 242
 3ce:	6e 6f       	ori	r22, 0xFE	; 254
 3d0:	72 6d       	ori	r23, 0xD2	; 210
 3d2:	61 6c       	ori	r22, 0xC1	; 193
 3d4:	5f 65       	ori	r21, 0x5F	; 95
 3d6:	78 70       	andi	r23, 0x08	; 8
 3d8:	00 43       	sbci	r16, 0x30	; 48
 3da:	4c 41       	sbci	r20, 0x1C	; 28
 3dc:	53 53       	subi	r21, 0x33	; 51
 3de:	5f 51       	subi	r21, 0x1F	; 31
 3e0:	4e 41       	sbci	r20, 0x1E	; 30
 3e2:	4e 00       	.word	0x004e	; ????
 3e4:	61 72       	andi	r22, 0x21	; 33
 3e6:	67 5f       	subi	r22, 0xF7	; 247
 3e8:	61 00       	.word	0x0061	; ????
 3ea:	61 72       	andi	r22, 0x21	; 33
 3ec:	67 5f       	subi	r22, 0xF7	; 247
 3ee:	62 00       	.word	0x0062	; ????
 3f0:	5f 66       	ori	r21, 0x6F	; 111
 3f2:	70 61       	ori	r23, 0x10	; 16
 3f4:	64 64       	ori	r22, 0x44	; 68
 3f6:	5f 70       	andi	r21, 0x0F	; 15
 3f8:	61 72       	andi	r22, 0x21	; 33
 3fa:	74 73       	andi	r23, 0x34	; 52
 3fc:	00 2e       	mov	r0, r16
 3fe:	2e 2f       	mov	r18, r30
 400:	2e 2e       	mov	r2, r30
 402:	2f 2e       	mov	r2, r31
 404:	2e 2f       	mov	r18, r30
 406:	2e 2f       	mov	r18, r30
 408:	67 63       	ori	r22, 0x37	; 55
 40a:	63 2f       	mov	r22, r19
 40c:	66 70       	andi	r22, 0x06	; 6
 40e:	2d 62       	ori	r18, 0x2D	; 45
 410:	69 74       	andi	r22, 0x49	; 73
 412:	2e 63       	ori	r18, 0x3E	; 62
 414:	00 69       	ori	r16, 0x90	; 144
 416:	73 7a       	andi	r23, 0xA3	; 163
 418:	65 72       	andi	r22, 0x25	; 37
 41a:	6f 00       	.word	0x006f	; ????
 41c:	46 4c       	sbci	r20, 0xC6	; 198
 41e:	4f 5f       	subi	r20, 0xFF	; 255
 420:	75 6e       	ori	r23, 0xE5	; 229
 422:	69 6f       	ori	r22, 0xF9	; 249
 424:	6e 5f       	subi	r22, 0xFE	; 254
 426:	74 79       	andi	r23, 0x94	; 148
 428:	70 65       	ori	r23, 0x50	; 80
 42a:	00 61       	ori	r16, 0x10	; 16
 42c:	5f 66       	ori	r21, 0x6F	; 111
 42e:	72 61       	ori	r23, 0x12	; 18
 430:	63 74       	andi	r22, 0x43	; 67
 432:	69 6f       	ori	r22, 0xF9	; 249
 434:	6e 00       	.word	0x006e	; ????
 436:	76 61       	ori	r23, 0x16	; 22
 438:	6c 75       	andi	r22, 0x5C	; 92
 43a:	65 5f       	subi	r22, 0xF5	; 245
 43c:	72 61       	ori	r23, 0x12	; 18
 43e:	77 00       	.word	0x0077	; ????
 440:	46 4c       	sbci	r20, 0xC6	; 198
 442:	4f 5f       	subi	r20, 0xFF	; 255
 444:	74 79       	andi	r23, 0x94	; 148
 446:	70 65       	ori	r23, 0x50	; 80
 448:	00 43       	sbci	r16, 0x30	; 48
 44a:	4c 41       	sbci	r20, 0x1C	; 28
 44c:	53 53       	subi	r21, 0x33	; 51
 44e:	5f 53       	subi	r21, 0x3F	; 63
 450:	4e 41       	sbci	r20, 0x1E	; 30
 452:	4e 00       	.word	0x004e	; ????
 454:	74 66       	ori	r23, 0x64	; 100
 456:	72 61       	ori	r23, 0x12	; 18
 458:	63 74       	andi	r22, 0x43	; 67
 45a:	69 6f       	ori	r22, 0xF9	; 249
 45c:	6e 00       	.word	0x006e	; ????
 45e:	66 70       	andi	r22, 0x06	; 6
 460:	5f 6e       	ori	r21, 0xEF	; 239
 462:	75 6d       	ori	r23, 0xD5	; 213
 464:	62 65       	ori	r22, 0x52	; 82
 466:	72 5f       	subi	r23, 0xF2	; 242
 468:	74 79       	andi	r23, 0x94	; 148
 46a:	70 65       	ori	r23, 0x50	; 80
 46c:	00 62       	ori	r16, 0x20	; 32
 46e:	5f 66       	ori	r21, 0x6F	; 111
 470:	72 61       	ori	r23, 0x12	; 18
 472:	63 74       	andi	r22, 0x43	; 67
 474:	69 6f       	ori	r22, 0xF9	; 249
 476:	6e 00       	.word	0x006e	; ????
 478:	76 61       	ori	r23, 0x16	; 22
 47a:	6c 75       	andi	r22, 0x5C	; 92
 47c:	65 00       	.word	0x0065	; ????
 47e:	69 6e       	ori	r22, 0xE9	; 233
 480:	74 66       	ori	r23, 0x64	; 100
 482:	72 61       	ori	r23, 0x12	; 18
 484:	63 00       	.word	0x0063	; ????
 486:	43 4c       	sbci	r20, 0xC3	; 195
 488:	41 53       	subi	r20, 0x31	; 49
 48a:	53 5f       	subi	r21, 0xF3	; 243
 48c:	49 4e       	sbci	r20, 0xE9	; 233
 48e:	46 49       	sbci	r20, 0x96	; 150
 490:	4e 49       	sbci	r20, 0x9E	; 158
 492:	54 59       	subi	r21, 0x94	; 148
 494:	00 73       	andi	r16, 0x30	; 48
 496:	68 6f       	ori	r22, 0xF8	; 248
 498:	72 74       	andi	r23, 0x42	; 66
 49a:	20 69       	ori	r18, 0x90	; 144
 49c:	6e 74       	andi	r22, 0x4E	; 78
 49e:	00 73       	andi	r16, 0x30	; 48
 4a0:	69 67       	ori	r22, 0x79	; 121
 4a2:	6e 00       	.word	0x006e	; ????
 4a4:	62 69       	ori	r22, 0x92	; 146
 4a6:	74 73       	andi	r23, 0x34	; 52
 4a8:	00 43       	sbci	r16, 0x30	; 48
 4aa:	4c 41       	sbci	r20, 0x1C	; 28
 4ac:	53 53       	subi	r21, 0x33	; 51
 4ae:	5f 4e       	sbci	r21, 0xEF	; 239
 4b0:	55 4d       	sbci	r21, 0xD5	; 213
 4b2:	42 45       	sbci	r20, 0x52	; 82
 4b4:	52 00       	.word	0x0052	; ????
 4b6:	55 48       	sbci	r21, 0x85	; 133
 4b8:	49 74       	andi	r20, 0x49	; 73
 4ba:	79 70       	andi	r23, 0x09	; 9
 4bc:	65 00       	.word	0x0065	; ????
 4be:	5f 5f       	subi	r21, 0xFF	; 255
 4c0:	73 75       	andi	r23, 0x53	; 83
 4c2:	62 73       	andi	r22, 0x32	; 50
 4c4:	66 33       	cpi	r22, 0x36	; 54
 4c6:	00 68       	ori	r16, 0x80	; 128
 4c8:	61 6c       	ori	r22, 0xC1	; 193
 4ca:	66 66       	ori	r22, 0x66	; 102
 4cc:	72 61       	ori	r23, 0x12	; 18
 4ce:	63 74       	andi	r22, 0x43	; 67
 4d0:	79 70       	andi	r23, 0x09	; 9
 4d2:	65 00       	.word	0x0065	; ????
 4d4:	79 68       	ori	r23, 0x89	; 137
 4d6:	69 67       	ori	r22, 0x79	; 121
 4d8:	68 00       	.word	0x0068	; ????
 4da:	63 61       	ori	r22, 0x13	; 19
 4dc:	72 72       	andi	r23, 0x22	; 34
 4de:	79 00       	.word	0x0079	; ????
 4e0:	5f 66       	ori	r21, 0x6F	; 111
 4e2:	70 6d       	ori	r23, 0xD0	; 208
 4e4:	75 6c       	ori	r23, 0xC5	; 197
 4e6:	5f 70       	andi	r21, 0x0F	; 15
 4e8:	61 72       	andi	r22, 0x21	; 33
 4ea:	74 73       	andi	r23, 0x34	; 52
 4ec:	00 5f       	subi	r16, 0xF0	; 240
 4ee:	5f 6d       	ori	r21, 0xDF	; 223
 4f0:	75 6c       	ori	r23, 0xC5	; 197
 4f2:	73 66       	ori	r23, 0x63	; 99
 4f4:	33 00       	.word	0x0033	; ????
 4f6:	79 6c       	ori	r23, 0xC9	; 201
 4f8:	6f 77       	andi	r22, 0x7F	; 127
 4fa:	00 51       	subi	r16, 0x10	; 16
 4fc:	49 74       	andi	r20, 0x49	; 73
 4fe:	79 70       	andi	r23, 0x09	; 9
 500:	65 00       	.word	0x0065	; ????
 502:	5f 5f       	subi	r21, 0xFF	; 255
 504:	67 74       	andi	r22, 0x47	; 71
 506:	73 66       	ori	r23, 0x63	; 99
 508:	32 00       	.word	0x0032	; ????
 50a:	5f 5f       	subi	r21, 0xFF	; 255
 50c:	67 65       	ori	r22, 0x57	; 87
 50e:	73 66       	ori	r23, 0x63	; 99
 510:	32 00       	.word	0x0032	; ????
 512:	5f 5f       	subi	r21, 0xFF	; 255
 514:	6c 74       	andi	r22, 0x4C	; 76
 516:	73 66       	ori	r23, 0x63	; 99
 518:	32 00       	.word	0x0032	; ????
 51a:	5f 5f       	subi	r21, 0xFF	; 255
 51c:	66 69       	ori	r22, 0x96	; 150
 51e:	78 73       	andi	r23, 0x38	; 56
 520:	66 73       	andi	r22, 0x36	; 54
 522:	69 00       	.word	0x0069	; ????
 524:	73 68       	ori	r23, 0x83	; 131
 526:	69 66       	ori	r22, 0x69	; 105
 528:	74 00       	.word	0x0074	; ????
 52a:	6c 6f       	ori	r22, 0xFC	; 252
 52c:	77 62       	ori	r23, 0x27	; 39
 52e:	69 74       	andi	r22, 0x49	; 73
 530:	00 5f       	subi	r16, 0xF0	; 240
 532:	5f 70       	andi	r21, 0x0F	; 15
 534:	61 63       	ori	r22, 0x31	; 49
 536:	6b 5f       	subi	r22, 0xFB	; 251
 538:	66 00       	.word	0x0066	; ????
 53a:	5f 5f       	subi	r21, 0xFF	; 255
 53c:	75 6e       	ori	r23, 0xE5	; 229
 53e:	70 61       	ori	r23, 0x10	; 16
 540:	63 6b       	ori	r22, 0xB3	; 179
 542:	5f 66       	ori	r21, 0x6F	; 111
 544:	00 5f       	subi	r16, 0xF0	; 240
 546:	5f 66       	ori	r21, 0x6F	; 111
 548:	70 63       	ori	r23, 0x30	; 48
 54a:	6d 70       	andi	r22, 0x0D	; 13
 54c:	5f 70       	andi	r21, 0x0F	; 15
 54e:	61 72       	andi	r22, 0x21	; 33
 550:	74 73       	andi	r23, 0x34	; 52
 552:	5f 66       	ori	r21, 0x6F	; 111
	...

Disassembly of section .debug_loc:

00000000 <.debug_loc>:
   0:	00 00       	nop
   2:	00 00       	nop
   4:	18 00       	.word	0x0018	; ????
   6:	00 00       	nop
   8:	0c 00       	.word	0x000c	; ????
   a:	66 93       	.word	0x9366	; ????
   c:	01 67       	ori	r16, 0x71	; 113
   e:	93 01       	movw	r18, r6
  10:	68 93       	.word	0x9368	; ????
  12:	01 69       	ori	r16, 0x91	; 145
  14:	93 01       	movw	r18, r6
  16:	18 00       	.word	0x0018	; ????
  18:	00 00       	nop
  1a:	56 00       	.word	0x0056	; ????
  1c:	00 00       	nop
  1e:	0c 00       	.word	0x000c	; ????
  20:	5e 93       	st	-X, r21
  22:	01 5f       	subi	r16, 0xF1	; 241
  24:	93 01       	movw	r18, r6
  26:	60 93 01 61 	sts	0x6101, r22
  2a:	93 01       	movw	r18, r6
	...
  38:	1a 00       	.word	0x001a	; ????
  3a:	00 00       	nop
  3c:	06 00       	.word	0x0006	; ????
  3e:	68 93       	.word	0x9368	; ????
  40:	01 69       	ori	r16, 0x91	; 145
  42:	93 01       	movw	r18, r6
  44:	1a 00       	.word	0x001a	; ????
  46:	00 00       	nop
  48:	58 00       	.word	0x0058	; ????
  4a:	00 00       	nop
  4c:	06 00       	.word	0x0006	; ????
  4e:	6a 93       	st	-Y, r22
  50:	01 6b       	ori	r16, 0xB1	; 177
  52:	93 01       	movw	r18, r6
  54:	58 00       	.word	0x0058	; ????
  56:	00 00       	nop
  58:	76 00       	.word	0x0076	; ????
  5a:	00 00       	nop
  5c:	06 00       	.word	0x0006	; ????
  5e:	64 93       	.word	0x9364	; ????
  60:	01 65       	ori	r16, 0x51	; 81
  62:	93 01       	movw	r18, r6
  64:	76 00       	.word	0x0076	; ????
  66:	00 00       	nop
  68:	98 01       	movw	r18, r16
  6a:	00 00       	nop
  6c:	06 00       	.word	0x0006	; ????
  6e:	6a 93       	st	-Y, r22
  70:	01 6b       	ori	r16, 0xB1	; 177
  72:	93 01       	movw	r18, r6
  74:	86 02       	muls	r24, r22
  76:	00 00       	nop
  78:	8e 02       	muls	r24, r30
  7a:	00 00       	nop
  7c:	06 00       	.word	0x0006	; ????
  7e:	6a 93       	st	-Y, r22
  80:	01 6b       	ori	r16, 0xB1	; 177
  82:	93 01       	movw	r18, r6
  84:	8e 02       	muls	r24, r30
  86:	00 00       	nop
  88:	98 02       	muls	r25, r24
  8a:	00 00       	nop
  8c:	06 00       	.word	0x0006	; ????
  8e:	68 93       	.word	0x9368	; ????
  90:	01 69       	ori	r16, 0x91	; 145
  92:	93 01       	movw	r18, r6
	...
  a0:	1a 00       	.word	0x001a	; ????
  a2:	00 00       	nop
  a4:	06 00       	.word	0x0006	; ????
  a6:	66 93       	.word	0x9366	; ????
  a8:	01 67       	ori	r16, 0x71	; 113
  aa:	93 01       	movw	r18, r6
  ac:	1a 00       	.word	0x001a	; ????
  ae:	00 00       	nop
  b0:	24 00       	.word	0x0024	; ????
  b2:	00 00       	nop
  b4:	06 00       	.word	0x0006	; ????
  b6:	54 93       	.word	0x9354	; ????
  b8:	01 55       	subi	r16, 0x51	; 81
  ba:	93 01       	movw	r18, r6
  bc:	24 00       	.word	0x0024	; ????
  be:	00 00       	nop
  c0:	a6 00       	.word	0x00a6	; ????
  c2:	00 00       	nop
  c4:	06 00       	.word	0x0006	; ????
  c6:	66 93       	.word	0x9366	; ????
  c8:	01 67       	ori	r16, 0x71	; 113
  ca:	93 01       	movw	r18, r6
  cc:	a6 00       	.word	0x00a6	; ????
  ce:	00 00       	nop
  d0:	8a 02       	muls	r24, r26
  d2:	00 00       	nop
  d4:	06 00       	.word	0x0006	; ????
  d6:	54 93       	.word	0x9354	; ????
  d8:	01 55       	subi	r16, 0x51	; 81
  da:	93 01       	movw	r18, r6
  dc:	8a 02       	muls	r24, r26
  de:	00 00       	nop
  e0:	8c 02       	muls	r24, r28
  e2:	00 00       	nop
  e4:	06 00       	.word	0x0006	; ????
  e6:	66 93       	.word	0x9366	; ????
  e8:	01 67       	ori	r16, 0x71	; 113
  ea:	93 01       	movw	r18, r6
  ec:	8c 02       	muls	r24, r28
  ee:	00 00       	nop
  f0:	98 02       	muls	r25, r24
  f2:	00 00       	nop
  f4:	06 00       	.word	0x0006	; ????
  f6:	54 93       	.word	0x9354	; ????
  f8:	01 55       	subi	r16, 0x51	; 81
  fa:	93 01       	movw	r18, r6
	...
 108:	1a 00       	.word	0x001a	; ????
 10a:	00 00       	nop
 10c:	06 00       	.word	0x0006	; ????
 10e:	64 93       	.word	0x9364	; ????
 110:	01 65       	ori	r16, 0x51	; 81
 112:	93 01       	movw	r18, r6
 114:	1a 00       	.word	0x001a	; ????
 116:	00 00       	nop
 118:	58 00       	.word	0x0058	; ????
 11a:	00 00       	nop
 11c:	06 00       	.word	0x0006	; ????
 11e:	6e 93       	st	-X, r22
 120:	01 6f       	ori	r16, 0xF1	; 241
 122:	93 01       	movw	r18, r6
 124:	58 00       	.word	0x0058	; ????
 126:	00 00       	nop
 128:	76 00       	.word	0x0076	; ????
 12a:	00 00       	nop
 12c:	06 00       	.word	0x0006	; ????
 12e:	62 93       	st	-Z, r22
 130:	01 63       	ori	r16, 0x31	; 49
 132:	93 01       	movw	r18, r6
 134:	76 00       	.word	0x0076	; ????
 136:	00 00       	nop
 138:	98 02       	muls	r25, r24
 13a:	00 00       	nop
 13c:	06 00       	.word	0x0006	; ????
 13e:	6e 93       	st	-X, r22
 140:	01 6f       	ori	r16, 0xF1	; 241
 142:	93 01       	movw	r18, r6
 144:	98 02       	muls	r25, r24
 146:	00 00       	nop
 148:	98 02       	muls	r25, r24
 14a:	00 00       	nop
 14c:	06 00       	.word	0x0006	; ????
 14e:	64 93       	.word	0x9364	; ????
 150:	01 65       	ori	r16, 0x51	; 81
 152:	93 01       	movw	r18, r6
	...
 15c:	aa 01       	movw	r20, r20
 15e:	00 00       	nop
 160:	b4 01       	movw	r22, r8
 162:	00 00       	nop
 164:	0c 00       	.word	0x000c	; ????
 166:	62 93       	st	-Z, r22
 168:	01 63       	ori	r16, 0x31	; 49
 16a:	93 01       	movw	r18, r6
 16c:	64 93       	.word	0x9364	; ????
 16e:	01 65       	ori	r16, 0x51	; 81
 170:	93 01       	movw	r18, r6
 172:	b8 01       	movw	r22, r16
 174:	00 00       	nop
 176:	f4 01       	movw	r30, r8
 178:	00 00       	nop
 17a:	0c 00       	.word	0x000c	; ????
 17c:	62 93       	st	-Z, r22
 17e:	01 63       	ori	r16, 0x31	; 49
 180:	93 01       	movw	r18, r6
 182:	64 93       	.word	0x9364	; ????
 184:	01 65       	ori	r16, 0x51	; 81
 186:	93 01       	movw	r18, r6
 188:	0e 02       	muls	r16, r30
 18a:	00 00       	nop
 18c:	16 02       	muls	r17, r22
 18e:	00 00       	nop
 190:	0c 00       	.word	0x000c	; ????
 192:	62 93       	st	-Z, r22
 194:	01 63       	ori	r16, 0x31	; 49
 196:	93 01       	movw	r18, r6
 198:	64 93       	.word	0x9364	; ????
 19a:	01 65       	ori	r16, 0x51	; 81
 19c:	93 01       	movw	r18, r6
	...
 1a6:	84 00       	.word	0x0084	; ????
 1a8:	00 00       	nop
 1aa:	8a 02       	muls	r24, r26
 1ac:	00 00       	nop
 1ae:	06 00       	.word	0x0006	; ????
 1b0:	52 93       	st	-Z, r21
 1b2:	01 53       	subi	r16, 0x31	; 49
 1b4:	93 01       	movw	r18, r6
 1b6:	8c 02       	muls	r24, r28
 1b8:	00 00       	nop
 1ba:	98 02       	muls	r25, r24
 1bc:	00 00       	nop
 1be:	06 00       	.word	0x0006	; ????
 1c0:	52 93       	st	-Z, r21
 1c2:	01 53       	subi	r16, 0x31	; 49
 1c4:	93 01       	movw	r18, r6
	...
 1ce:	8a 00       	.word	0x008a	; ????
 1d0:	00 00       	nop
 1d2:	9c 01       	movw	r18, r24
 1d4:	00 00       	nop
 1d6:	06 00       	.word	0x0006	; ????
 1d8:	68 93       	.word	0x9368	; ????
 1da:	01 69       	ori	r16, 0x91	; 145
 1dc:	93 01       	movw	r18, r6
	...
 1e6:	96 00       	.word	0x0096	; ????
 1e8:	00 00       	nop
 1ea:	8a 02       	muls	r24, r26
 1ec:	00 00       	nop
 1ee:	0c 00       	.word	0x000c	; ????
 1f0:	5a 93       	st	-Y, r21
 1f2:	01 5b       	subi	r16, 0xB1	; 177
 1f4:	93 01       	movw	r18, r6
 1f6:	5c 93       	st	X, r21
 1f8:	01 5d       	subi	r16, 0xD1	; 209
 1fa:	93 01       	movw	r18, r6
 1fc:	8c 02       	muls	r24, r28
 1fe:	00 00       	nop
 200:	98 02       	muls	r25, r24
 202:	00 00       	nop
 204:	0c 00       	.word	0x000c	; ????
 206:	5a 93       	st	-Y, r21
 208:	01 5b       	subi	r16, 0xB1	; 177
 20a:	93 01       	movw	r18, r6
 20c:	5c 93       	st	X, r21
 20e:	01 5d       	subi	r16, 0xD1	; 209
 210:	93 01       	movw	r18, r6
	...
 21a:	9e 00       	.word	0x009e	; ????
 21c:	00 00       	nop
 21e:	8a 02       	muls	r24, r26
 220:	00 00       	nop
 222:	0c 00       	.word	0x000c	; ????
 224:	5e 93       	st	-X, r21
 226:	01 5f       	subi	r16, 0xF1	; 241
 228:	93 01       	movw	r18, r6
 22a:	60 93 01 61 	sts	0x6101, r22
 22e:	93 01       	movw	r18, r6
 230:	8c 02       	muls	r24, r28
 232:	00 00       	nop
 234:	98 02       	muls	r25, r24
 236:	00 00       	nop
 238:	0c 00       	.word	0x000c	; ????
 23a:	5e 93       	st	-X, r21
 23c:	01 5f       	subi	r16, 0xF1	; 241
 23e:	93 01       	movw	r18, r6
 240:	60 93 01 61 	sts	0x6101, r22
 244:	93 01       	movw	r18, r6
	...
 24e:	a0 00       	.word	0x00a0	; ????
 250:	00 00       	nop
 252:	b2 00       	.word	0x00b2	; ????
 254:	00 00       	nop
 256:	06 00       	.word	0x0006	; ????
 258:	62 93       	st	-Z, r22
 25a:	01 63       	ori	r16, 0x31	; 49
 25c:	93 01       	movw	r18, r6
 25e:	b2 00       	.word	0x00b2	; ????
 260:	00 00       	nop
 262:	c0 00       	.word	0x00c0	; ????
 264:	00 00       	nop
 266:	06 00       	.word	0x0006	; ????
 268:	66 93       	.word	0x9366	; ????
 26a:	01 67       	ori	r16, 0x71	; 113
 26c:	93 01       	movw	r18, r6
 26e:	c0 00       	.word	0x00c0	; ????
 270:	00 00       	nop
 272:	dc 00       	.word	0x00dc	; ????
 274:	00 00       	nop
 276:	06 00       	.word	0x0006	; ????
 278:	62 93       	st	-Z, r22
 27a:	01 63       	ori	r16, 0x31	; 49
 27c:	93 01       	movw	r18, r6
 27e:	1a 01       	movw	r2, r20
 280:	00 00       	nop
 282:	3e 01       	movw	r6, r28
 284:	00 00       	nop
 286:	06 00       	.word	0x0006	; ????
 288:	62 93       	st	-Z, r22
 28a:	01 63       	ori	r16, 0x31	; 49
 28c:	93 01       	movw	r18, r6
 28e:	3e 01       	movw	r6, r28
 290:	00 00       	nop
 292:	f4 01       	movw	r30, r8
 294:	00 00       	nop
 296:	06 00       	.word	0x0006	; ????
 298:	66 93       	.word	0x9366	; ????
 29a:	01 67       	ori	r16, 0x71	; 113
 29c:	93 01       	movw	r18, r6
 29e:	0e 02       	muls	r16, r30
 2a0:	00 00       	nop
 2a2:	28 02       	muls	r18, r24
 2a4:	00 00       	nop
 2a6:	06 00       	.word	0x0006	; ????
 2a8:	66 93       	.word	0x9366	; ????
 2aa:	01 67       	ori	r16, 0x71	; 113
 2ac:	93 01       	movw	r18, r6
 2ae:	2c 02       	muls	r18, r28
 2b0:	00 00       	nop
 2b2:	6c 02       	muls	r22, r28
 2b4:	00 00       	nop
 2b6:	06 00       	.word	0x0006	; ????
 2b8:	66 93       	.word	0x9366	; ????
 2ba:	01 67       	ori	r16, 0x71	; 113
 2bc:	93 01       	movw	r18, r6
 2be:	86 02       	muls	r24, r22
 2c0:	00 00       	nop
 2c2:	8a 02       	muls	r24, r26
 2c4:	00 00       	nop
 2c6:	06 00       	.word	0x0006	; ????
 2c8:	66 93       	.word	0x9366	; ????
 2ca:	01 67       	ori	r16, 0x71	; 113
 2cc:	93 01       	movw	r18, r6
 2ce:	8c 02       	muls	r24, r28
 2d0:	00 00       	nop
 2d2:	98 02       	muls	r25, r24
 2d4:	00 00       	nop
 2d6:	06 00       	.word	0x0006	; ????
 2d8:	66 93       	.word	0x9366	; ????
 2da:	01 67       	ori	r16, 0x71	; 113
 2dc:	93 01       	movw	r18, r6
	...
 2e6:	98 02       	muls	r25, r24
 2e8:	00 00       	nop
 2ea:	c4 02       	muls	r28, r20
 2ec:	00 00       	nop
 2ee:	0c 00       	.word	0x000c	; ????
 2f0:	66 93       	.word	0x9366	; ????
 2f2:	01 67       	ori	r16, 0x71	; 113
 2f4:	93 01       	movw	r18, r6
 2f6:	68 93       	.word	0x9368	; ????
 2f8:	01 69       	ori	r16, 0x91	; 145
 2fa:	93 01       	movw	r18, r6
	...
 304:	98 02       	muls	r25, r24
 306:	00 00       	nop
 308:	c8 02       	muls	r28, r24
 30a:	00 00       	nop
 30c:	0c 00       	.word	0x000c	; ????
 30e:	62 93       	st	-Z, r22
 310:	01 63       	ori	r16, 0x31	; 49
 312:	93 01       	movw	r18, r6
 314:	64 93       	.word	0x9364	; ????
 316:	01 65       	ori	r16, 0x51	; 81
 318:	93 01       	movw	r18, r6
	...
 322:	fa 02       	muls	r31, r26
 324:	00 00       	nop
 326:	26 03       	mulsu	r18, r22
 328:	00 00       	nop
 32a:	0c 00       	.word	0x000c	; ????
 32c:	66 93       	.word	0x9366	; ????
 32e:	01 67       	ori	r16, 0x71	; 113
 330:	93 01       	movw	r18, r6
 332:	68 93       	.word	0x9368	; ????
 334:	01 69       	ori	r16, 0x91	; 145
 336:	93 01       	movw	r18, r6
	...
 340:	fa 02       	muls	r31, r26
 342:	00 00       	nop
 344:	2a 03       	fmul	r18, r18
 346:	00 00       	nop
 348:	0c 00       	.word	0x000c	; ????
 34a:	62 93       	st	-Z, r22
 34c:	01 63       	ori	r16, 0x31	; 49
 34e:	93 01       	movw	r18, r6
 350:	64 93       	.word	0x9364	; ????
 352:	01 65       	ori	r16, 0x51	; 81
 354:	93 01       	movw	r18, r6
	...
 362:	22 00       	.word	0x0022	; ????
 364:	00 00       	nop
 366:	0c 00       	.word	0x000c	; ????
 368:	66 93       	.word	0x9366	; ????
 36a:	01 67       	ori	r16, 0x71	; 113
 36c:	93 01       	movw	r18, r6
 36e:	68 93       	.word	0x9368	; ????
 370:	01 69       	ori	r16, 0x91	; 145
 372:	93 01       	movw	r18, r6
	...
 380:	2a 00       	.word	0x002a	; ????
 382:	00 00       	nop
 384:	0c 00       	.word	0x000c	; ????
 386:	62 93       	st	-Z, r22
 388:	01 63       	ori	r16, 0x31	; 49
 38a:	93 01       	movw	r18, r6
 38c:	64 93       	.word	0x9364	; ????
 38e:	01 65       	ori	r16, 0x51	; 81
 390:	93 01       	movw	r18, r6
	...
 39a:	5a 00       	.word	0x005a	; ????
 39c:	00 00       	nop
 39e:	5c 00       	.word	0x005c	; ????
 3a0:	00 00       	nop
 3a2:	06 00       	.word	0x0006	; ????
 3a4:	68 93       	.word	0x9368	; ????
 3a6:	01 69       	ori	r16, 0x91	; 145
 3a8:	93 01       	movw	r18, r6
 3aa:	6e 00       	.word	0x006e	; ????
 3ac:	00 00       	nop
 3ae:	72 00       	.word	0x0072	; ????
 3b0:	00 00       	nop
 3b2:	06 00       	.word	0x0006	; ????
 3b4:	68 93       	.word	0x9368	; ????
 3b6:	01 69       	ori	r16, 0x91	; 145
 3b8:	93 01       	movw	r18, r6
 3ba:	84 00       	.word	0x0084	; ????
 3bc:	00 00       	nop
 3be:	88 00       	.word	0x0088	; ????
 3c0:	00 00       	nop
 3c2:	06 00       	.word	0x0006	; ????
 3c4:	68 93       	.word	0x9368	; ????
 3c6:	01 69       	ori	r16, 0x91	; 145
 3c8:	93 01       	movw	r18, r6
 3ca:	e6 01       	movw	r28, r12
 3cc:	00 00       	nop
 3ce:	ec 01       	movw	r28, r24
 3d0:	00 00       	nop
 3d2:	06 00       	.word	0x0006	; ????
 3d4:	68 93       	.word	0x9368	; ????
 3d6:	01 69       	ori	r16, 0x91	; 145
 3d8:	93 01       	movw	r18, r6
	...
 3e2:	ac 00       	.word	0x00ac	; ????
 3e4:	00 00       	nop
 3e6:	42 01       	movw	r8, r4
 3e8:	00 00       	nop
 3ea:	0c 00       	.word	0x000c	; ????
 3ec:	64 93       	.word	0x9364	; ????
 3ee:	01 65       	ori	r16, 0x51	; 81
 3f0:	93 01       	movw	r18, r6
 3f2:	66 93       	.word	0x9366	; ????
 3f4:	01 67       	ori	r16, 0x71	; 113
 3f6:	93 01       	movw	r18, r6
 3f8:	6a 01       	movw	r12, r20
 3fa:	00 00       	nop
 3fc:	ec 01       	movw	r28, r24
 3fe:	00 00       	nop
 400:	0c 00       	.word	0x000c	; ????
 402:	64 93       	.word	0x9364	; ????
 404:	01 65       	ori	r16, 0x51	; 81
 406:	93 01       	movw	r18, r6
 408:	66 93       	.word	0x9366	; ????
 40a:	01 67       	ori	r16, 0x71	; 113
 40c:	93 01       	movw	r18, r6
	...
 416:	90 00       	.word	0x0090	; ????
 418:	00 00       	nop
 41a:	b2 00       	.word	0x00b2	; ????
 41c:	00 00       	nop
 41e:	0c 00       	.word	0x000c	; ????
 420:	52 93       	st	-Z, r21
 422:	01 53       	subi	r16, 0x31	; 49
 424:	93 01       	movw	r18, r6
 426:	54 93       	.word	0x9354	; ????
 428:	01 55       	subi	r16, 0x51	; 81
 42a:	93 01       	movw	r18, r6
 42c:	28 01       	movw	r4, r16
 42e:	00 00       	nop
 430:	2a 01       	movw	r4, r20
 432:	00 00       	nop
 434:	0c 00       	.word	0x000c	; ????
 436:	52 93       	st	-Z, r21
 438:	01 53       	subi	r16, 0x31	; 49
 43a:	93 01       	movw	r18, r6
 43c:	54 93       	.word	0x9354	; ????
 43e:	01 55       	subi	r16, 0x51	; 81
 440:	93 01       	movw	r18, r6
	...
 44a:	b0 00       	.word	0x00b0	; ????
 44c:	00 00       	nop
 44e:	2e 01       	movw	r4, r28
 450:	00 00       	nop
 452:	06 00       	.word	0x0006	; ????
 454:	6e 93       	st	-X, r22
 456:	01 6f       	ori	r16, 0xF1	; 241
 458:	93 01       	movw	r18, r6
	...
 466:	2c 00       	.word	0x002c	; ????
 468:	00 00       	nop
 46a:	0c 00       	.word	0x000c	; ????
 46c:	66 93       	.word	0x9366	; ????
 46e:	01 67       	ori	r16, 0x71	; 113
 470:	93 01       	movw	r18, r6
 472:	68 93       	.word	0x9368	; ????
 474:	01 69       	ori	r16, 0x91	; 145
 476:	93 01       	movw	r18, r6
	...
 484:	30 00       	.word	0x0030	; ????
 486:	00 00       	nop
 488:	0c 00       	.word	0x000c	; ????
 48a:	62 93       	st	-Z, r22
 48c:	01 63       	ori	r16, 0x31	; 49
 48e:	93 01       	movw	r18, r6
 490:	64 93       	.word	0x9364	; ????
 492:	01 65       	ori	r16, 0x51	; 81
 494:	93 01       	movw	r18, r6
	...
 4a2:	2c 00       	.word	0x002c	; ????
 4a4:	00 00       	nop
 4a6:	0c 00       	.word	0x000c	; ????
 4a8:	66 93       	.word	0x9366	; ????
 4aa:	01 67       	ori	r16, 0x71	; 113
 4ac:	93 01       	movw	r18, r6
 4ae:	68 93       	.word	0x9368	; ????
 4b0:	01 69       	ori	r16, 0x91	; 145
 4b2:	93 01       	movw	r18, r6
	...
 4c0:	30 00       	.word	0x0030	; ????
 4c2:	00 00       	nop
 4c4:	0c 00       	.word	0x000c	; ????
 4c6:	62 93       	st	-Z, r22
 4c8:	01 63       	ori	r16, 0x31	; 49
 4ca:	93 01       	movw	r18, r6
 4cc:	64 93       	.word	0x9364	; ????
 4ce:	01 65       	ori	r16, 0x51	; 81
 4d0:	93 01       	movw	r18, r6
	...
 4de:	2c 00       	.word	0x002c	; ????
 4e0:	00 00       	nop
 4e2:	0c 00       	.word	0x000c	; ????
 4e4:	66 93       	.word	0x9366	; ????
 4e6:	01 67       	ori	r16, 0x71	; 113
 4e8:	93 01       	movw	r18, r6
 4ea:	68 93       	.word	0x9368	; ????
 4ec:	01 69       	ori	r16, 0x91	; 145
 4ee:	93 01       	movw	r18, r6
	...
 4fc:	30 00       	.word	0x0030	; ????
 4fe:	00 00       	nop
 500:	0c 00       	.word	0x000c	; ????
 502:	62 93       	st	-Z, r22
 504:	01 63       	ori	r16, 0x31	; 49
 506:	93 01       	movw	r18, r6
 508:	64 93       	.word	0x9364	; ????
 50a:	01 65       	ori	r16, 0x51	; 81
 50c:	93 01       	movw	r18, r6
	...
 51a:	1a 00       	.word	0x001a	; ????
 51c:	00 00       	nop
 51e:	0c 00       	.word	0x000c	; ????
 520:	66 93       	.word	0x9366	; ????
 522:	01 67       	ori	r16, 0x71	; 113
 524:	93 01       	movw	r18, r6
 526:	68 93       	.word	0x9368	; ????
 528:	01 69       	ori	r16, 0x91	; 145
 52a:	93 01       	movw	r18, r6
	...
 534:	5e 00       	.word	0x005e	; ????
 536:	00 00       	nop
 538:	80 00       	.word	0x0080	; ????
 53a:	00 00       	nop
 53c:	0c 00       	.word	0x000c	; ????
 53e:	62 93       	st	-Z, r22
 540:	01 63       	ori	r16, 0x31	; 49
 542:	93 01       	movw	r18, r6
 544:	64 93       	.word	0x9364	; ????
 546:	01 65       	ori	r16, 0x51	; 81
 548:	93 01       	movw	r18, r6
 54a:	88 00       	.word	0x0088	; ????
 54c:	00 00       	nop
 54e:	8a 00       	.word	0x008a	; ????
 550:	00 00       	nop
 552:	0c 00       	.word	0x000c	; ????
 554:	62 93       	st	-Z, r22
 556:	01 63       	ori	r16, 0x31	; 49
 558:	93 01       	movw	r18, r6
 55a:	64 93       	.word	0x9364	; ????
 55c:	01 65       	ori	r16, 0x51	; 81
 55e:	93 01       	movw	r18, r6
 560:	92 00       	.word	0x0092	; ????
 562:	00 00       	nop
 564:	94 00       	.word	0x0094	; ????
 566:	00 00       	nop
 568:	0c 00       	.word	0x000c	; ????
 56a:	62 93       	st	-Z, r22
 56c:	01 63       	ori	r16, 0x31	; 49
 56e:	93 01       	movw	r18, r6
 570:	64 93       	.word	0x9364	; ????
 572:	01 65       	ori	r16, 0x51	; 81
 574:	93 01       	movw	r18, r6
 576:	9c 00       	.word	0x009c	; ????
 578:	00 00       	nop
 57a:	9e 00       	.word	0x009e	; ????
 57c:	00 00       	nop
 57e:	0c 00       	.word	0x000c	; ????
 580:	62 93       	st	-Z, r22
 582:	01 63       	ori	r16, 0x31	; 49
 584:	93 01       	movw	r18, r6
 586:	64 93       	.word	0x9364	; ????
 588:	01 65       	ori	r16, 0x51	; 81
 58a:	93 01       	movw	r18, r6
	...
 598:	18 00       	.word	0x0018	; ????
 59a:	00 00       	nop
 59c:	06 00       	.word	0x0006	; ????
 59e:	68 93       	.word	0x9368	; ????
 5a0:	01 69       	ori	r16, 0x91	; 145
 5a2:	93 01       	movw	r18, r6
 5a4:	18 00       	.word	0x0018	; ????
 5a6:	00 00       	nop
 5a8:	4e 00       	.word	0x004e	; ????
 5aa:	00 00       	nop
 5ac:	06 00       	.word	0x0006	; ????
 5ae:	6e 93       	st	-X, r22
 5b0:	01 6f       	ori	r16, 0xF1	; 241
 5b2:	93 01       	movw	r18, r6
 5b4:	50 00       	.word	0x0050	; ????
 5b6:	00 00       	nop
 5b8:	fa 00       	.word	0x00fa	; ????
 5ba:	00 00       	nop
 5bc:	06 00       	.word	0x0006	; ????
 5be:	6e 93       	st	-X, r22
 5c0:	01 6f       	ori	r16, 0xF1	; 241
 5c2:	93 01       	movw	r18, r6
 5c4:	14 01       	movw	r2, r8
 5c6:	00 00       	nop
 5c8:	1c 01       	movw	r2, r24
 5ca:	00 00       	nop
 5cc:	06 00       	.word	0x0006	; ????
 5ce:	6e 93       	st	-X, r22
 5d0:	01 6f       	ori	r16, 0xF1	; 241
 5d2:	93 01       	movw	r18, r6
 5d4:	72 01       	movw	r14, r4
 5d6:	00 00       	nop
 5d8:	7c 01       	movw	r14, r24
 5da:	00 00       	nop
 5dc:	06 00       	.word	0x0006	; ????
 5de:	6e 93       	st	-X, r22
 5e0:	01 6f       	ori	r16, 0xF1	; 241
 5e2:	93 01       	movw	r18, r6
	...
 5ec:	14 00       	.word	0x0014	; ????
 5ee:	00 00       	nop
 5f0:	74 00       	.word	0x0074	; ????
 5f2:	00 00       	nop
 5f4:	0c 00       	.word	0x000c	; ????
 5f6:	5e 93       	st	-X, r21
 5f8:	01 5f       	subi	r16, 0xF1	; 241
 5fa:	93 01       	movw	r18, r6
 5fc:	60 93 01 61 	sts	0x6101, r22
 600:	93 01       	movw	r18, r6
 602:	74 00       	.word	0x0074	; ????
 604:	00 00       	nop
 606:	76 00       	.word	0x0076	; ????
 608:	00 00       	nop
 60a:	0c 00       	.word	0x000c	; ????
 60c:	62 93       	st	-Z, r22
 60e:	01 63       	ori	r16, 0x31	; 49
 610:	93 01       	movw	r18, r6
 612:	64 93       	.word	0x9364	; ????
 614:	01 65       	ori	r16, 0x51	; 81
 616:	93 01       	movw	r18, r6
 618:	76 00       	.word	0x0076	; ????
 61a:	00 00       	nop
 61c:	c2 00       	.word	0x00c2	; ????
 61e:	00 00       	nop
 620:	0c 00       	.word	0x000c	; ????
 622:	5e 93       	st	-X, r21
 624:	01 5f       	subi	r16, 0xF1	; 241
 626:	93 01       	movw	r18, r6
 628:	60 93 01 61 	sts	0x6101, r22
 62c:	93 01       	movw	r18, r6
 62e:	c2 00       	.word	0x00c2	; ????
 630:	00 00       	nop
 632:	14 01       	movw	r2, r8
 634:	00 00       	nop
 636:	0c 00       	.word	0x000c	; ????
 638:	62 93       	st	-Z, r22
 63a:	01 63       	ori	r16, 0x31	; 49
 63c:	93 01       	movw	r18, r6
 63e:	64 93       	.word	0x9364	; ????
 640:	01 65       	ori	r16, 0x51	; 81
 642:	93 01       	movw	r18, r6
 644:	14 01       	movw	r2, r8
 646:	00 00       	nop
 648:	9c 01       	movw	r18, r24
 64a:	00 00       	nop
 64c:	0c 00       	.word	0x000c	; ????
 64e:	5e 93       	st	-X, r21
 650:	01 5f       	subi	r16, 0xF1	; 241
 652:	93 01       	movw	r18, r6
 654:	60 93 01 61 	sts	0x6101, r22
 658:	93 01       	movw	r18, r6
	...
 662:	4e 00       	.word	0x004e	; ????
 664:	00 00       	nop
 666:	50 00       	.word	0x0050	; ????
 668:	00 00       	nop
 66a:	06 00       	.word	0x0006	; ????
 66c:	6e 93       	st	-X, r22
 66e:	01 6f       	ori	r16, 0xF1	; 241
 670:	93 01       	movw	r18, r6
 672:	fa 00       	.word	0x00fa	; ????
 674:	00 00       	nop
 676:	14 01       	movw	r2, r8
 678:	00 00       	nop
 67a:	06 00       	.word	0x0006	; ????
 67c:	6e 93       	st	-X, r22
 67e:	01 6f       	ori	r16, 0xF1	; 241
 680:	93 01       	movw	r18, r6
 682:	1c 01       	movw	r2, r24
 684:	00 00       	nop
 686:	72 01       	movw	r14, r4
 688:	00 00       	nop
 68a:	06 00       	.word	0x0006	; ????
 68c:	6e 93       	st	-X, r22
 68e:	01 6f       	ori	r16, 0xF1	; 241
 690:	93 01       	movw	r18, r6
 692:	7c 01       	movw	r14, r24
 694:	00 00       	nop
 696:	7e 01       	movw	r14, r28
 698:	00 00       	nop
 69a:	06 00       	.word	0x0006	; ????
 69c:	6e 93       	st	-X, r22
 69e:	01 6f       	ori	r16, 0xF1	; 241
 6a0:	93 01       	movw	r18, r6
	...
 6aa:	62 00       	.word	0x0062	; ????
 6ac:	00 00       	nop
 6ae:	74 00       	.word	0x0074	; ????
 6b0:	00 00       	nop
 6b2:	06 00       	.word	0x0006	; ????
 6b4:	62 93       	st	-Z, r22
 6b6:	01 63       	ori	r16, 0x31	; 49
 6b8:	93 01       	movw	r18, r6
 6ba:	76 00       	.word	0x0076	; ????
 6bc:	00 00       	nop
 6be:	c2 00       	.word	0x00c2	; ????
 6c0:	00 00       	nop
 6c2:	06 00       	.word	0x0006	; ????
 6c4:	62 93       	st	-Z, r22
 6c6:	01 63       	ori	r16, 0x31	; 49
 6c8:	93 01       	movw	r18, r6
	...
 6d6:	1a 00       	.word	0x001a	; ????
 6d8:	00 00       	nop
 6da:	06 00       	.word	0x0006	; ????
 6dc:	68 93       	.word	0x9368	; ????
 6de:	01 69       	ori	r16, 0x91	; 145
 6e0:	93 01       	movw	r18, r6
 6e2:	1a 00       	.word	0x001a	; ????
 6e4:	00 00       	nop
 6e6:	f0 00       	.word	0x00f0	; ????
 6e8:	00 00       	nop
 6ea:	06 00       	.word	0x0006	; ????
 6ec:	6e 93       	st	-X, r22
 6ee:	01 6f       	ori	r16, 0xF1	; 241
 6f0:	93 01       	movw	r18, r6
	...
 6fe:	0c 00       	.word	0x000c	; ????
 700:	00 00       	nop
 702:	06 00       	.word	0x0006	; ????
 704:	66 93       	.word	0x9366	; ????
 706:	01 67       	ori	r16, 0x71	; 113
 708:	93 01       	movw	r18, r6
 70a:	0c 00       	.word	0x000c	; ????
 70c:	00 00       	nop
 70e:	f0 00       	.word	0x00f0	; ????
 710:	00 00       	nop
 712:	06 00       	.word	0x0006	; ????
 714:	6a 93       	st	-Y, r22
 716:	01 6b       	ori	r16, 0xB1	; 177
 718:	93 01       	movw	r18, r6
	...
 722:	60 00       	.word	0x0060	; ????
 724:	00 00       	nop
 726:	9e 00       	.word	0x009e	; ????
 728:	00 00       	nop
 72a:	0c 00       	.word	0x000c	; ????
 72c:	62 93       	st	-Z, r22
 72e:	01 63       	ori	r16, 0x31	; 49
 730:	93 01       	movw	r18, r6
 732:	64 93       	.word	0x9364	; ????
 734:	01 65       	ori	r16, 0x51	; 81
 736:	93 01       	movw	r18, r6
 738:	e0 00       	.word	0x00e0	; ????
 73a:	00 00       	nop
 73c:	f0 00       	.word	0x00f0	; ????
 73e:	00 00       	nop
 740:	0c 00       	.word	0x000c	; ????
 742:	64 93       	.word	0x9364	; ????
 744:	01 65       	ori	r16, 0x51	; 81
 746:	93 01       	movw	r18, r6
 748:	66 93       	.word	0x9366	; ????
 74a:	01 67       	ori	r16, 0x71	; 113
 74c:	93 01       	movw	r18, r6
	...
 756:	22 00       	.word	0x0022	; ????
 758:	00 00       	nop
 75a:	52 00       	.word	0x0052	; ????
 75c:	00 00       	nop
 75e:	06 00       	.word	0x0006	; ????
 760:	62 93       	st	-Z, r22
 762:	01 63       	ori	r16, 0x31	; 49
 764:	93 01       	movw	r18, r6
 766:	9e 00       	.word	0x009e	; ????
 768:	00 00       	nop
 76a:	f0 00       	.word	0x00f0	; ????
 76c:	00 00       	nop
 76e:	06 00       	.word	0x0006	; ????
 770:	62 93       	st	-Z, r22
 772:	01 63       	ori	r16, 0x31	; 49
 774:	93 01       	movw	r18, r6
	...
 782:	0e 00       	.word	0x000e	; ????
 784:	00 00       	nop
 786:	06 00       	.word	0x0006	; ????
 788:	68 93       	.word	0x9368	; ????
 78a:	01 69       	ori	r16, 0x91	; 145
 78c:	93 01       	movw	r18, r6
 78e:	0e 00       	.word	0x000e	; ????
 790:	00 00       	nop
 792:	b2 00       	.word	0x00b2	; ????
 794:	00 00       	nop
 796:	06 00       	.word	0x0006	; ????
 798:	6a 93       	st	-Y, r22
 79a:	01 6b       	ori	r16, 0xB1	; 177
 79c:	93 01       	movw	r18, r6
	...
 7aa:	0e 00       	.word	0x000e	; ????
 7ac:	00 00       	nop
 7ae:	06 00       	.word	0x0006	; ????
 7b0:	66 93       	.word	0x9366	; ????
 7b2:	01 67       	ori	r16, 0x71	; 113
 7b4:	93 01       	movw	r18, r6
 7b6:	0e 00       	.word	0x000e	; ????
 7b8:	00 00       	nop
 7ba:	b2 00       	.word	0x00b2	; ????
 7bc:	00 00       	nop
 7be:	06 00       	.word	0x0006	; ????
 7c0:	6e 93       	st	-X, r22
 7c2:	01 6f       	ori	r16, 0xF1	; 241
 7c4:	93 01       	movw	r18, r6
	...

Disassembly of section .debug_macinfo:

00000000 <.debug_macinfo>:
       0:	03 00       	.word	0x0003	; ????
       2:	01 01       	movw	r0, r2
       4:	00 5f       	subi	r16, 0xF0	; 240
       6:	5f 53       	subi	r21, 0x3F	; 63
       8:	54 44       	sbci	r21, 0x44	; 68
       a:	43 5f       	subi	r20, 0xF3	; 243
       c:	5f 20       	and	r5, r15
       e:	31 00       	.word	0x0031	; ????
      10:	01 00       	.word	0x0001	; ????
      12:	5f 5f       	subi	r21, 0xFF	; 255
      14:	53 54       	subi	r21, 0x43	; 67
      16:	44 43       	sbci	r20, 0x34	; 52
      18:	5f 56       	subi	r21, 0x6F	; 111
      1a:	45 52       	subi	r20, 0x25	; 37
      1c:	53 49       	sbci	r21, 0x93	; 147
      1e:	4f 4e       	sbci	r20, 0xEF	; 239
      20:	5f 5f       	subi	r21, 0xFF	; 255
      22:	20 31       	cpi	r18, 0x10	; 16
      24:	39 39       	cpi	r19, 0x99	; 153
      26:	39 30       	cpi	r19, 0x09	; 9
      28:	31 4c       	sbci	r19, 0xC1	; 193
      2a:	00 01       	movw	r0, r0
      2c:	00 5f       	subi	r16, 0xF0	; 240
      2e:	5f 53       	subi	r21, 0x3F	; 63
      30:	54 44       	sbci	r21, 0x44	; 68
      32:	43 5f       	subi	r20, 0xF3	; 243
      34:	48 4f       	sbci	r20, 0xF8	; 248
      36:	53 54       	subi	r21, 0x43	; 67
      38:	45 44       	sbci	r20, 0x45	; 69
      3a:	5f 5f       	subi	r21, 0xFF	; 255
      3c:	20 31       	cpi	r18, 0x10	; 16
      3e:	00 01       	movw	r0, r0
      40:	00 5f       	subi	r16, 0xF0	; 240
      42:	5f 47       	sbci	r21, 0x7F	; 127
      44:	4e 55       	subi	r20, 0x5E	; 94
      46:	43 5f       	subi	r20, 0xF3	; 243
      48:	5f 20       	and	r5, r15
      4a:	34 00       	.word	0x0034	; ????
      4c:	01 00       	.word	0x0001	; ????
      4e:	5f 5f       	subi	r21, 0xFF	; 255
      50:	47 4e       	sbci	r20, 0xE7	; 231
      52:	55 43       	sbci	r21, 0x35	; 53
      54:	5f 4d       	sbci	r21, 0xDF	; 223
      56:	49 4e       	sbci	r20, 0xE9	; 233
      58:	4f 52       	subi	r20, 0x2F	; 47
      5a:	5f 5f       	subi	r21, 0xFF	; 255
      5c:	20 33       	cpi	r18, 0x30	; 48
      5e:	00 01       	movw	r0, r0
      60:	00 5f       	subi	r16, 0xF0	; 240
      62:	5f 47       	sbci	r21, 0x7F	; 127
      64:	4e 55       	subi	r20, 0x5E	; 94
      66:	43 5f       	subi	r20, 0xF3	; 243
      68:	50 41       	sbci	r21, 0x10	; 16
      6a:	54 43       	sbci	r21, 0x34	; 52
      6c:	48 4c       	sbci	r20, 0xC8	; 200
      6e:	45 56       	subi	r20, 0x65	; 101
      70:	45 4c       	sbci	r20, 0xC5	; 197
      72:	5f 5f       	subi	r21, 0xFF	; 255
      74:	20 33       	cpi	r18, 0x30	; 48
      76:	00 01       	movw	r0, r0
      78:	00 5f       	subi	r16, 0xF0	; 240
      7a:	5f 53       	subi	r21, 0x3F	; 63
      7c:	49 5a       	subi	r20, 0xA9	; 169
      7e:	45 5f       	subi	r20, 0xF5	; 245
      80:	54 59       	subi	r21, 0x94	; 148
      82:	50 45       	sbci	r21, 0x50	; 80
      84:	5f 5f       	subi	r21, 0xFF	; 255
      86:	20 75       	andi	r18, 0x50	; 80
      88:	6e 73       	andi	r22, 0x3E	; 62
      8a:	69 67       	ori	r22, 0x79	; 121
      8c:	6e 65       	ori	r22, 0x5E	; 94
      8e:	64 20       	and	r6, r4
      90:	69 6e       	ori	r22, 0xE9	; 233
      92:	74 00       	.word	0x0074	; ????
      94:	01 00       	.word	0x0001	; ????
      96:	5f 5f       	subi	r21, 0xFF	; 255
      98:	50 54       	subi	r21, 0x40	; 64
      9a:	52 44       	sbci	r21, 0x42	; 66
      9c:	49 46       	sbci	r20, 0x69	; 105
      9e:	46 5f       	subi	r20, 0xF6	; 246
      a0:	54 59       	subi	r21, 0x94	; 148
      a2:	50 45       	sbci	r21, 0x50	; 80
      a4:	5f 5f       	subi	r21, 0xFF	; 255
      a6:	20 69       	ori	r18, 0x90	; 144
      a8:	6e 74       	andi	r22, 0x4E	; 78
      aa:	00 01       	movw	r0, r0
      ac:	00 5f       	subi	r16, 0xF0	; 240
      ae:	5f 57       	subi	r21, 0x7F	; 127
      b0:	43 48       	sbci	r20, 0x83	; 131
      b2:	41 52       	subi	r20, 0x21	; 33
      b4:	5f 54       	subi	r21, 0x4F	; 79
      b6:	59 50       	subi	r21, 0x09	; 9
      b8:	45 5f       	subi	r20, 0xF5	; 245
      ba:	5f 20       	and	r5, r15
      bc:	69 6e       	ori	r22, 0xE9	; 233
      be:	74 00       	.word	0x0074	; ????
      c0:	01 00       	.word	0x0001	; ????
      c2:	5f 5f       	subi	r21, 0xFF	; 255
      c4:	57 49       	sbci	r21, 0x97	; 151
      c6:	4e 54       	subi	r20, 0x4E	; 78
      c8:	5f 54       	subi	r21, 0x4F	; 79
      ca:	59 50       	subi	r21, 0x09	; 9
      cc:	45 5f       	subi	r20, 0xF5	; 245
      ce:	5f 20       	and	r5, r15
      d0:	75 6e       	ori	r23, 0xE5	; 229
      d2:	73 69       	ori	r23, 0x93	; 147
      d4:	67 6e       	ori	r22, 0xE7	; 231
      d6:	65 64       	ori	r22, 0x45	; 69
      d8:	20 69       	ori	r18, 0x90	; 144
      da:	6e 74       	andi	r22, 0x4E	; 78
      dc:	00 01       	movw	r0, r0
      de:	00 5f       	subi	r16, 0xF0	; 240
      e0:	5f 49       	sbci	r21, 0x9F	; 159
      e2:	4e 54       	subi	r20, 0x4E	; 78
      e4:	4d 41       	sbci	r20, 0x1D	; 29
      e6:	58 5f       	subi	r21, 0xF8	; 248
      e8:	54 59       	subi	r21, 0x94	; 148
      ea:	50 45       	sbci	r21, 0x50	; 80
      ec:	5f 5f       	subi	r21, 0xFF	; 255
      ee:	20 6c       	ori	r18, 0xC0	; 192
      f0:	6f 6e       	ori	r22, 0xEF	; 239
      f2:	67 20       	and	r6, r7
      f4:	6c 6f       	ori	r22, 0xFC	; 252
      f6:	6e 67       	ori	r22, 0x7E	; 126
      f8:	20 69       	ori	r18, 0x90	; 144
      fa:	6e 74       	andi	r22, 0x4E	; 78
      fc:	00 01       	movw	r0, r0
      fe:	00 5f       	subi	r16, 0xF0	; 240
     100:	5f 55       	subi	r21, 0x5F	; 95
     102:	49 4e       	sbci	r20, 0xE9	; 233
     104:	54 4d       	sbci	r21, 0xD4	; 212
     106:	41 58       	subi	r20, 0x81	; 129
     108:	5f 54       	subi	r21, 0x4F	; 79
     10a:	59 50       	subi	r21, 0x09	; 9
     10c:	45 5f       	subi	r20, 0xF5	; 245
     10e:	5f 20       	and	r5, r15
     110:	6c 6f       	ori	r22, 0xFC	; 252
     112:	6e 67       	ori	r22, 0x7E	; 126
     114:	20 6c       	ori	r18, 0xC0	; 192
     116:	6f 6e       	ori	r22, 0xEF	; 239
     118:	67 20       	and	r6, r7
     11a:	75 6e       	ori	r23, 0xE5	; 229
     11c:	73 69       	ori	r23, 0x93	; 147
     11e:	67 6e       	ori	r22, 0xE7	; 231
     120:	65 64       	ori	r22, 0x45	; 69
     122:	20 69       	ori	r18, 0x90	; 144
     124:	6e 74       	andi	r22, 0x4E	; 78
     126:	00 01       	movw	r0, r0
     128:	00 5f       	subi	r16, 0xF0	; 240
     12a:	5f 47       	sbci	r21, 0x7F	; 127
     12c:	58 58       	subi	r21, 0x88	; 136
     12e:	5f 41       	sbci	r21, 0x1F	; 31
     130:	42 49       	sbci	r20, 0x92	; 146
     132:	5f 56       	subi	r21, 0x6F	; 111
     134:	45 52       	subi	r20, 0x25	; 37
     136:	53 49       	sbci	r21, 0x93	; 147
     138:	4f 4e       	sbci	r20, 0xEF	; 239
     13a:	20 31       	cpi	r18, 0x10	; 16
     13c:	30 30       	cpi	r19, 0x00	; 0
     13e:	32 00       	.word	0x0032	; ????
     140:	01 00       	.word	0x0001	; ????
     142:	5f 5f       	subi	r21, 0xFF	; 255
     144:	55 53       	subi	r21, 0x35	; 53
     146:	49 4e       	sbci	r20, 0xE9	; 233
     148:	47 5f       	subi	r20, 0xF7	; 247
     14a:	53 4a       	sbci	r21, 0xA3	; 163
     14c:	4c 4a       	sbci	r20, 0xAC	; 172
     14e:	5f 45       	sbci	r21, 0x5F	; 95
     150:	58 43       	sbci	r21, 0x38	; 56
     152:	45 50       	subi	r20, 0x05	; 5
     154:	54 49       	sbci	r21, 0x94	; 148
     156:	4f 4e       	sbci	r20, 0xEF	; 239
     158:	53 5f       	subi	r21, 0xF3	; 243
     15a:	5f 20       	and	r5, r15
     15c:	31 00       	.word	0x0031	; ????
     15e:	01 00       	.word	0x0001	; ????
     160:	5f 5f       	subi	r21, 0xFF	; 255
     162:	53 43       	sbci	r21, 0x33	; 51
     164:	48 41       	sbci	r20, 0x18	; 24
     166:	52 5f       	subi	r21, 0xF2	; 242
     168:	4d 41       	sbci	r20, 0x1D	; 29
     16a:	58 5f       	subi	r21, 0xF8	; 248
     16c:	5f 20       	and	r5, r15
     16e:	31 32       	cpi	r19, 0x21	; 33
     170:	37 00       	.word	0x0037	; ????
     172:	01 00       	.word	0x0001	; ????
     174:	5f 5f       	subi	r21, 0xFF	; 255
     176:	53 48       	sbci	r21, 0x83	; 131
     178:	52 54       	subi	r21, 0x42	; 66
     17a:	5f 4d       	sbci	r21, 0xDF	; 223
     17c:	41 58       	subi	r20, 0x81	; 129
     17e:	5f 5f       	subi	r21, 0xFF	; 255
     180:	20 33       	cpi	r18, 0x30	; 48
     182:	32 37       	cpi	r19, 0x72	; 114
     184:	36 37       	cpi	r19, 0x76	; 118
     186:	00 01       	movw	r0, r0
     188:	00 5f       	subi	r16, 0xF0	; 240
     18a:	5f 49       	sbci	r21, 0x9F	; 159
     18c:	4e 54       	subi	r20, 0x4E	; 78
     18e:	5f 4d       	sbci	r21, 0xDF	; 223
     190:	41 58       	subi	r20, 0x81	; 129
     192:	5f 5f       	subi	r21, 0xFF	; 255
     194:	20 33       	cpi	r18, 0x30	; 48
     196:	32 37       	cpi	r19, 0x72	; 114
     198:	36 37       	cpi	r19, 0x76	; 118
     19a:	00 01       	movw	r0, r0
     19c:	00 5f       	subi	r16, 0xF0	; 240
     19e:	5f 4c       	sbci	r21, 0xCF	; 207
     1a0:	4f 4e       	sbci	r20, 0xEF	; 239
     1a2:	47 5f       	subi	r20, 0xF7	; 247
     1a4:	4d 41       	sbci	r20, 0x1D	; 29
     1a6:	58 5f       	subi	r21, 0xF8	; 248
     1a8:	5f 20       	and	r5, r15
     1aa:	32 31       	cpi	r19, 0x12	; 18
     1ac:	34 37       	cpi	r19, 0x74	; 116
     1ae:	34 38       	cpi	r19, 0x84	; 132
     1b0:	33 36       	cpi	r19, 0x63	; 99
     1b2:	34 37       	cpi	r19, 0x74	; 116
     1b4:	4c 00       	.word	0x004c	; ????
     1b6:	01 00       	.word	0x0001	; ????
     1b8:	5f 5f       	subi	r21, 0xFF	; 255
     1ba:	4c 4f       	sbci	r20, 0xFC	; 252
     1bc:	4e 47       	sbci	r20, 0x7E	; 126
     1be:	5f 4c       	sbci	r21, 0xCF	; 207
     1c0:	4f 4e       	sbci	r20, 0xEF	; 239
     1c2:	47 5f       	subi	r20, 0xF7	; 247
     1c4:	4d 41       	sbci	r20, 0x1D	; 29
     1c6:	58 5f       	subi	r21, 0xF8	; 248
     1c8:	5f 20       	and	r5, r15
     1ca:	39 32       	cpi	r19, 0x29	; 41
     1cc:	32 33       	cpi	r19, 0x32	; 50
     1ce:	33 37       	cpi	r19, 0x73	; 115
     1d0:	32 30       	cpi	r19, 0x02	; 2
     1d2:	33 36       	cpi	r19, 0x63	; 99
     1d4:	38 35       	cpi	r19, 0x58	; 88
     1d6:	34 37       	cpi	r19, 0x74	; 116
     1d8:	37 35       	cpi	r19, 0x57	; 87
     1da:	38 30       	cpi	r19, 0x08	; 8
     1dc:	37 4c       	sbci	r19, 0xC7	; 199
     1de:	4c 00       	.word	0x004c	; ????
     1e0:	01 00       	.word	0x0001	; ????
     1e2:	5f 5f       	subi	r21, 0xFF	; 255
     1e4:	57 43       	sbci	r21, 0x37	; 55
     1e6:	48 41       	sbci	r20, 0x18	; 24
     1e8:	52 5f       	subi	r21, 0xF2	; 242
     1ea:	4d 41       	sbci	r20, 0x1D	; 29
     1ec:	58 5f       	subi	r21, 0xF8	; 248
     1ee:	5f 20       	and	r5, r15
     1f0:	33 32       	cpi	r19, 0x23	; 35
     1f2:	37 36       	cpi	r19, 0x67	; 103
     1f4:	37 00       	.word	0x0037	; ????
     1f6:	01 00       	.word	0x0001	; ????
     1f8:	5f 5f       	subi	r21, 0xFF	; 255
     1fa:	43 48       	sbci	r20, 0x83	; 131
     1fc:	41 52       	subi	r20, 0x21	; 33
     1fe:	5f 42       	sbci	r21, 0x2F	; 47
     200:	49 54       	subi	r20, 0x49	; 73
     202:	5f 5f       	subi	r21, 0xFF	; 255
     204:	20 38       	cpi	r18, 0x80	; 128
     206:	00 01       	movw	r0, r0
     208:	00 5f       	subi	r16, 0xF0	; 240
     20a:	5f 49       	sbci	r21, 0x9F	; 159
     20c:	4e 54       	subi	r20, 0x4E	; 78
     20e:	4d 41       	sbci	r20, 0x1D	; 29
     210:	58 5f       	subi	r21, 0xF8	; 248
     212:	4d 41       	sbci	r20, 0x1D	; 29
     214:	58 5f       	subi	r21, 0xF8	; 248
     216:	5f 20       	and	r5, r15
     218:	39 32       	cpi	r19, 0x29	; 41
     21a:	32 33       	cpi	r19, 0x32	; 50
     21c:	33 37       	cpi	r19, 0x73	; 115
     21e:	32 30       	cpi	r19, 0x02	; 2
     220:	33 36       	cpi	r19, 0x63	; 99
     222:	38 35       	cpi	r19, 0x58	; 88
     224:	34 37       	cpi	r19, 0x74	; 116
     226:	37 35       	cpi	r19, 0x57	; 87
     228:	38 30       	cpi	r19, 0x08	; 8
     22a:	37 4c       	sbci	r19, 0xC7	; 199
     22c:	4c 00       	.word	0x004c	; ????
     22e:	01 00       	.word	0x0001	; ????
     230:	5f 5f       	subi	r21, 0xFF	; 255
     232:	46 4c       	sbci	r20, 0xC6	; 198
     234:	54 5f       	subi	r21, 0xF4	; 244
     236:	45 56       	subi	r20, 0x65	; 101
     238:	41 4c       	sbci	r20, 0xC1	; 193
     23a:	5f 4d       	sbci	r21, 0xDF	; 223
     23c:	45 54       	subi	r20, 0x45	; 69
     23e:	48 4f       	sbci	r20, 0xF8	; 248
     240:	44 5f       	subi	r20, 0xF4	; 244
     242:	5f 20       	and	r5, r15
     244:	30 00       	.word	0x0030	; ????
     246:	01 00       	.word	0x0001	; ????
     248:	5f 5f       	subi	r21, 0xFF	; 255
     24a:	44 45       	sbci	r20, 0x54	; 84
     24c:	43 5f       	subi	r20, 0xF3	; 243
     24e:	45 56       	subi	r20, 0x65	; 101
     250:	41 4c       	sbci	r20, 0xC1	; 193
     252:	5f 4d       	sbci	r21, 0xDF	; 223
     254:	45 54       	subi	r20, 0x45	; 69
     256:	48 4f       	sbci	r20, 0xF8	; 248
     258:	44 5f       	subi	r20, 0xF4	; 244
     25a:	5f 20       	and	r5, r15
     25c:	32 00       	.word	0x0032	; ????
     25e:	01 00       	.word	0x0001	; ????
     260:	5f 5f       	subi	r21, 0xFF	; 255
     262:	46 4c       	sbci	r20, 0xC6	; 198
     264:	54 5f       	subi	r21, 0xF4	; 244
     266:	52 41       	sbci	r21, 0x12	; 18
     268:	44 49       	sbci	r20, 0x94	; 148
     26a:	58 5f       	subi	r21, 0xF8	; 248
     26c:	5f 20       	and	r5, r15
     26e:	32 00       	.word	0x0032	; ????
     270:	01 00       	.word	0x0001	; ????
     272:	5f 5f       	subi	r21, 0xFF	; 255
     274:	46 4c       	sbci	r20, 0xC6	; 198
     276:	54 5f       	subi	r21, 0xF4	; 244
     278:	4d 41       	sbci	r20, 0x1D	; 29
     27a:	4e 54       	subi	r20, 0x4E	; 78
     27c:	5f 44       	sbci	r21, 0x4F	; 79
     27e:	49 47       	sbci	r20, 0x79	; 121
     280:	5f 5f       	subi	r21, 0xFF	; 255
     282:	20 32       	cpi	r18, 0x20	; 32
     284:	34 00       	.word	0x0034	; ????
     286:	01 00       	.word	0x0001	; ????
     288:	5f 5f       	subi	r21, 0xFF	; 255
     28a:	46 4c       	sbci	r20, 0xC6	; 198
     28c:	54 5f       	subi	r21, 0xF4	; 244
     28e:	44 49       	sbci	r20, 0x94	; 148
     290:	47 5f       	subi	r20, 0xF7	; 247
     292:	5f 20       	and	r5, r15
     294:	36 00       	.word	0x0036	; ????
     296:	01 00       	.word	0x0001	; ????
     298:	5f 5f       	subi	r21, 0xFF	; 255
     29a:	46 4c       	sbci	r20, 0xC6	; 198
     29c:	54 5f       	subi	r21, 0xF4	; 244
     29e:	4d 49       	sbci	r20, 0x9D	; 157
     2a0:	4e 5f       	subi	r20, 0xFE	; 254
     2a2:	45 58       	subi	r20, 0x85	; 133
     2a4:	50 5f       	subi	r21, 0xF0	; 240
     2a6:	5f 20       	and	r5, r15
     2a8:	28 2d       	mov	r18, r8
     2aa:	31 32       	cpi	r19, 0x21	; 33
     2ac:	35 29       	or	r19, r5
     2ae:	00 01       	movw	r0, r0
     2b0:	00 5f       	subi	r16, 0xF0	; 240
     2b2:	5f 46       	sbci	r21, 0x6F	; 111
     2b4:	4c 54       	subi	r20, 0x4C	; 76
     2b6:	5f 4d       	sbci	r21, 0xDF	; 223
     2b8:	49 4e       	sbci	r20, 0xE9	; 233
     2ba:	5f 31       	cpi	r21, 0x1F	; 31
     2bc:	30 5f       	subi	r19, 0xF0	; 240
     2be:	45 58       	subi	r20, 0x85	; 133
     2c0:	50 5f       	subi	r21, 0xF0	; 240
     2c2:	5f 20       	and	r5, r15
     2c4:	28 2d       	mov	r18, r8
     2c6:	33 37       	cpi	r19, 0x73	; 115
     2c8:	29 00       	.word	0x0029	; ????
     2ca:	01 00       	.word	0x0001	; ????
     2cc:	5f 5f       	subi	r21, 0xFF	; 255
     2ce:	46 4c       	sbci	r20, 0xC6	; 198
     2d0:	54 5f       	subi	r21, 0xF4	; 244
     2d2:	4d 41       	sbci	r20, 0x1D	; 29
     2d4:	58 5f       	subi	r21, 0xF8	; 248
     2d6:	45 58       	subi	r20, 0x85	; 133
     2d8:	50 5f       	subi	r21, 0xF0	; 240
     2da:	5f 20       	and	r5, r15
     2dc:	31 32       	cpi	r19, 0x21	; 33
     2de:	38 00       	.word	0x0038	; ????
     2e0:	01 00       	.word	0x0001	; ????
     2e2:	5f 5f       	subi	r21, 0xFF	; 255
     2e4:	46 4c       	sbci	r20, 0xC6	; 198
     2e6:	54 5f       	subi	r21, 0xF4	; 244
     2e8:	4d 41       	sbci	r20, 0x1D	; 29
     2ea:	58 5f       	subi	r21, 0xF8	; 248
     2ec:	31 30       	cpi	r19, 0x01	; 1
     2ee:	5f 45       	sbci	r21, 0x5F	; 95
     2f0:	58 50       	subi	r21, 0x08	; 8
     2f2:	5f 5f       	subi	r21, 0xFF	; 255
     2f4:	20 33       	cpi	r18, 0x30	; 48
     2f6:	38 00       	.word	0x0038	; ????
     2f8:	01 00       	.word	0x0001	; ????
     2fa:	5f 5f       	subi	r21, 0xFF	; 255
     2fc:	46 4c       	sbci	r20, 0xC6	; 198
     2fe:	54 5f       	subi	r21, 0xF4	; 244
     300:	4d 41       	sbci	r20, 0x1D	; 29
     302:	58 5f       	subi	r21, 0xF8	; 248
     304:	5f 20       	and	r5, r15
     306:	33 2e       	mov	r3, r19
     308:	34 30       	cpi	r19, 0x04	; 4
     30a:	32 38       	cpi	r19, 0x82	; 130
     30c:	32 33       	cpi	r19, 0x32	; 50
     30e:	34 37       	cpi	r19, 0x74	; 116
     310:	65 2b       	or	r22, r21
     312:	33 38       	cpi	r19, 0x83	; 131
     314:	46 00       	.word	0x0046	; ????
     316:	01 00       	.word	0x0001	; ????
     318:	5f 5f       	subi	r21, 0xFF	; 255
     31a:	46 4c       	sbci	r20, 0xC6	; 198
     31c:	54 5f       	subi	r21, 0xF4	; 244
     31e:	4d 49       	sbci	r20, 0x9D	; 157
     320:	4e 5f       	subi	r20, 0xFE	; 254
     322:	5f 20       	and	r5, r15
     324:	31 2e       	mov	r3, r17
     326:	31 37       	cpi	r19, 0x71	; 113
     328:	35 34       	cpi	r19, 0x45	; 69
     32a:	39 34       	cpi	r19, 0x49	; 73
     32c:	33 35       	cpi	r19, 0x53	; 83
     32e:	65 2d       	mov	r22, r5
     330:	33 38       	cpi	r19, 0x83	; 131
     332:	46 00       	.word	0x0046	; ????
     334:	01 00       	.word	0x0001	; ????
     336:	5f 5f       	subi	r21, 0xFF	; 255
     338:	46 4c       	sbci	r20, 0xC6	; 198
     33a:	54 5f       	subi	r21, 0xF4	; 244
     33c:	45 50       	subi	r20, 0x05	; 5
     33e:	53 49       	sbci	r21, 0x93	; 147
     340:	4c 4f       	sbci	r20, 0xFC	; 252
     342:	4e 5f       	subi	r20, 0xFE	; 254
     344:	5f 20       	and	r5, r15
     346:	31 2e       	mov	r3, r17
     348:	31 39       	cpi	r19, 0x91	; 145
     34a:	32 30       	cpi	r19, 0x02	; 2
     34c:	39 32       	cpi	r19, 0x29	; 41
     34e:	39 30       	cpi	r19, 0x09	; 9
     350:	65 2d       	mov	r22, r5
     352:	37 46       	sbci	r19, 0x67	; 103
     354:	00 01       	movw	r0, r0
     356:	00 5f       	subi	r16, 0xF0	; 240
     358:	5f 46       	sbci	r21, 0x6F	; 111
     35a:	4c 54       	subi	r20, 0x4C	; 76
     35c:	5f 44       	sbci	r21, 0x4F	; 79
     35e:	45 4e       	sbci	r20, 0xE5	; 229
     360:	4f 52       	subi	r20, 0x2F	; 47
     362:	4d 5f       	subi	r20, 0xFD	; 253
     364:	4d 49       	sbci	r20, 0x9D	; 157
     366:	4e 5f       	subi	r20, 0xFE	; 254
     368:	5f 20       	and	r5, r15
     36a:	31 2e       	mov	r3, r17
     36c:	34 30       	cpi	r19, 0x04	; 4
     36e:	31 32       	cpi	r19, 0x21	; 33
     370:	39 38       	cpi	r19, 0x89	; 137
     372:	34 36       	cpi	r19, 0x64	; 100
     374:	65 2d       	mov	r22, r5
     376:	34 35       	cpi	r19, 0x54	; 84
     378:	46 00       	.word	0x0046	; ????
     37a:	01 00       	.word	0x0001	; ????
     37c:	5f 5f       	subi	r21, 0xFF	; 255
     37e:	46 4c       	sbci	r20, 0xC6	; 198
     380:	54 5f       	subi	r21, 0xF4	; 244
     382:	48 41       	sbci	r20, 0x18	; 24
     384:	53 5f       	subi	r21, 0xF3	; 243
     386:	44 45       	sbci	r20, 0x54	; 84
     388:	4e 4f       	sbci	r20, 0xFE	; 254
     38a:	52 4d       	sbci	r21, 0xD2	; 210
     38c:	5f 5f       	subi	r21, 0xFF	; 255
     38e:	20 31       	cpi	r18, 0x10	; 16
     390:	00 01       	movw	r0, r0
     392:	00 5f       	subi	r16, 0xF0	; 240
     394:	5f 46       	sbci	r21, 0x6F	; 111
     396:	4c 54       	subi	r20, 0x4C	; 76
     398:	5f 48       	sbci	r21, 0x8F	; 143
     39a:	41 53       	subi	r20, 0x31	; 49
     39c:	5f 49       	sbci	r21, 0x9F	; 159
     39e:	4e 46       	sbci	r20, 0x6E	; 110
     3a0:	49 4e       	sbci	r20, 0xE9	; 233
     3a2:	49 54       	subi	r20, 0x49	; 73
     3a4:	59 5f       	subi	r21, 0xF9	; 249
     3a6:	5f 20       	and	r5, r15
     3a8:	31 00       	.word	0x0031	; ????
     3aa:	01 00       	.word	0x0001	; ????
     3ac:	5f 5f       	subi	r21, 0xFF	; 255
     3ae:	46 4c       	sbci	r20, 0xC6	; 198
     3b0:	54 5f       	subi	r21, 0xF4	; 244
     3b2:	48 41       	sbci	r20, 0x18	; 24
     3b4:	53 5f       	subi	r21, 0xF3	; 243
     3b6:	51 55       	subi	r21, 0x51	; 81
     3b8:	49 45       	sbci	r20, 0x59	; 89
     3ba:	54 5f       	subi	r21, 0xF4	; 244
     3bc:	4e 41       	sbci	r20, 0x1E	; 30
     3be:	4e 5f       	subi	r20, 0xFE	; 254
     3c0:	5f 20       	and	r5, r15
     3c2:	31 00       	.word	0x0031	; ????
     3c4:	01 00       	.word	0x0001	; ????
     3c6:	5f 5f       	subi	r21, 0xFF	; 255
     3c8:	44 42       	sbci	r20, 0x24	; 36
     3ca:	4c 5f       	subi	r20, 0xFC	; 252
     3cc:	4d 41       	sbci	r20, 0x1D	; 29
     3ce:	4e 54       	subi	r20, 0x4E	; 78
     3d0:	5f 44       	sbci	r21, 0x4F	; 79
     3d2:	49 47       	sbci	r20, 0x79	; 121
     3d4:	5f 5f       	subi	r21, 0xFF	; 255
     3d6:	20 32       	cpi	r18, 0x20	; 32
     3d8:	34 00       	.word	0x0034	; ????
     3da:	01 00       	.word	0x0001	; ????
     3dc:	5f 5f       	subi	r21, 0xFF	; 255
     3de:	44 42       	sbci	r20, 0x24	; 36
     3e0:	4c 5f       	subi	r20, 0xFC	; 252
     3e2:	44 49       	sbci	r20, 0x94	; 148
     3e4:	47 5f       	subi	r20, 0xF7	; 247
     3e6:	5f 20       	and	r5, r15
     3e8:	36 00       	.word	0x0036	; ????
     3ea:	01 00       	.word	0x0001	; ????
     3ec:	5f 5f       	subi	r21, 0xFF	; 255
     3ee:	44 42       	sbci	r20, 0x24	; 36
     3f0:	4c 5f       	subi	r20, 0xFC	; 252
     3f2:	4d 49       	sbci	r20, 0x9D	; 157
     3f4:	4e 5f       	subi	r20, 0xFE	; 254
     3f6:	45 58       	subi	r20, 0x85	; 133
     3f8:	50 5f       	subi	r21, 0xF0	; 240
     3fa:	5f 20       	and	r5, r15
     3fc:	28 2d       	mov	r18, r8
     3fe:	31 32       	cpi	r19, 0x21	; 33
     400:	35 29       	or	r19, r5
     402:	00 01       	movw	r0, r0
     404:	00 5f       	subi	r16, 0xF0	; 240
     406:	5f 44       	sbci	r21, 0x4F	; 79
     408:	42 4c       	sbci	r20, 0xC2	; 194
     40a:	5f 4d       	sbci	r21, 0xDF	; 223
     40c:	49 4e       	sbci	r20, 0xE9	; 233
     40e:	5f 31       	cpi	r21, 0x1F	; 31
     410:	30 5f       	subi	r19, 0xF0	; 240
     412:	45 58       	subi	r20, 0x85	; 133
     414:	50 5f       	subi	r21, 0xF0	; 240
     416:	5f 20       	and	r5, r15
     418:	28 2d       	mov	r18, r8
     41a:	33 37       	cpi	r19, 0x73	; 115
     41c:	29 00       	.word	0x0029	; ????
     41e:	01 00       	.word	0x0001	; ????
     420:	5f 5f       	subi	r21, 0xFF	; 255
     422:	44 42       	sbci	r20, 0x24	; 36
     424:	4c 5f       	subi	r20, 0xFC	; 252
     426:	4d 41       	sbci	r20, 0x1D	; 29
     428:	58 5f       	subi	r21, 0xF8	; 248
     42a:	45 58       	subi	r20, 0x85	; 133
     42c:	50 5f       	subi	r21, 0xF0	; 240
     42e:	5f 20       	and	r5, r15
     430:	31 32       	cpi	r19, 0x21	; 33
     432:	38 00       	.word	0x0038	; ????
     434:	01 00       	.word	0x0001	; ????
     436:	5f 5f       	subi	r21, 0xFF	; 255
     438:	44 42       	sbci	r20, 0x24	; 36
     43a:	4c 5f       	subi	r20, 0xFC	; 252
     43c:	4d 41       	sbci	r20, 0x1D	; 29
     43e:	58 5f       	subi	r21, 0xF8	; 248
     440:	31 30       	cpi	r19, 0x01	; 1
     442:	5f 45       	sbci	r21, 0x5F	; 95
     444:	58 50       	subi	r21, 0x08	; 8
     446:	5f 5f       	subi	r21, 0xFF	; 255
     448:	20 33       	cpi	r18, 0x30	; 48
     44a:	38 00       	.word	0x0038	; ????
     44c:	01 00       	.word	0x0001	; ????
     44e:	5f 5f       	subi	r21, 0xFF	; 255
     450:	44 42       	sbci	r20, 0x24	; 36
     452:	4c 5f       	subi	r20, 0xFC	; 252
     454:	4d 41       	sbci	r20, 0x1D	; 29
     456:	58 5f       	subi	r21, 0xF8	; 248
     458:	5f 20       	and	r5, r15
     45a:	33 2e       	mov	r3, r19
     45c:	34 30       	cpi	r19, 0x04	; 4
     45e:	32 38       	cpi	r19, 0x82	; 130
     460:	32 33       	cpi	r19, 0x32	; 50
     462:	34 37       	cpi	r19, 0x74	; 116
     464:	65 2b       	or	r22, r21
     466:	33 38       	cpi	r19, 0x83	; 131
     468:	00 01       	movw	r0, r0
     46a:	00 5f       	subi	r16, 0xF0	; 240
     46c:	5f 44       	sbci	r21, 0x4F	; 79
     46e:	42 4c       	sbci	r20, 0xC2	; 194
     470:	5f 4d       	sbci	r21, 0xDF	; 223
     472:	49 4e       	sbci	r20, 0xE9	; 233
     474:	5f 5f       	subi	r21, 0xFF	; 255
     476:	20 31       	cpi	r18, 0x10	; 16
     478:	2e 31       	cpi	r18, 0x1E	; 30
     47a:	37 35       	cpi	r19, 0x57	; 87
     47c:	34 39       	cpi	r19, 0x94	; 148
     47e:	34 33       	cpi	r19, 0x34	; 52
     480:	35 65       	ori	r19, 0x55	; 85
     482:	2d 33       	cpi	r18, 0x3D	; 61
     484:	38 00       	.word	0x0038	; ????
     486:	01 00       	.word	0x0001	; ????
     488:	5f 5f       	subi	r21, 0xFF	; 255
     48a:	44 42       	sbci	r20, 0x24	; 36
     48c:	4c 5f       	subi	r20, 0xFC	; 252
     48e:	45 50       	subi	r20, 0x05	; 5
     490:	53 49       	sbci	r21, 0x93	; 147
     492:	4c 4f       	sbci	r20, 0xFC	; 252
     494:	4e 5f       	subi	r20, 0xFE	; 254
     496:	5f 20       	and	r5, r15
     498:	31 2e       	mov	r3, r17
     49a:	31 39       	cpi	r19, 0x91	; 145
     49c:	32 30       	cpi	r19, 0x02	; 2
     49e:	39 32       	cpi	r19, 0x29	; 41
     4a0:	39 30       	cpi	r19, 0x09	; 9
     4a2:	65 2d       	mov	r22, r5
     4a4:	37 00       	.word	0x0037	; ????
     4a6:	01 00       	.word	0x0001	; ????
     4a8:	5f 5f       	subi	r21, 0xFF	; 255
     4aa:	44 42       	sbci	r20, 0x24	; 36
     4ac:	4c 5f       	subi	r20, 0xFC	; 252
     4ae:	44 45       	sbci	r20, 0x54	; 84
     4b0:	4e 4f       	sbci	r20, 0xFE	; 254
     4b2:	52 4d       	sbci	r21, 0xD2	; 210
     4b4:	5f 4d       	sbci	r21, 0xDF	; 223
     4b6:	49 4e       	sbci	r20, 0xE9	; 233
     4b8:	5f 5f       	subi	r21, 0xFF	; 255
     4ba:	20 31       	cpi	r18, 0x10	; 16
     4bc:	2e 34       	cpi	r18, 0x4E	; 78
     4be:	30 31       	cpi	r19, 0x10	; 16
     4c0:	32 39       	cpi	r19, 0x92	; 146
     4c2:	38 34       	cpi	r19, 0x48	; 72
     4c4:	36 65       	ori	r19, 0x56	; 86
     4c6:	2d 34       	cpi	r18, 0x4D	; 77
     4c8:	35 00       	.word	0x0035	; ????
     4ca:	01 00       	.word	0x0001	; ????
     4cc:	5f 5f       	subi	r21, 0xFF	; 255
     4ce:	44 42       	sbci	r20, 0x24	; 36
     4d0:	4c 5f       	subi	r20, 0xFC	; 252
     4d2:	48 41       	sbci	r20, 0x18	; 24
     4d4:	53 5f       	subi	r21, 0xF3	; 243
     4d6:	44 45       	sbci	r20, 0x54	; 84
     4d8:	4e 4f       	sbci	r20, 0xFE	; 254
     4da:	52 4d       	sbci	r21, 0xD2	; 210
     4dc:	5f 5f       	subi	r21, 0xFF	; 255
     4de:	20 31       	cpi	r18, 0x10	; 16
     4e0:	00 01       	movw	r0, r0
     4e2:	00 5f       	subi	r16, 0xF0	; 240
     4e4:	5f 44       	sbci	r21, 0x4F	; 79
     4e6:	42 4c       	sbci	r20, 0xC2	; 194
     4e8:	5f 48       	sbci	r21, 0x8F	; 143
     4ea:	41 53       	subi	r20, 0x31	; 49
     4ec:	5f 49       	sbci	r21, 0x9F	; 159
     4ee:	4e 46       	sbci	r20, 0x6E	; 110
     4f0:	49 4e       	sbci	r20, 0xE9	; 233
     4f2:	49 54       	subi	r20, 0x49	; 73
     4f4:	59 5f       	subi	r21, 0xF9	; 249
     4f6:	5f 20       	and	r5, r15
     4f8:	31 00       	.word	0x0031	; ????
     4fa:	01 00       	.word	0x0001	; ????
     4fc:	5f 5f       	subi	r21, 0xFF	; 255
     4fe:	44 42       	sbci	r20, 0x24	; 36
     500:	4c 5f       	subi	r20, 0xFC	; 252
     502:	48 41       	sbci	r20, 0x18	; 24
     504:	53 5f       	subi	r21, 0xF3	; 243
     506:	51 55       	subi	r21, 0x51	; 81
     508:	49 45       	sbci	r20, 0x59	; 89
     50a:	54 5f       	subi	r21, 0xF4	; 244
     50c:	4e 41       	sbci	r20, 0x1E	; 30
     50e:	4e 5f       	subi	r20, 0xFE	; 254
     510:	5f 20       	and	r5, r15
     512:	31 00       	.word	0x0031	; ????
     514:	01 00       	.word	0x0001	; ????
     516:	5f 5f       	subi	r21, 0xFF	; 255
     518:	4c 44       	sbci	r20, 0x4C	; 76
     51a:	42 4c       	sbci	r20, 0xC2	; 194
     51c:	5f 4d       	sbci	r21, 0xDF	; 223
     51e:	41 4e       	sbci	r20, 0xE1	; 225
     520:	54 5f       	subi	r21, 0xF4	; 244
     522:	44 49       	sbci	r20, 0x94	; 148
     524:	47 5f       	subi	r20, 0xF7	; 247
     526:	5f 20       	and	r5, r15
     528:	32 34       	cpi	r19, 0x42	; 66
     52a:	00 01       	movw	r0, r0
     52c:	00 5f       	subi	r16, 0xF0	; 240
     52e:	5f 4c       	sbci	r21, 0xCF	; 207
     530:	44 42       	sbci	r20, 0x24	; 36
     532:	4c 5f       	subi	r20, 0xFC	; 252
     534:	44 49       	sbci	r20, 0x94	; 148
     536:	47 5f       	subi	r20, 0xF7	; 247
     538:	5f 20       	and	r5, r15
     53a:	36 00       	.word	0x0036	; ????
     53c:	01 00       	.word	0x0001	; ????
     53e:	5f 5f       	subi	r21, 0xFF	; 255
     540:	4c 44       	sbci	r20, 0x4C	; 76
     542:	42 4c       	sbci	r20, 0xC2	; 194
     544:	5f 4d       	sbci	r21, 0xDF	; 223
     546:	49 4e       	sbci	r20, 0xE9	; 233
     548:	5f 45       	sbci	r21, 0x5F	; 95
     54a:	58 50       	subi	r21, 0x08	; 8
     54c:	5f 5f       	subi	r21, 0xFF	; 255
     54e:	20 28       	or	r2, r0
     550:	2d 31       	cpi	r18, 0x1D	; 29
     552:	32 35       	cpi	r19, 0x52	; 82
     554:	29 00       	.word	0x0029	; ????
     556:	01 00       	.word	0x0001	; ????
     558:	5f 5f       	subi	r21, 0xFF	; 255
     55a:	4c 44       	sbci	r20, 0x4C	; 76
     55c:	42 4c       	sbci	r20, 0xC2	; 194
     55e:	5f 4d       	sbci	r21, 0xDF	; 223
     560:	49 4e       	sbci	r20, 0xE9	; 233
     562:	5f 31       	cpi	r21, 0x1F	; 31
     564:	30 5f       	subi	r19, 0xF0	; 240
     566:	45 58       	subi	r20, 0x85	; 133
     568:	50 5f       	subi	r21, 0xF0	; 240
     56a:	5f 20       	and	r5, r15
     56c:	28 2d       	mov	r18, r8
     56e:	33 37       	cpi	r19, 0x73	; 115
     570:	29 00       	.word	0x0029	; ????
     572:	01 00       	.word	0x0001	; ????
     574:	5f 5f       	subi	r21, 0xFF	; 255
     576:	4c 44       	sbci	r20, 0x4C	; 76
     578:	42 4c       	sbci	r20, 0xC2	; 194
     57a:	5f 4d       	sbci	r21, 0xDF	; 223
     57c:	41 58       	subi	r20, 0x81	; 129
     57e:	5f 45       	sbci	r21, 0x5F	; 95
     580:	58 50       	subi	r21, 0x08	; 8
     582:	5f 5f       	subi	r21, 0xFF	; 255
     584:	20 31       	cpi	r18, 0x10	; 16
     586:	32 38       	cpi	r19, 0x82	; 130
     588:	00 01       	movw	r0, r0
     58a:	00 5f       	subi	r16, 0xF0	; 240
     58c:	5f 4c       	sbci	r21, 0xCF	; 207
     58e:	44 42       	sbci	r20, 0x24	; 36
     590:	4c 5f       	subi	r20, 0xFC	; 252
     592:	4d 41       	sbci	r20, 0x1D	; 29
     594:	58 5f       	subi	r21, 0xF8	; 248
     596:	31 30       	cpi	r19, 0x01	; 1
     598:	5f 45       	sbci	r21, 0x5F	; 95
     59a:	58 50       	subi	r21, 0x08	; 8
     59c:	5f 5f       	subi	r21, 0xFF	; 255
     59e:	20 33       	cpi	r18, 0x30	; 48
     5a0:	38 00       	.word	0x0038	; ????
     5a2:	01 00       	.word	0x0001	; ????
     5a4:	5f 5f       	subi	r21, 0xFF	; 255
     5a6:	44 45       	sbci	r20, 0x54	; 84
     5a8:	43 49       	sbci	r20, 0x93	; 147
     5aa:	4d 41       	sbci	r20, 0x1D	; 29
     5ac:	4c 5f       	subi	r20, 0xFC	; 252
     5ae:	44 49       	sbci	r20, 0x94	; 148
     5b0:	47 5f       	subi	r20, 0xF7	; 247
     5b2:	5f 20       	and	r5, r15
     5b4:	39 00       	.word	0x0039	; ????
     5b6:	01 00       	.word	0x0001	; ????
     5b8:	5f 5f       	subi	r21, 0xFF	; 255
     5ba:	4c 44       	sbci	r20, 0x4C	; 76
     5bc:	42 4c       	sbci	r20, 0xC2	; 194
     5be:	5f 4d       	sbci	r21, 0xDF	; 223
     5c0:	41 58       	subi	r20, 0x81	; 129
     5c2:	5f 5f       	subi	r21, 0xFF	; 255
     5c4:	20 33       	cpi	r18, 0x30	; 48
     5c6:	2e 34       	cpi	r18, 0x4E	; 78
     5c8:	30 32       	cpi	r19, 0x20	; 32
     5ca:	38 32       	cpi	r19, 0x28	; 40
     5cc:	33 34       	cpi	r19, 0x43	; 67
     5ce:	37 65       	ori	r19, 0x57	; 87
     5d0:	2b 33       	cpi	r18, 0x3B	; 59
     5d2:	38 4c       	sbci	r19, 0xC8	; 200
     5d4:	00 01       	movw	r0, r0
     5d6:	00 5f       	subi	r16, 0xF0	; 240
     5d8:	5f 4c       	sbci	r21, 0xCF	; 207
     5da:	44 42       	sbci	r20, 0x24	; 36
     5dc:	4c 5f       	subi	r20, 0xFC	; 252
     5de:	4d 49       	sbci	r20, 0x9D	; 157
     5e0:	4e 5f       	subi	r20, 0xFE	; 254
     5e2:	5f 20       	and	r5, r15
     5e4:	31 2e       	mov	r3, r17
     5e6:	31 37       	cpi	r19, 0x71	; 113
     5e8:	35 34       	cpi	r19, 0x45	; 69
     5ea:	39 34       	cpi	r19, 0x49	; 73
     5ec:	33 35       	cpi	r19, 0x53	; 83
     5ee:	65 2d       	mov	r22, r5
     5f0:	33 38       	cpi	r19, 0x83	; 131
     5f2:	4c 00       	.word	0x004c	; ????
     5f4:	01 00       	.word	0x0001	; ????
     5f6:	5f 5f       	subi	r21, 0xFF	; 255
     5f8:	4c 44       	sbci	r20, 0x4C	; 76
     5fa:	42 4c       	sbci	r20, 0xC2	; 194
     5fc:	5f 45       	sbci	r21, 0x5F	; 95
     5fe:	50 53       	subi	r21, 0x30	; 48
     600:	49 4c       	sbci	r20, 0xC9	; 201
     602:	4f 4e       	sbci	r20, 0xEF	; 239
     604:	5f 5f       	subi	r21, 0xFF	; 255
     606:	20 31       	cpi	r18, 0x10	; 16
     608:	2e 31       	cpi	r18, 0x1E	; 30
     60a:	39 32       	cpi	r19, 0x29	; 41
     60c:	30 39       	cpi	r19, 0x90	; 144
     60e:	32 39       	cpi	r19, 0x92	; 146
     610:	30 65       	ori	r19, 0x50	; 80
     612:	2d 37       	cpi	r18, 0x7D	; 125
     614:	4c 00       	.word	0x004c	; ????
     616:	01 00       	.word	0x0001	; ????
     618:	5f 5f       	subi	r21, 0xFF	; 255
     61a:	4c 44       	sbci	r20, 0x4C	; 76
     61c:	42 4c       	sbci	r20, 0xC2	; 194
     61e:	5f 44       	sbci	r21, 0x4F	; 79
     620:	45 4e       	sbci	r20, 0xE5	; 229
     622:	4f 52       	subi	r20, 0x2F	; 47
     624:	4d 5f       	subi	r20, 0xFD	; 253
     626:	4d 49       	sbci	r20, 0x9D	; 157
     628:	4e 5f       	subi	r20, 0xFE	; 254
     62a:	5f 20       	and	r5, r15
     62c:	31 2e       	mov	r3, r17
     62e:	34 30       	cpi	r19, 0x04	; 4
     630:	31 32       	cpi	r19, 0x21	; 33
     632:	39 38       	cpi	r19, 0x89	; 137
     634:	34 36       	cpi	r19, 0x64	; 100
     636:	65 2d       	mov	r22, r5
     638:	34 35       	cpi	r19, 0x54	; 84
     63a:	4c 00       	.word	0x004c	; ????
     63c:	01 00       	.word	0x0001	; ????
     63e:	5f 5f       	subi	r21, 0xFF	; 255
     640:	4c 44       	sbci	r20, 0x4C	; 76
     642:	42 4c       	sbci	r20, 0xC2	; 194
     644:	5f 48       	sbci	r21, 0x8F	; 143
     646:	41 53       	subi	r20, 0x31	; 49
     648:	5f 44       	sbci	r21, 0x4F	; 79
     64a:	45 4e       	sbci	r20, 0xE5	; 229
     64c:	4f 52       	subi	r20, 0x2F	; 47
     64e:	4d 5f       	subi	r20, 0xFD	; 253
     650:	5f 20       	and	r5, r15
     652:	31 00       	.word	0x0031	; ????
     654:	01 00       	.word	0x0001	; ????
     656:	5f 5f       	subi	r21, 0xFF	; 255
     658:	4c 44       	sbci	r20, 0x4C	; 76
     65a:	42 4c       	sbci	r20, 0xC2	; 194
     65c:	5f 48       	sbci	r21, 0x8F	; 143
     65e:	41 53       	subi	r20, 0x31	; 49
     660:	5f 49       	sbci	r21, 0x9F	; 159
     662:	4e 46       	sbci	r20, 0x6E	; 110
     664:	49 4e       	sbci	r20, 0xE9	; 233
     666:	49 54       	subi	r20, 0x49	; 73
     668:	59 5f       	subi	r21, 0xF9	; 249
     66a:	5f 20       	and	r5, r15
     66c:	31 00       	.word	0x0031	; ????
     66e:	01 00       	.word	0x0001	; ????
     670:	5f 5f       	subi	r21, 0xFF	; 255
     672:	4c 44       	sbci	r20, 0x4C	; 76
     674:	42 4c       	sbci	r20, 0xC2	; 194
     676:	5f 48       	sbci	r21, 0x8F	; 143
     678:	41 53       	subi	r20, 0x31	; 49
     67a:	5f 51       	subi	r21, 0x1F	; 31
     67c:	55 49       	sbci	r21, 0x95	; 149
     67e:	45 54       	subi	r20, 0x45	; 69
     680:	5f 4e       	sbci	r21, 0xEF	; 239
     682:	41 4e       	sbci	r20, 0xE1	; 225
     684:	5f 5f       	subi	r21, 0xFF	; 255
     686:	20 31       	cpi	r18, 0x10	; 16
     688:	00 01       	movw	r0, r0
     68a:	00 5f       	subi	r16, 0xF0	; 240
     68c:	5f 44       	sbci	r21, 0x4F	; 79
     68e:	45 43       	sbci	r20, 0x35	; 53
     690:	33 32       	cpi	r19, 0x23	; 35
     692:	5f 4d       	sbci	r21, 0xDF	; 223
     694:	41 4e       	sbci	r20, 0xE1	; 225
     696:	54 5f       	subi	r21, 0xF4	; 244
     698:	44 49       	sbci	r20, 0x94	; 148
     69a:	47 5f       	subi	r20, 0xF7	; 247
     69c:	5f 20       	and	r5, r15
     69e:	37 00       	.word	0x0037	; ????
     6a0:	01 00       	.word	0x0001	; ????
     6a2:	5f 5f       	subi	r21, 0xFF	; 255
     6a4:	44 45       	sbci	r20, 0x54	; 84
     6a6:	43 33       	cpi	r20, 0x33	; 51
     6a8:	32 5f       	subi	r19, 0xF2	; 242
     6aa:	4d 49       	sbci	r20, 0x9D	; 157
     6ac:	4e 5f       	subi	r20, 0xFE	; 254
     6ae:	45 58       	subi	r20, 0x85	; 133
     6b0:	50 5f       	subi	r21, 0xF0	; 240
     6b2:	5f 20       	and	r5, r15
     6b4:	28 2d       	mov	r18, r8
     6b6:	39 35       	cpi	r19, 0x59	; 89
     6b8:	29 00       	.word	0x0029	; ????
     6ba:	01 00       	.word	0x0001	; ????
     6bc:	5f 5f       	subi	r21, 0xFF	; 255
     6be:	44 45       	sbci	r20, 0x54	; 84
     6c0:	43 33       	cpi	r20, 0x33	; 51
     6c2:	32 5f       	subi	r19, 0xF2	; 242
     6c4:	4d 41       	sbci	r20, 0x1D	; 29
     6c6:	58 5f       	subi	r21, 0xF8	; 248
     6c8:	45 58       	subi	r20, 0x85	; 133
     6ca:	50 5f       	subi	r21, 0xF0	; 240
     6cc:	5f 20       	and	r5, r15
     6ce:	39 36       	cpi	r19, 0x69	; 105
     6d0:	00 01       	movw	r0, r0
     6d2:	00 5f       	subi	r16, 0xF0	; 240
     6d4:	5f 44       	sbci	r21, 0x4F	; 79
     6d6:	45 43       	sbci	r20, 0x35	; 53
     6d8:	33 32       	cpi	r19, 0x23	; 35
     6da:	5f 4d       	sbci	r21, 0xDF	; 223
     6dc:	49 4e       	sbci	r20, 0xE9	; 233
     6de:	5f 5f       	subi	r21, 0xFF	; 255
     6e0:	20 31       	cpi	r18, 0x10	; 16
     6e2:	45 2d       	mov	r20, r5
     6e4:	39 35       	cpi	r19, 0x59	; 89
     6e6:	44 46       	sbci	r20, 0x64	; 100
     6e8:	00 01       	movw	r0, r0
     6ea:	00 5f       	subi	r16, 0xF0	; 240
     6ec:	5f 44       	sbci	r21, 0x4F	; 79
     6ee:	45 43       	sbci	r20, 0x35	; 53
     6f0:	33 32       	cpi	r19, 0x23	; 35
     6f2:	5f 4d       	sbci	r21, 0xDF	; 223
     6f4:	41 58       	subi	r20, 0x81	; 129
     6f6:	5f 5f       	subi	r21, 0xFF	; 255
     6f8:	20 39       	cpi	r18, 0x90	; 144
     6fa:	2e 39       	cpi	r18, 0x9E	; 158
     6fc:	39 39       	cpi	r19, 0x99	; 153
     6fe:	39 39       	cpi	r19, 0x99	; 153
     700:	39 45       	sbci	r19, 0x59	; 89
     702:	39 36       	cpi	r19, 0x69	; 105
     704:	44 46       	sbci	r20, 0x64	; 100
     706:	00 01       	movw	r0, r0
     708:	00 5f       	subi	r16, 0xF0	; 240
     70a:	5f 44       	sbci	r21, 0x4F	; 79
     70c:	45 43       	sbci	r20, 0x35	; 53
     70e:	33 32       	cpi	r19, 0x23	; 35
     710:	5f 45       	sbci	r21, 0x5F	; 95
     712:	50 53       	subi	r21, 0x30	; 48
     714:	49 4c       	sbci	r20, 0xC9	; 201
     716:	4f 4e       	sbci	r20, 0xEF	; 239
     718:	5f 5f       	subi	r21, 0xFF	; 255
     71a:	20 31       	cpi	r18, 0x10	; 16
     71c:	45 2d       	mov	r20, r5
     71e:	36 44       	sbci	r19, 0x46	; 70
     720:	46 00       	.word	0x0046	; ????
     722:	01 00       	.word	0x0001	; ????
     724:	5f 5f       	subi	r21, 0xFF	; 255
     726:	44 45       	sbci	r20, 0x54	; 84
     728:	43 33       	cpi	r20, 0x33	; 51
     72a:	32 5f       	subi	r19, 0xF2	; 242
     72c:	44 45       	sbci	r20, 0x54	; 84
     72e:	4e 5f       	subi	r20, 0xFE	; 254
     730:	5f 20       	and	r5, r15
     732:	30 2e       	mov	r3, r16
     734:	30 30       	cpi	r19, 0x00	; 0
     736:	30 30       	cpi	r19, 0x00	; 0
     738:	30 31       	cpi	r19, 0x10	; 16
     73a:	45 2d       	mov	r20, r5
     73c:	39 35       	cpi	r19, 0x59	; 89
     73e:	44 46       	sbci	r20, 0x64	; 100
     740:	00 01       	movw	r0, r0
     742:	00 5f       	subi	r16, 0xF0	; 240
     744:	5f 44       	sbci	r21, 0x4F	; 79
     746:	45 43       	sbci	r20, 0x35	; 53
     748:	36 34       	cpi	r19, 0x46	; 70
     74a:	5f 4d       	sbci	r21, 0xDF	; 223
     74c:	41 4e       	sbci	r20, 0xE1	; 225
     74e:	54 5f       	subi	r21, 0xF4	; 244
     750:	44 49       	sbci	r20, 0x94	; 148
     752:	47 5f       	subi	r20, 0xF7	; 247
     754:	5f 20       	and	r5, r15
     756:	31 36       	cpi	r19, 0x61	; 97
     758:	00 01       	movw	r0, r0
     75a:	00 5f       	subi	r16, 0xF0	; 240
     75c:	5f 44       	sbci	r21, 0x4F	; 79
     75e:	45 43       	sbci	r20, 0x35	; 53
     760:	36 34       	cpi	r19, 0x46	; 70
     762:	5f 4d       	sbci	r21, 0xDF	; 223
     764:	49 4e       	sbci	r20, 0xE9	; 233
     766:	5f 45       	sbci	r21, 0x5F	; 95
     768:	58 50       	subi	r21, 0x08	; 8
     76a:	5f 5f       	subi	r21, 0xFF	; 255
     76c:	20 28       	or	r2, r0
     76e:	2d 33       	cpi	r18, 0x3D	; 61
     770:	38 33       	cpi	r19, 0x38	; 56
     772:	29 00       	.word	0x0029	; ????
     774:	01 00       	.word	0x0001	; ????
     776:	5f 5f       	subi	r21, 0xFF	; 255
     778:	44 45       	sbci	r20, 0x54	; 84
     77a:	43 36       	cpi	r20, 0x63	; 99
     77c:	34 5f       	subi	r19, 0xF4	; 244
     77e:	4d 41       	sbci	r20, 0x1D	; 29
     780:	58 5f       	subi	r21, 0xF8	; 248
     782:	45 58       	subi	r20, 0x85	; 133
     784:	50 5f       	subi	r21, 0xF0	; 240
     786:	5f 20       	and	r5, r15
     788:	33 38       	cpi	r19, 0x83	; 131
     78a:	34 00       	.word	0x0034	; ????
     78c:	01 00       	.word	0x0001	; ????
     78e:	5f 5f       	subi	r21, 0xFF	; 255
     790:	44 45       	sbci	r20, 0x54	; 84
     792:	43 36       	cpi	r20, 0x63	; 99
     794:	34 5f       	subi	r19, 0xF4	; 244
     796:	4d 49       	sbci	r20, 0x9D	; 157
     798:	4e 5f       	subi	r20, 0xFE	; 254
     79a:	5f 20       	and	r5, r15
     79c:	31 45       	sbci	r19, 0x51	; 81
     79e:	2d 33       	cpi	r18, 0x3D	; 61
     7a0:	38 33       	cpi	r19, 0x38	; 56
     7a2:	44 44       	sbci	r20, 0x44	; 68
     7a4:	00 01       	movw	r0, r0
     7a6:	00 5f       	subi	r16, 0xF0	; 240
     7a8:	5f 44       	sbci	r21, 0x4F	; 79
     7aa:	45 43       	sbci	r20, 0x35	; 53
     7ac:	36 34       	cpi	r19, 0x46	; 70
     7ae:	5f 4d       	sbci	r21, 0xDF	; 223
     7b0:	41 58       	subi	r20, 0x81	; 129
     7b2:	5f 5f       	subi	r21, 0xFF	; 255
     7b4:	20 39       	cpi	r18, 0x90	; 144
     7b6:	2e 39       	cpi	r18, 0x9E	; 158
     7b8:	39 39       	cpi	r19, 0x99	; 153
     7ba:	39 39       	cpi	r19, 0x99	; 153
     7bc:	39 39       	cpi	r19, 0x99	; 153
     7be:	39 39       	cpi	r19, 0x99	; 153
     7c0:	39 39       	cpi	r19, 0x99	; 153
     7c2:	39 39       	cpi	r19, 0x99	; 153
     7c4:	39 39       	cpi	r19, 0x99	; 153
     7c6:	45 33       	cpi	r20, 0x35	; 53
     7c8:	38 34       	cpi	r19, 0x48	; 72
     7ca:	44 44       	sbci	r20, 0x44	; 68
     7cc:	00 01       	movw	r0, r0
     7ce:	00 5f       	subi	r16, 0xF0	; 240
     7d0:	5f 44       	sbci	r21, 0x4F	; 79
     7d2:	45 43       	sbci	r20, 0x35	; 53
     7d4:	36 34       	cpi	r19, 0x46	; 70
     7d6:	5f 45       	sbci	r21, 0x5F	; 95
     7d8:	50 53       	subi	r21, 0x30	; 48
     7da:	49 4c       	sbci	r20, 0xC9	; 201
     7dc:	4f 4e       	sbci	r20, 0xEF	; 239
     7de:	5f 5f       	subi	r21, 0xFF	; 255
     7e0:	20 31       	cpi	r18, 0x10	; 16
     7e2:	45 2d       	mov	r20, r5
     7e4:	31 35       	cpi	r19, 0x51	; 81
     7e6:	44 44       	sbci	r20, 0x44	; 68
     7e8:	00 01       	movw	r0, r0
     7ea:	00 5f       	subi	r16, 0xF0	; 240
     7ec:	5f 44       	sbci	r21, 0x4F	; 79
     7ee:	45 43       	sbci	r20, 0x35	; 53
     7f0:	36 34       	cpi	r19, 0x46	; 70
     7f2:	5f 44       	sbci	r21, 0x4F	; 79
     7f4:	45 4e       	sbci	r20, 0xE5	; 229
     7f6:	5f 5f       	subi	r21, 0xFF	; 255
     7f8:	20 30       	cpi	r18, 0x00	; 0
     7fa:	2e 30       	cpi	r18, 0x0E	; 14
     7fc:	30 30       	cpi	r19, 0x00	; 0
     7fe:	30 30       	cpi	r19, 0x00	; 0
     800:	30 30       	cpi	r19, 0x00	; 0
     802:	30 30       	cpi	r19, 0x00	; 0
     804:	30 30       	cpi	r19, 0x00	; 0
     806:	30 30       	cpi	r19, 0x00	; 0
     808:	30 31       	cpi	r19, 0x10	; 16
     80a:	45 2d       	mov	r20, r5
     80c:	33 38       	cpi	r19, 0x83	; 131
     80e:	33 44       	sbci	r19, 0x43	; 67
     810:	44 00       	.word	0x0044	; ????
     812:	01 00       	.word	0x0001	; ????
     814:	5f 5f       	subi	r21, 0xFF	; 255
     816:	44 45       	sbci	r20, 0x54	; 84
     818:	43 31       	cpi	r20, 0x13	; 19
     81a:	32 38       	cpi	r19, 0x82	; 130
     81c:	5f 4d       	sbci	r21, 0xDF	; 223
     81e:	41 4e       	sbci	r20, 0xE1	; 225
     820:	54 5f       	subi	r21, 0xF4	; 244
     822:	44 49       	sbci	r20, 0x94	; 148
     824:	47 5f       	subi	r20, 0xF7	; 247
     826:	5f 20       	and	r5, r15
     828:	33 34       	cpi	r19, 0x43	; 67
     82a:	00 01       	movw	r0, r0
     82c:	00 5f       	subi	r16, 0xF0	; 240
     82e:	5f 44       	sbci	r21, 0x4F	; 79
     830:	45 43       	sbci	r20, 0x35	; 53
     832:	31 32       	cpi	r19, 0x21	; 33
     834:	38 5f       	subi	r19, 0xF8	; 248
     836:	4d 49       	sbci	r20, 0x9D	; 157
     838:	4e 5f       	subi	r20, 0xFE	; 254
     83a:	45 58       	subi	r20, 0x85	; 133
     83c:	50 5f       	subi	r21, 0xF0	; 240
     83e:	5f 20       	and	r5, r15
     840:	28 2d       	mov	r18, r8
     842:	36 31       	cpi	r19, 0x16	; 22
     844:	34 33       	cpi	r19, 0x34	; 52
     846:	29 00       	.word	0x0029	; ????
     848:	01 00       	.word	0x0001	; ????
     84a:	5f 5f       	subi	r21, 0xFF	; 255
     84c:	44 45       	sbci	r20, 0x54	; 84
     84e:	43 31       	cpi	r20, 0x13	; 19
     850:	32 38       	cpi	r19, 0x82	; 130
     852:	5f 4d       	sbci	r21, 0xDF	; 223
     854:	41 58       	subi	r20, 0x81	; 129
     856:	5f 45       	sbci	r21, 0x5F	; 95
     858:	58 50       	subi	r21, 0x08	; 8
     85a:	5f 5f       	subi	r21, 0xFF	; 255
     85c:	20 36       	cpi	r18, 0x60	; 96
     85e:	31 34       	cpi	r19, 0x41	; 65
     860:	34 00       	.word	0x0034	; ????
     862:	01 00       	.word	0x0001	; ????
     864:	5f 5f       	subi	r21, 0xFF	; 255
     866:	44 45       	sbci	r20, 0x54	; 84
     868:	43 31       	cpi	r20, 0x13	; 19
     86a:	32 38       	cpi	r19, 0x82	; 130
     86c:	5f 4d       	sbci	r21, 0xDF	; 223
     86e:	49 4e       	sbci	r20, 0xE9	; 233
     870:	5f 5f       	subi	r21, 0xFF	; 255
     872:	20 31       	cpi	r18, 0x10	; 16
     874:	45 2d       	mov	r20, r5
     876:	36 31       	cpi	r19, 0x16	; 22
     878:	34 33       	cpi	r19, 0x34	; 52
     87a:	44 4c       	sbci	r20, 0xC4	; 196
     87c:	00 01       	movw	r0, r0
     87e:	00 5f       	subi	r16, 0xF0	; 240
     880:	5f 44       	sbci	r21, 0x4F	; 79
     882:	45 43       	sbci	r20, 0x35	; 53
     884:	31 32       	cpi	r19, 0x21	; 33
     886:	38 5f       	subi	r19, 0xF8	; 248
     888:	4d 41       	sbci	r20, 0x1D	; 29
     88a:	58 5f       	subi	r21, 0xF8	; 248
     88c:	5f 20       	and	r5, r15
     88e:	39 2e       	mov	r3, r25
     890:	39 39       	cpi	r19, 0x99	; 153
     892:	39 39       	cpi	r19, 0x99	; 153
     894:	39 39       	cpi	r19, 0x99	; 153
     896:	39 39       	cpi	r19, 0x99	; 153
     898:	39 39       	cpi	r19, 0x99	; 153
     89a:	39 39       	cpi	r19, 0x99	; 153
     89c:	39 39       	cpi	r19, 0x99	; 153
     89e:	39 39       	cpi	r19, 0x99	; 153
     8a0:	39 39       	cpi	r19, 0x99	; 153
     8a2:	39 39       	cpi	r19, 0x99	; 153
     8a4:	39 39       	cpi	r19, 0x99	; 153
     8a6:	39 39       	cpi	r19, 0x99	; 153
     8a8:	39 39       	cpi	r19, 0x99	; 153
     8aa:	39 39       	cpi	r19, 0x99	; 153
     8ac:	39 39       	cpi	r19, 0x99	; 153
     8ae:	39 39       	cpi	r19, 0x99	; 153
     8b0:	39 45       	sbci	r19, 0x59	; 89
     8b2:	36 31       	cpi	r19, 0x16	; 22
     8b4:	34 34       	cpi	r19, 0x44	; 68
     8b6:	44 4c       	sbci	r20, 0xC4	; 196
     8b8:	00 01       	movw	r0, r0
     8ba:	00 5f       	subi	r16, 0xF0	; 240
     8bc:	5f 44       	sbci	r21, 0x4F	; 79
     8be:	45 43       	sbci	r20, 0x35	; 53
     8c0:	31 32       	cpi	r19, 0x21	; 33
     8c2:	38 5f       	subi	r19, 0xF8	; 248
     8c4:	45 50       	subi	r20, 0x05	; 5
     8c6:	53 49       	sbci	r21, 0x93	; 147
     8c8:	4c 4f       	sbci	r20, 0xFC	; 252
     8ca:	4e 5f       	subi	r20, 0xFE	; 254
     8cc:	5f 20       	and	r5, r15
     8ce:	31 45       	sbci	r19, 0x51	; 81
     8d0:	2d 33       	cpi	r18, 0x3D	; 61
     8d2:	33 44       	sbci	r19, 0x43	; 67
     8d4:	4c 00       	.word	0x004c	; ????
     8d6:	01 00       	.word	0x0001	; ????
     8d8:	5f 5f       	subi	r21, 0xFF	; 255
     8da:	44 45       	sbci	r20, 0x54	; 84
     8dc:	43 31       	cpi	r20, 0x13	; 19
     8de:	32 38       	cpi	r19, 0x82	; 130
     8e0:	5f 44       	sbci	r21, 0x4F	; 79
     8e2:	45 4e       	sbci	r20, 0xE5	; 229
     8e4:	5f 5f       	subi	r21, 0xFF	; 255
     8e6:	20 30       	cpi	r18, 0x00	; 0
     8e8:	2e 30       	cpi	r18, 0x0E	; 14
     8ea:	30 30       	cpi	r19, 0x00	; 0
     8ec:	30 30       	cpi	r19, 0x00	; 0
     8ee:	30 30       	cpi	r19, 0x00	; 0
     8f0:	30 30       	cpi	r19, 0x00	; 0
     8f2:	30 30       	cpi	r19, 0x00	; 0
     8f4:	30 30       	cpi	r19, 0x00	; 0
     8f6:	30 30       	cpi	r19, 0x00	; 0
     8f8:	30 30       	cpi	r19, 0x00	; 0
     8fa:	30 30       	cpi	r19, 0x00	; 0
     8fc:	30 30       	cpi	r19, 0x00	; 0
     8fe:	30 30       	cpi	r19, 0x00	; 0
     900:	30 30       	cpi	r19, 0x00	; 0
     902:	30 30       	cpi	r19, 0x00	; 0
     904:	30 30       	cpi	r19, 0x00	; 0
     906:	30 30       	cpi	r19, 0x00	; 0
     908:	30 31       	cpi	r19, 0x10	; 16
     90a:	45 2d       	mov	r20, r5
     90c:	36 31       	cpi	r19, 0x16	; 22
     90e:	34 33       	cpi	r19, 0x34	; 52
     910:	44 4c       	sbci	r20, 0xC4	; 196
     912:	00 01       	movw	r0, r0
     914:	00 5f       	subi	r16, 0xF0	; 240
     916:	5f 52       	subi	r21, 0x2F	; 47
     918:	45 47       	sbci	r20, 0x75	; 117
     91a:	49 53       	subi	r20, 0x39	; 57
     91c:	54 45       	sbci	r21, 0x54	; 84
     91e:	52 5f       	subi	r21, 0xF2	; 242
     920:	50 52       	subi	r21, 0x20	; 32
     922:	45 46       	sbci	r20, 0x65	; 101
     924:	49 58       	subi	r20, 0x89	; 137
     926:	5f 5f       	subi	r21, 0xFF	; 255
     928:	20 00       	.word	0x0020	; ????
     92a:	01 00       	.word	0x0001	; ????
     92c:	5f 5f       	subi	r21, 0xFF	; 255
     92e:	55 53       	subi	r21, 0x35	; 53
     930:	45 52       	subi	r20, 0x25	; 37
     932:	5f 4c       	sbci	r21, 0xCF	; 207
     934:	41 42       	sbci	r20, 0x21	; 33
     936:	45 4c       	sbci	r20, 0xC5	; 197
     938:	5f 50       	subi	r21, 0x0F	; 15
     93a:	52 45       	sbci	r21, 0x52	; 82
     93c:	46 49       	sbci	r20, 0x96	; 150
     93e:	58 5f       	subi	r21, 0xF8	; 248
     940:	5f 20       	and	r5, r15
     942:	00 01       	movw	r0, r0
     944:	00 5f       	subi	r16, 0xF0	; 240
     946:	5f 56       	subi	r21, 0x6F	; 111
     948:	45 52       	subi	r20, 0x25	; 37
     94a:	53 49       	sbci	r21, 0x93	; 147
     94c:	4f 4e       	sbci	r20, 0xEF	; 239
     94e:	5f 5f       	subi	r21, 0xFF	; 255
     950:	20 22       	and	r2, r16
     952:	34 2e       	mov	r3, r20
     954:	33 2e       	mov	r3, r19
     956:	33 22       	and	r3, r19
     958:	00 01       	movw	r0, r0
     95a:	00 5f       	subi	r16, 0xF0	; 240
     95c:	5f 47       	sbci	r21, 0x7F	; 127
     95e:	4e 55       	subi	r20, 0x5E	; 94
     960:	43 5f       	subi	r20, 0xF3	; 243
     962:	53 54       	subi	r21, 0x43	; 67
     964:	44 43       	sbci	r20, 0x34	; 52
     966:	5f 49       	sbci	r21, 0x9F	; 159
     968:	4e 4c       	sbci	r20, 0xCE	; 206
     96a:	49 4e       	sbci	r20, 0xE9	; 233
     96c:	45 5f       	subi	r20, 0xF5	; 245
     96e:	5f 20       	and	r5, r15
     970:	31 00       	.word	0x0031	; ????
     972:	01 00       	.word	0x0001	; ????
     974:	5f 5f       	subi	r21, 0xFF	; 255
     976:	4e 4f       	sbci	r20, 0xFE	; 254
     978:	5f 49       	sbci	r21, 0x9F	; 159
     97a:	4e 4c       	sbci	r20, 0xCE	; 206
     97c:	49 4e       	sbci	r20, 0xE9	; 233
     97e:	45 5f       	subi	r20, 0xF5	; 245
     980:	5f 20       	and	r5, r15
     982:	31 00       	.word	0x0031	; ????
     984:	01 00       	.word	0x0001	; ????
     986:	5f 5f       	subi	r21, 0xFF	; 255
     988:	46 49       	sbci	r20, 0x96	; 150
     98a:	4e 49       	sbci	r20, 0x9E	; 158
     98c:	54 45       	sbci	r21, 0x54	; 84
     98e:	5f 4d       	sbci	r21, 0xDF	; 223
     990:	41 54       	subi	r20, 0x41	; 65
     992:	48 5f       	subi	r20, 0xF8	; 248
     994:	4f 4e       	sbci	r20, 0xEF	; 239
     996:	4c 59       	subi	r20, 0x9C	; 156
     998:	5f 5f       	subi	r21, 0xFF	; 255
     99a:	20 30       	cpi	r18, 0x00	; 0
     99c:	00 01       	movw	r0, r0
     99e:	00 5f       	subi	r16, 0xF0	; 240
     9a0:	5f 43       	sbci	r21, 0x3F	; 63
     9a2:	48 41       	sbci	r20, 0x18	; 24
     9a4:	52 5f       	subi	r21, 0xF2	; 242
     9a6:	55 4e       	sbci	r21, 0xE5	; 229
     9a8:	53 49       	sbci	r21, 0x93	; 147
     9aa:	47 4e       	sbci	r20, 0xE7	; 231
     9ac:	45 44       	sbci	r20, 0x45	; 69
     9ae:	5f 5f       	subi	r21, 0xFF	; 255
     9b0:	20 31       	cpi	r18, 0x10	; 16
     9b2:	00 01       	movw	r0, r0
     9b4:	00 5f       	subi	r16, 0xF0	; 240
     9b6:	5f 53       	subi	r21, 0x3F	; 63
     9b8:	49 5a       	subi	r20, 0xA9	; 169
     9ba:	45 4f       	sbci	r20, 0xF5	; 245
     9bc:	46 5f       	subi	r20, 0xF6	; 246
     9be:	49 4e       	sbci	r20, 0xE9	; 233
     9c0:	54 5f       	subi	r21, 0xF4	; 244
     9c2:	5f 20       	and	r5, r15
     9c4:	32 00       	.word	0x0032	; ????
     9c6:	01 00       	.word	0x0001	; ????
     9c8:	5f 5f       	subi	r21, 0xFF	; 255
     9ca:	53 49       	sbci	r21, 0x93	; 147
     9cc:	5a 45       	sbci	r21, 0x5A	; 90
     9ce:	4f 46       	sbci	r20, 0x6F	; 111
     9d0:	5f 4c       	sbci	r21, 0xCF	; 207
     9d2:	4f 4e       	sbci	r20, 0xEF	; 239
     9d4:	47 5f       	subi	r20, 0xF7	; 247
     9d6:	5f 20       	and	r5, r15
     9d8:	34 00       	.word	0x0034	; ????
     9da:	01 00       	.word	0x0001	; ????
     9dc:	5f 5f       	subi	r21, 0xFF	; 255
     9de:	53 49       	sbci	r21, 0x93	; 147
     9e0:	5a 45       	sbci	r21, 0x5A	; 90
     9e2:	4f 46       	sbci	r20, 0x6F	; 111
     9e4:	5f 4c       	sbci	r21, 0xCF	; 207
     9e6:	4f 4e       	sbci	r20, 0xEF	; 239
     9e8:	47 5f       	subi	r20, 0xF7	; 247
     9ea:	4c 4f       	sbci	r20, 0xFC	; 252
     9ec:	4e 47       	sbci	r20, 0x7E	; 126
     9ee:	5f 5f       	subi	r21, 0xFF	; 255
     9f0:	20 38       	cpi	r18, 0x80	; 128
     9f2:	00 01       	movw	r0, r0
     9f4:	00 5f       	subi	r16, 0xF0	; 240
     9f6:	5f 53       	subi	r21, 0x3F	; 63
     9f8:	49 5a       	subi	r20, 0xA9	; 169
     9fa:	45 4f       	sbci	r20, 0xF5	; 245
     9fc:	46 5f       	subi	r20, 0xF6	; 246
     9fe:	53 48       	sbci	r21, 0x83	; 131
     a00:	4f 52       	subi	r20, 0x2F	; 47
     a02:	54 5f       	subi	r21, 0xF4	; 244
     a04:	5f 20       	and	r5, r15
     a06:	32 00       	.word	0x0032	; ????
     a08:	01 00       	.word	0x0001	; ????
     a0a:	5f 5f       	subi	r21, 0xFF	; 255
     a0c:	53 49       	sbci	r21, 0x93	; 147
     a0e:	5a 45       	sbci	r21, 0x5A	; 90
     a10:	4f 46       	sbci	r20, 0x6F	; 111
     a12:	5f 46       	sbci	r21, 0x6F	; 111
     a14:	4c 4f       	sbci	r20, 0xFC	; 252
     a16:	41 54       	subi	r20, 0x41	; 65
     a18:	5f 5f       	subi	r21, 0xFF	; 255
     a1a:	20 34       	cpi	r18, 0x40	; 64
     a1c:	00 01       	movw	r0, r0
     a1e:	00 5f       	subi	r16, 0xF0	; 240
     a20:	5f 53       	subi	r21, 0x3F	; 63
     a22:	49 5a       	subi	r20, 0xA9	; 169
     a24:	45 4f       	sbci	r20, 0xF5	; 245
     a26:	46 5f       	subi	r20, 0xF6	; 246
     a28:	44 4f       	sbci	r20, 0xF4	; 244
     a2a:	55 42       	sbci	r21, 0x25	; 37
     a2c:	4c 45       	sbci	r20, 0x5C	; 92
     a2e:	5f 5f       	subi	r21, 0xFF	; 255
     a30:	20 34       	cpi	r18, 0x40	; 64
     a32:	00 01       	movw	r0, r0
     a34:	00 5f       	subi	r16, 0xF0	; 240
     a36:	5f 53       	subi	r21, 0x3F	; 63
     a38:	49 5a       	subi	r20, 0xA9	; 169
     a3a:	45 4f       	sbci	r20, 0xF5	; 245
     a3c:	46 5f       	subi	r20, 0xF6	; 246
     a3e:	4c 4f       	sbci	r20, 0xFC	; 252
     a40:	4e 47       	sbci	r20, 0x7E	; 126
     a42:	5f 44       	sbci	r21, 0x4F	; 79
     a44:	4f 55       	subi	r20, 0x5F	; 95
     a46:	42 4c       	sbci	r20, 0xC2	; 194
     a48:	45 5f       	subi	r20, 0xF5	; 245
     a4a:	5f 20       	and	r5, r15
     a4c:	34 00       	.word	0x0034	; ????
     a4e:	01 00       	.word	0x0001	; ????
     a50:	5f 5f       	subi	r21, 0xFF	; 255
     a52:	53 49       	sbci	r21, 0x93	; 147
     a54:	5a 45       	sbci	r21, 0x5A	; 90
     a56:	4f 46       	sbci	r20, 0x6F	; 111
     a58:	5f 53       	subi	r21, 0x3F	; 63
     a5a:	49 5a       	subi	r20, 0xA9	; 169
     a5c:	45 5f       	subi	r20, 0xF5	; 245
     a5e:	54 5f       	subi	r21, 0xF4	; 244
     a60:	5f 20       	and	r5, r15
     a62:	32 00       	.word	0x0032	; ????
     a64:	01 00       	.word	0x0001	; ????
     a66:	5f 5f       	subi	r21, 0xFF	; 255
     a68:	53 49       	sbci	r21, 0x93	; 147
     a6a:	5a 45       	sbci	r21, 0x5A	; 90
     a6c:	4f 46       	sbci	r20, 0x6F	; 111
     a6e:	5f 57       	subi	r21, 0x7F	; 127
     a70:	43 48       	sbci	r20, 0x83	; 131
     a72:	41 52       	subi	r20, 0x21	; 33
     a74:	5f 54       	subi	r21, 0x4F	; 79
     a76:	5f 5f       	subi	r21, 0xFF	; 255
     a78:	20 32       	cpi	r18, 0x20	; 32
     a7a:	00 01       	movw	r0, r0
     a7c:	00 5f       	subi	r16, 0xF0	; 240
     a7e:	5f 53       	subi	r21, 0x3F	; 63
     a80:	49 5a       	subi	r20, 0xA9	; 169
     a82:	45 4f       	sbci	r20, 0xF5	; 245
     a84:	46 5f       	subi	r20, 0xF6	; 246
     a86:	57 49       	sbci	r21, 0x97	; 151
     a88:	4e 54       	subi	r20, 0x4E	; 78
     a8a:	5f 54       	subi	r21, 0x4F	; 79
     a8c:	5f 5f       	subi	r21, 0xFF	; 255
     a8e:	20 32       	cpi	r18, 0x20	; 32
     a90:	00 01       	movw	r0, r0
     a92:	00 5f       	subi	r16, 0xF0	; 240
     a94:	5f 53       	subi	r21, 0x3F	; 63
     a96:	49 5a       	subi	r20, 0xA9	; 169
     a98:	45 4f       	sbci	r20, 0xF5	; 245
     a9a:	46 5f       	subi	r20, 0xF6	; 246
     a9c:	50 54       	subi	r21, 0x40	; 64
     a9e:	52 44       	sbci	r21, 0x42	; 66
     aa0:	49 46       	sbci	r20, 0x69	; 105
     aa2:	46 5f       	subi	r20, 0xF6	; 246
     aa4:	54 5f       	subi	r21, 0xF4	; 244
     aa6:	5f 20       	and	r5, r15
     aa8:	32 00       	.word	0x0032	; ????
     aaa:	01 00       	.word	0x0001	; ????
     aac:	5f 5f       	subi	r21, 0xFF	; 255
     aae:	53 49       	sbci	r21, 0x93	; 147
     ab0:	5a 45       	sbci	r21, 0x5A	; 90
     ab2:	4f 46       	sbci	r20, 0x6F	; 111
     ab4:	5f 50       	subi	r21, 0x0F	; 15
     ab6:	4f 49       	sbci	r20, 0x9F	; 159
     ab8:	4e 54       	subi	r20, 0x4E	; 78
     aba:	45 52       	subi	r20, 0x25	; 37
     abc:	5f 5f       	subi	r21, 0xFF	; 255
     abe:	20 32       	cpi	r18, 0x20	; 32
     ac0:	00 01       	movw	r0, r0
     ac2:	00 5f       	subi	r16, 0xF0	; 240
     ac4:	5f 41       	sbci	r21, 0x1F	; 31
     ac6:	56 52       	subi	r21, 0x26	; 38
     ac8:	20 31       	cpi	r18, 0x10	; 16
     aca:	00 01       	movw	r0, r0
     acc:	00 5f       	subi	r16, 0xF0	; 240
     ace:	5f 41       	sbci	r21, 0x1F	; 31
     ad0:	56 52       	subi	r21, 0x26	; 38
     ad2:	5f 5f       	subi	r21, 0xFF	; 255
     ad4:	20 31       	cpi	r18, 0x10	; 16
     ad6:	00 01       	movw	r0, r0
     ad8:	00 41       	sbci	r16, 0x10	; 16
     ada:	56 52       	subi	r21, 0x26	; 38
     adc:	20 31       	cpi	r18, 0x10	; 16
     ade:	00 01       	movw	r0, r0
     ae0:	00 5f       	subi	r16, 0xF0	; 240
     ae2:	5f 41       	sbci	r21, 0x1F	; 31
     ae4:	56 52       	subi	r21, 0x26	; 38
     ae6:	5f 41       	sbci	r21, 0x1F	; 31
     ae8:	52 43       	sbci	r21, 0x32	; 50
     aea:	48 5f       	subi	r20, 0xF8	; 248
     aec:	5f 20       	and	r5, r15
     aee:	35 00       	.word	0x0035	; ????
     af0:	01 00       	.word	0x0001	; ????
     af2:	5f 5f       	subi	r21, 0xFF	; 255
     af4:	41 56       	subi	r20, 0x61	; 97
     af6:	52 5f       	subi	r21, 0xF2	; 242
     af8:	41 54       	subi	r20, 0x41	; 65
     afa:	6d 65       	ori	r22, 0x5D	; 93
     afc:	67 61       	ori	r22, 0x17	; 23
     afe:	33 32       	cpi	r19, 0x23	; 35
     b00:	5f 5f       	subi	r21, 0xFF	; 255
     b02:	20 31       	cpi	r18, 0x10	; 16
     b04:	00 01       	movw	r0, r0
     b06:	00 5f       	subi	r16, 0xF0	; 240
     b08:	5f 41       	sbci	r21, 0x1F	; 31
     b0a:	56 52       	subi	r21, 0x26	; 38
     b0c:	5f 48       	sbci	r21, 0x8F	; 143
     b0e:	41 56       	subi	r20, 0x61	; 97
     b10:	45 5f       	subi	r20, 0xF5	; 245
     b12:	4d 4f       	sbci	r20, 0xFD	; 253
     b14:	56 57       	subi	r21, 0x76	; 118
     b16:	5f 5f       	subi	r21, 0xFF	; 255
     b18:	20 31       	cpi	r18, 0x10	; 16
     b1a:	00 01       	movw	r0, r0
     b1c:	00 5f       	subi	r16, 0xF0	; 240
     b1e:	5f 41       	sbci	r21, 0x1F	; 31
     b20:	56 52       	subi	r21, 0x26	; 38
     b22:	5f 48       	sbci	r21, 0x8F	; 143
     b24:	41 56       	subi	r20, 0x61	; 97
     b26:	45 5f       	subi	r20, 0xF5	; 245
     b28:	4c 50       	subi	r20, 0x0C	; 12
     b2a:	4d 58       	subi	r20, 0x8D	; 141
     b2c:	5f 5f       	subi	r21, 0xFF	; 255
     b2e:	20 31       	cpi	r18, 0x10	; 16
     b30:	00 01       	movw	r0, r0
     b32:	00 5f       	subi	r16, 0xF0	; 240
     b34:	5f 41       	sbci	r21, 0x1F	; 31
     b36:	56 52       	subi	r21, 0x26	; 38
     b38:	5f 45       	sbci	r21, 0x5F	; 95
     b3a:	4e 48       	sbci	r20, 0x8E	; 142
     b3c:	41 4e       	sbci	r20, 0xE1	; 225
     b3e:	43 45       	sbci	r20, 0x53	; 83
     b40:	44 5f       	subi	r20, 0xF4	; 244
     b42:	5f 20       	and	r5, r15
     b44:	31 00       	.word	0x0031	; ????
     b46:	01 00       	.word	0x0001	; ????
     b48:	5f 5f       	subi	r21, 0xFF	; 255
     b4a:	41 56       	subi	r20, 0x61	; 97
     b4c:	52 5f       	subi	r21, 0xF2	; 242
     b4e:	48 41       	sbci	r20, 0x18	; 24
     b50:	56 45       	sbci	r21, 0x56	; 86
     b52:	5f 4d       	sbci	r21, 0xDF	; 223
     b54:	55 4c       	sbci	r21, 0xC5	; 197
     b56:	5f 5f       	subi	r21, 0xFF	; 255
     b58:	20 31       	cpi	r18, 0x10	; 16
     b5a:	00 01       	movw	r0, r0
     b5c:	00 5f       	subi	r16, 0xF0	; 240
     b5e:	5f 41       	sbci	r21, 0x1F	; 31
     b60:	56 52       	subi	r21, 0x26	; 38
     b62:	5f 4d       	sbci	r21, 0xDF	; 223
     b64:	45 47       	sbci	r20, 0x75	; 117
     b66:	41 5f       	subi	r20, 0xF1	; 241
     b68:	5f 20       	and	r5, r15
     b6a:	31 00       	.word	0x0031	; ????
     b6c:	01 00       	.word	0x0001	; ????
     b6e:	5f 5f       	subi	r21, 0xFF	; 255
     b70:	41 56       	subi	r20, 0x61	; 97
     b72:	52 5f       	subi	r21, 0xF2	; 242
     b74:	48 41       	sbci	r20, 0x18	; 24
     b76:	56 45       	sbci	r21, 0x56	; 86
     b78:	5f 4a       	sbci	r21, 0xAF	; 175
     b7a:	4d 50       	subi	r20, 0x0D	; 13
     b7c:	5f 43       	sbci	r21, 0x3F	; 63
     b7e:	41 4c       	sbci	r20, 0xC1	; 193
     b80:	4c 5f       	subi	r20, 0xFC	; 252
     b82:	5f 20       	and	r5, r15
     b84:	31 00       	.word	0x0031	; ????
     b86:	01 00       	.word	0x0001	; ????
     b88:	5f 5f       	subi	r21, 0xFF	; 255
     b8a:	41 56       	subi	r20, 0x61	; 97
     b8c:	52 5f       	subi	r21, 0xF2	; 242
     b8e:	32 5f       	subi	r19, 0xF2	; 242
     b90:	42 59       	subi	r20, 0x92	; 146
     b92:	54 45       	sbci	r21, 0x54	; 84
     b94:	5f 50       	subi	r21, 0x0F	; 15
     b96:	43 5f       	subi	r20, 0xF3	; 243
     b98:	5f 20       	and	r5, r15
     b9a:	31 00       	.word	0x0031	; ????
     b9c:	01 00       	.word	0x0001	; ????
     b9e:	46 5f       	subi	r20, 0xF6	; 246
     ba0:	43 50       	subi	r20, 0x03	; 3
     ba2:	55 20       	and	r5, r5
     ba4:	31 30       	cpi	r19, 0x01	; 1
     ba6:	30 30       	cpi	r19, 0x00	; 0
     ba8:	30 30       	cpi	r19, 0x00	; 0
     baa:	30 55       	subi	r19, 0x50	; 80
     bac:	4c 00       	.word	0x004c	; ????
     bae:	02 0a       	sbc	r0, r18
     bb0:	46 5f       	subi	r20, 0xF6	; 246
     bb2:	43 50       	subi	r20, 0x03	; 3
     bb4:	55 00       	.word	0x0055	; ????
     bb6:	01 0b       	sbc	r16, r17
     bb8:	46 5f       	subi	r20, 0xF6	; 246
     bba:	43 50       	subi	r20, 0x03	; 3
     bbc:	55 20       	and	r5, r5
     bbe:	31 30       	cpi	r19, 0x01	; 1
     bc0:	30 30       	cpi	r19, 0x00	; 0
     bc2:	30 30       	cpi	r19, 0x00	; 0
     bc4:	30 75       	andi	r19, 0x50	; 80
     bc6:	6c 00       	.word	0x006c	; ????
     bc8:	03 0c       	add	r0, r3
     bca:	02 01       	movw	r0, r4
     bcc:	24 5f       	subi	r18, 0xF4	; 244
     bce:	55 54       	subi	r21, 0x45	; 69
     bd0:	49 4c       	sbci	r20, 0xC9	; 201
     bd2:	5f 44       	sbci	r21, 0x4F	; 79
     bd4:	45 4c       	sbci	r20, 0xC5	; 197
     bd6:	41 59       	subi	r20, 0x91	; 145
     bd8:	5f 48       	sbci	r21, 0x8F	; 143
     bda:	5f 20       	and	r5, r15
     bdc:	31 00       	.word	0x0031	; ????
     bde:	03 26       	eor	r0, r19
     be0:	03 01       	movw	r0, r6
     be2:	23 5f       	subi	r18, 0xF3	; 243
     be4:	5f 49       	sbci	r21, 0x9F	; 159
     be6:	4e 54       	subi	r20, 0x4E	; 78
     be8:	54 59       	subi	r21, 0x94	; 148
     bea:	50 45       	sbci	r21, 0x50	; 80
     bec:	53 5f       	subi	r21, 0xF3	; 243
     bee:	48 5f       	subi	r20, 0xF8	; 248
     bf0:	20 00       	.word	0x0020	; ????
     bf2:	03 25       	eor	r16, r3
     bf4:	04 01       	movw	r0, r8
     bf6:	28 5f       	subi	r18, 0xF8	; 248
     bf8:	5f 53       	subi	r21, 0x3F	; 63
     bfa:	54 44       	sbci	r21, 0x44	; 68
     bfc:	49 4e       	sbci	r20, 0xE9	; 233
     bfe:	54 5f       	subi	r21, 0xF4	; 244
     c00:	48 5f       	subi	r20, 0xF8	; 248
     c02:	20 00       	.word	0x0020	; ????
     c04:	01 39       	cpi	r16, 0x91	; 145
     c06:	5f 5f       	subi	r21, 0xFF	; 255
     c08:	55 53       	subi	r21, 0x35	; 53
     c0a:	49 4e       	sbci	r20, 0xE9	; 233
     c0c:	47 5f       	subi	r20, 0xF7	; 247
     c0e:	4d 49       	sbci	r20, 0x9D	; 157
     c10:	4e 54       	subi	r20, 0x4E	; 78
     c12:	38 20       	and	r3, r8
     c14:	30 00       	.word	0x0030	; ????
     c16:	01 9d       	mul	r16, r1
     c18:	02 5f       	subi	r16, 0xF2	; 242
     c1a:	5f 43       	sbci	r21, 0x3F	; 63
     c1c:	4f 4e       	sbci	r20, 0xEF	; 239
     c1e:	43 41       	sbci	r20, 0x13	; 19
     c20:	54 65       	ori	r21, 0x54	; 84
     c22:	6e 61       	ori	r22, 0x1E	; 30
     c24:	74 65       	ori	r23, 0x54	; 84
     c26:	28 6c       	ori	r18, 0xC8	; 200
     c28:	65 66       	ori	r22, 0x65	; 101
     c2a:	74 2c       	mov	r7, r4
     c2c:	72 69       	ori	r23, 0x92	; 146
     c2e:	67 68       	ori	r22, 0x87	; 135
     c30:	74 29       	or	r23, r4
     c32:	20 6c       	ori	r18, 0xC0	; 192
     c34:	65 66       	ori	r22, 0x65	; 101
     c36:	74 20       	and	r7, r4
     c38:	23 23       	and	r18, r19
     c3a:	20 72       	andi	r18, 0x20	; 32
     c3c:	69 67       	ori	r22, 0x79	; 121
     c3e:	68 74       	andi	r22, 0x48	; 72
     c40:	00 01       	movw	r0, r0
     c42:	9e 02       	muls	r25, r30
     c44:	5f 5f       	subi	r21, 0xFF	; 255
     c46:	43 4f       	sbci	r20, 0xF3	; 243
     c48:	4e 43       	sbci	r20, 0x3E	; 62
     c4a:	41 54       	subi	r20, 0x41	; 65
     c4c:	28 6c       	ori	r18, 0xC8	; 200
     c4e:	65 66       	ori	r22, 0x65	; 101
     c50:	74 2c       	mov	r7, r4
     c52:	72 69       	ori	r23, 0x92	; 146
     c54:	67 68       	ori	r22, 0x87	; 135
     c56:	74 29       	or	r23, r4
     c58:	20 5f       	subi	r18, 0xF0	; 240
     c5a:	5f 43       	sbci	r21, 0x3F	; 63
     c5c:	4f 4e       	sbci	r20, 0xEF	; 239
     c5e:	43 41       	sbci	r20, 0x13	; 19
     c60:	54 65       	ori	r21, 0x54	; 84
     c62:	6e 61       	ori	r22, 0x1E	; 30
     c64:	74 65       	ori	r23, 0x54	; 84
     c66:	28 6c       	ori	r18, 0xC8	; 200
     c68:	65 66       	ori	r22, 0x65	; 101
     c6a:	74 2c       	mov	r7, r4
     c6c:	20 72       	andi	r18, 0x20	; 32
     c6e:	69 67       	ori	r22, 0x79	; 121
     c70:	68 74       	andi	r22, 0x48	; 72
     c72:	29 00       	.word	0x0029	; ????
     c74:	01 ac       	ldd	r0, Z+57	; 0x39
     c76:	02 49       	sbci	r16, 0x92	; 146
     c78:	4e 54       	subi	r20, 0x4E	; 78
     c7a:	38 5f       	subi	r19, 0xF8	; 248
     c7c:	4d 41       	sbci	r20, 0x1D	; 29
     c7e:	58 20       	and	r5, r8
     c80:	30 78       	andi	r19, 0x80	; 128
     c82:	37 66       	ori	r19, 0x67	; 103
     c84:	00 01       	movw	r0, r0
     c86:	b1 02       	muls	r27, r17
     c88:	49 4e       	sbci	r20, 0xE9	; 233
     c8a:	54 38       	cpi	r21, 0x84	; 132
     c8c:	5f 4d       	sbci	r21, 0xDF	; 223
     c8e:	49 4e       	sbci	r20, 0xE9	; 233
     c90:	20 28       	or	r2, r0
     c92:	2d 49       	sbci	r18, 0x9D	; 157
     c94:	4e 54       	subi	r20, 0x4E	; 78
     c96:	38 5f       	subi	r19, 0xF8	; 248
     c98:	4d 41       	sbci	r20, 0x1D	; 29
     c9a:	58 20       	and	r5, r8
     c9c:	2d 20       	and	r2, r13
     c9e:	31 29       	or	r19, r1
     ca0:	00 01       	movw	r0, r0
     ca2:	b6 02       	muls	r27, r22
     ca4:	55 49       	sbci	r21, 0x95	; 149
     ca6:	4e 54       	subi	r20, 0x4E	; 78
     ca8:	38 5f       	subi	r19, 0xF8	; 248
     caa:	4d 41       	sbci	r20, 0x1D	; 29
     cac:	58 20       	and	r5, r8
     cae:	28 5f       	subi	r18, 0xF8	; 248
     cb0:	5f 43       	sbci	r21, 0x3F	; 63
     cb2:	4f 4e       	sbci	r20, 0xEF	; 239
     cb4:	43 41       	sbci	r20, 0x13	; 19
     cb6:	54 28       	or	r5, r4
     cb8:	49 4e       	sbci	r20, 0xE9	; 233
     cba:	54 38       	cpi	r21, 0x84	; 132
     cbc:	5f 4d       	sbci	r21, 0xDF	; 223
     cbe:	41 58       	subi	r20, 0x81	; 129
     cc0:	2c 20       	and	r2, r12
     cc2:	55 29       	or	r21, r5
     cc4:	20 2a       	or	r2, r16
     cc6:	20 32       	cpi	r18, 0x20	; 32
     cc8:	55 20       	and	r5, r5
     cca:	2b 20       	and	r2, r11
     ccc:	31 55       	subi	r19, 0x51	; 81
     cce:	29 00       	.word	0x0029	; ????
     cd0:	01 c7       	rjmp	.+3586   	; 0x1ad4 <__data_load_end+0xe00>
     cd2:	02 49       	sbci	r16, 0x92	; 146
     cd4:	4e 54       	subi	r20, 0x4E	; 78
     cd6:	31 36       	cpi	r19, 0x61	; 97
     cd8:	5f 4d       	sbci	r21, 0xDF	; 223
     cda:	41 58       	subi	r20, 0x81	; 129
     cdc:	20 30       	cpi	r18, 0x00	; 0
     cde:	78 37       	cpi	r23, 0x78	; 120
     ce0:	66 66       	ori	r22, 0x66	; 102
     ce2:	66 00       	.word	0x0066	; ????
     ce4:	01 cc       	rjmp	.-2046   	; 0x4e8 <__mulsf3+0xba>
     ce6:	02 49       	sbci	r16, 0x92	; 146
     ce8:	4e 54       	subi	r20, 0x4E	; 78
     cea:	31 36       	cpi	r19, 0x61	; 97
     cec:	5f 4d       	sbci	r21, 0xDF	; 223
     cee:	49 4e       	sbci	r20, 0xE9	; 233
     cf0:	20 28       	or	r2, r0
     cf2:	2d 49       	sbci	r18, 0x9D	; 157
     cf4:	4e 54       	subi	r20, 0x4E	; 78
     cf6:	31 36       	cpi	r19, 0x61	; 97
     cf8:	5f 4d       	sbci	r21, 0xDF	; 223
     cfa:	41 58       	subi	r20, 0x81	; 129
     cfc:	20 2d       	mov	r18, r0
     cfe:	20 31       	cpi	r18, 0x10	; 16
     d00:	29 00       	.word	0x0029	; ????
     d02:	01 d1       	rcall	.+514    	; 0xf06 <__data_load_end+0x232>
     d04:	02 55       	subi	r16, 0x52	; 82
     d06:	49 4e       	sbci	r20, 0xE9	; 233
     d08:	54 31       	cpi	r21, 0x14	; 20
     d0a:	36 5f       	subi	r19, 0xF6	; 246
     d0c:	4d 41       	sbci	r20, 0x1D	; 29
     d0e:	58 20       	and	r5, r8
     d10:	28 5f       	subi	r18, 0xF8	; 248
     d12:	5f 43       	sbci	r21, 0x3F	; 63
     d14:	4f 4e       	sbci	r20, 0xEF	; 239
     d16:	43 41       	sbci	r20, 0x13	; 19
     d18:	54 28       	or	r5, r4
     d1a:	49 4e       	sbci	r20, 0xE9	; 233
     d1c:	54 31       	cpi	r21, 0x14	; 20
     d1e:	36 5f       	subi	r19, 0xF6	; 246
     d20:	4d 41       	sbci	r20, 0x1D	; 29
     d22:	58 2c       	mov	r5, r8
     d24:	20 55       	subi	r18, 0x50	; 80
     d26:	29 20       	and	r2, r9
     d28:	2a 20       	and	r2, r10
     d2a:	32 55       	subi	r19, 0x52	; 82
     d2c:	20 2b       	or	r18, r16
     d2e:	20 31       	cpi	r18, 0x10	; 16
     d30:	55 29       	or	r21, r5
     d32:	00 01       	movw	r0, r0
     d34:	d6 02       	muls	r29, r22
     d36:	49 4e       	sbci	r20, 0xE9	; 233
     d38:	54 33       	cpi	r21, 0x34	; 52
     d3a:	32 5f       	subi	r19, 0xF2	; 242
     d3c:	4d 41       	sbci	r20, 0x1D	; 29
     d3e:	58 20       	and	r5, r8
     d40:	30 78       	andi	r19, 0x80	; 128
     d42:	37 66       	ori	r19, 0x67	; 103
     d44:	66 66       	ori	r22, 0x66	; 102
     d46:	66 66       	ori	r22, 0x66	; 102
     d48:	66 66       	ori	r22, 0x66	; 102
     d4a:	4c 00       	.word	0x004c	; ????
     d4c:	01 db       	rcall	.-2558   	; 0x350 <_fpadd_parts+0x276>
     d4e:	02 49       	sbci	r16, 0x92	; 146
     d50:	4e 54       	subi	r20, 0x4E	; 78
     d52:	33 32       	cpi	r19, 0x23	; 35
     d54:	5f 4d       	sbci	r21, 0xDF	; 223
     d56:	49 4e       	sbci	r20, 0xE9	; 233
     d58:	20 28       	or	r2, r0
     d5a:	2d 49       	sbci	r18, 0x9D	; 157
     d5c:	4e 54       	subi	r20, 0x4E	; 78
     d5e:	33 32       	cpi	r19, 0x23	; 35
     d60:	5f 4d       	sbci	r21, 0xDF	; 223
     d62:	41 58       	subi	r20, 0x81	; 129
     d64:	20 2d       	mov	r18, r0
     d66:	20 31       	cpi	r18, 0x10	; 16
     d68:	4c 29       	or	r20, r12
     d6a:	00 01       	movw	r0, r0
     d6c:	e0 02       	muls	r30, r16
     d6e:	55 49       	sbci	r21, 0x95	; 149
     d70:	4e 54       	subi	r20, 0x4E	; 78
     d72:	33 32       	cpi	r19, 0x23	; 35
     d74:	5f 4d       	sbci	r21, 0xDF	; 223
     d76:	41 58       	subi	r20, 0x81	; 129
     d78:	20 28       	or	r2, r0
     d7a:	5f 5f       	subi	r21, 0xFF	; 255
     d7c:	43 4f       	sbci	r20, 0xF3	; 243
     d7e:	4e 43       	sbci	r20, 0x3E	; 62
     d80:	41 54       	subi	r20, 0x41	; 65
     d82:	28 49       	sbci	r18, 0x98	; 152
     d84:	4e 54       	subi	r20, 0x4E	; 78
     d86:	33 32       	cpi	r19, 0x23	; 35
     d88:	5f 4d       	sbci	r21, 0xDF	; 223
     d8a:	41 58       	subi	r20, 0x81	; 129
     d8c:	2c 20       	and	r2, r12
     d8e:	55 29       	or	r21, r5
     d90:	20 2a       	or	r2, r16
     d92:	20 32       	cpi	r18, 0x20	; 32
     d94:	55 4c       	sbci	r21, 0xC5	; 197
     d96:	20 2b       	or	r18, r16
     d98:	20 31       	cpi	r18, 0x10	; 16
     d9a:	55 4c       	sbci	r21, 0xC5	; 197
     d9c:	29 00       	.word	0x0029	; ????
     d9e:	01 e7       	ldi	r16, 0x71	; 113
     da0:	02 49       	sbci	r16, 0x92	; 146
     da2:	4e 54       	subi	r20, 0x4E	; 78
     da4:	36 34       	cpi	r19, 0x46	; 70
     da6:	5f 4d       	sbci	r21, 0xDF	; 223
     da8:	41 58       	subi	r20, 0x81	; 129
     daa:	20 30       	cpi	r18, 0x00	; 0
     dac:	78 37       	cpi	r23, 0x78	; 120
     dae:	66 66       	ori	r22, 0x66	; 102
     db0:	66 66       	ori	r22, 0x66	; 102
     db2:	66 66       	ori	r22, 0x66	; 102
     db4:	66 66       	ori	r22, 0x66	; 102
     db6:	66 66       	ori	r22, 0x66	; 102
     db8:	66 66       	ori	r22, 0x66	; 102
     dba:	66 66       	ori	r22, 0x66	; 102
     dbc:	66 4c       	sbci	r22, 0xC6	; 198
     dbe:	4c 00       	.word	0x004c	; ????
     dc0:	01 ec       	ldi	r16, 0xC1	; 193
     dc2:	02 49       	sbci	r16, 0x92	; 146
     dc4:	4e 54       	subi	r20, 0x4E	; 78
     dc6:	36 34       	cpi	r19, 0x46	; 70
     dc8:	5f 4d       	sbci	r21, 0xDF	; 223
     dca:	49 4e       	sbci	r20, 0xE9	; 233
     dcc:	20 28       	or	r2, r0
     dce:	2d 49       	sbci	r18, 0x9D	; 157
     dd0:	4e 54       	subi	r20, 0x4E	; 78
     dd2:	36 34       	cpi	r19, 0x46	; 70
     dd4:	5f 4d       	sbci	r21, 0xDF	; 223
     dd6:	41 58       	subi	r20, 0x81	; 129
     dd8:	20 2d       	mov	r18, r0
     dda:	20 31       	cpi	r18, 0x10	; 16
     ddc:	4c 4c       	sbci	r20, 0xCC	; 204
     dde:	29 00       	.word	0x0029	; ????
     de0:	01 f1       	breq	.+64     	; 0xe22 <__data_load_end+0x14e>
     de2:	02 55       	subi	r16, 0x52	; 82
     de4:	49 4e       	sbci	r20, 0xE9	; 233
     de6:	54 36       	cpi	r21, 0x64	; 100
     de8:	34 5f       	subi	r19, 0xF4	; 244
     dea:	4d 41       	sbci	r20, 0x1D	; 29
     dec:	58 20       	and	r5, r8
     dee:	28 5f       	subi	r18, 0xF8	; 248
     df0:	5f 43       	sbci	r21, 0x3F	; 63
     df2:	4f 4e       	sbci	r20, 0xEF	; 239
     df4:	43 41       	sbci	r20, 0x13	; 19
     df6:	54 28       	or	r5, r4
     df8:	49 4e       	sbci	r20, 0xE9	; 233
     dfa:	54 36       	cpi	r21, 0x64	; 100
     dfc:	34 5f       	subi	r19, 0xF4	; 244
     dfe:	4d 41       	sbci	r20, 0x1D	; 29
     e00:	58 2c       	mov	r5, r8
     e02:	20 55       	subi	r18, 0x50	; 80
     e04:	29 20       	and	r2, r9
     e06:	2a 20       	and	r2, r10
     e08:	32 55       	subi	r19, 0x52	; 82
     e0a:	4c 4c       	sbci	r20, 0xCC	; 204
     e0c:	20 2b       	or	r18, r16
     e0e:	20 31       	cpi	r18, 0x10	; 16
     e10:	55 4c       	sbci	r21, 0xC5	; 197
     e12:	4c 29       	or	r20, r12
     e14:	00 01       	movw	r0, r0
     e16:	fb 02       	muls	r31, r27
     e18:	49 4e       	sbci	r20, 0xE9	; 233
     e1a:	54 5f       	subi	r21, 0xF4	; 244
     e1c:	4c 45       	sbci	r20, 0x5C	; 92
     e1e:	41 53       	subi	r20, 0x31	; 49
     e20:	54 38       	cpi	r21, 0x84	; 132
     e22:	5f 4d       	sbci	r21, 0xDF	; 223
     e24:	41 58       	subi	r20, 0x81	; 129
     e26:	20 49       	sbci	r18, 0x90	; 144
     e28:	4e 54       	subi	r20, 0x4E	; 78
     e2a:	38 5f       	subi	r19, 0xF8	; 248
     e2c:	4d 41       	sbci	r20, 0x1D	; 29
     e2e:	58 00       	.word	0x0058	; ????
     e30:	01 80       	ldd	r0, Z+1	; 0x01
     e32:	03 49       	sbci	r16, 0x93	; 147
     e34:	4e 54       	subi	r20, 0x4E	; 78
     e36:	5f 4c       	sbci	r21, 0xCF	; 207
     e38:	45 41       	sbci	r20, 0x15	; 21
     e3a:	53 54       	subi	r21, 0x43	; 67
     e3c:	38 5f       	subi	r19, 0xF8	; 248
     e3e:	4d 49       	sbci	r20, 0x9D	; 157
     e40:	4e 20       	and	r4, r14
     e42:	49 4e       	sbci	r20, 0xE9	; 233
     e44:	54 38       	cpi	r21, 0x84	; 132
     e46:	5f 4d       	sbci	r21, 0xDF	; 223
     e48:	49 4e       	sbci	r20, 0xE9	; 233
     e4a:	00 01       	movw	r0, r0
     e4c:	85 03       	fmuls	r16, r21
     e4e:	55 49       	sbci	r21, 0x95	; 149
     e50:	4e 54       	subi	r20, 0x4E	; 78
     e52:	5f 4c       	sbci	r21, 0xCF	; 207
     e54:	45 41       	sbci	r20, 0x15	; 21
     e56:	53 54       	subi	r21, 0x43	; 67
     e58:	38 5f       	subi	r19, 0xF8	; 248
     e5a:	4d 41       	sbci	r20, 0x1D	; 29
     e5c:	58 20       	and	r5, r8
     e5e:	55 49       	sbci	r21, 0x95	; 149
     e60:	4e 54       	subi	r20, 0x4E	; 78
     e62:	38 5f       	subi	r19, 0xF8	; 248
     e64:	4d 41       	sbci	r20, 0x1D	; 29
     e66:	58 00       	.word	0x0058	; ????
     e68:	01 8a       	std	Z+17, r0	; 0x11
     e6a:	03 49       	sbci	r16, 0x93	; 147
     e6c:	4e 54       	subi	r20, 0x4E	; 78
     e6e:	5f 4c       	sbci	r21, 0xCF	; 207
     e70:	45 41       	sbci	r20, 0x15	; 21
     e72:	53 54       	subi	r21, 0x43	; 67
     e74:	31 36       	cpi	r19, 0x61	; 97
     e76:	5f 4d       	sbci	r21, 0xDF	; 223
     e78:	41 58       	subi	r20, 0x81	; 129
     e7a:	20 49       	sbci	r18, 0x90	; 144
     e7c:	4e 54       	subi	r20, 0x4E	; 78
     e7e:	31 36       	cpi	r19, 0x61	; 97
     e80:	5f 4d       	sbci	r21, 0xDF	; 223
     e82:	41 58       	subi	r20, 0x81	; 129
     e84:	00 01       	movw	r0, r0
     e86:	8f 03       	fmulsu	r16, r23
     e88:	49 4e       	sbci	r20, 0xE9	; 233
     e8a:	54 5f       	subi	r21, 0xF4	; 244
     e8c:	4c 45       	sbci	r20, 0x5C	; 92
     e8e:	41 53       	subi	r20, 0x31	; 49
     e90:	54 31       	cpi	r21, 0x14	; 20
     e92:	36 5f       	subi	r19, 0xF6	; 246
     e94:	4d 49       	sbci	r20, 0x9D	; 157
     e96:	4e 20       	and	r4, r14
     e98:	49 4e       	sbci	r20, 0xE9	; 233
     e9a:	54 31       	cpi	r21, 0x14	; 20
     e9c:	36 5f       	subi	r19, 0xF6	; 246
     e9e:	4d 49       	sbci	r20, 0x9D	; 157
     ea0:	4e 00       	.word	0x004e	; ????
     ea2:	01 94       	neg	r0
     ea4:	03 55       	subi	r16, 0x53	; 83
     ea6:	49 4e       	sbci	r20, 0xE9	; 233
     ea8:	54 5f       	subi	r21, 0xF4	; 244
     eaa:	4c 45       	sbci	r20, 0x5C	; 92
     eac:	41 53       	subi	r20, 0x31	; 49
     eae:	54 31       	cpi	r21, 0x14	; 20
     eb0:	36 5f       	subi	r19, 0xF6	; 246
     eb2:	4d 41       	sbci	r20, 0x1D	; 29
     eb4:	58 20       	and	r5, r8
     eb6:	55 49       	sbci	r21, 0x95	; 149
     eb8:	4e 54       	subi	r20, 0x4E	; 78
     eba:	31 36       	cpi	r19, 0x61	; 97
     ebc:	5f 4d       	sbci	r21, 0xDF	; 223
     ebe:	41 58       	subi	r20, 0x81	; 129
     ec0:	00 01       	movw	r0, r0
     ec2:	99 03       	fmulsu	r17, r17
     ec4:	49 4e       	sbci	r20, 0xE9	; 233
     ec6:	54 5f       	subi	r21, 0xF4	; 244
     ec8:	4c 45       	sbci	r20, 0x5C	; 92
     eca:	41 53       	subi	r20, 0x31	; 49
     ecc:	54 33       	cpi	r21, 0x34	; 52
     ece:	32 5f       	subi	r19, 0xF2	; 242
     ed0:	4d 41       	sbci	r20, 0x1D	; 29
     ed2:	58 20       	and	r5, r8
     ed4:	49 4e       	sbci	r20, 0xE9	; 233
     ed6:	54 33       	cpi	r21, 0x34	; 52
     ed8:	32 5f       	subi	r19, 0xF2	; 242
     eda:	4d 41       	sbci	r20, 0x1D	; 29
     edc:	58 00       	.word	0x0058	; ????
     ede:	01 9e       	mul	r0, r17
     ee0:	03 49       	sbci	r16, 0x93	; 147
     ee2:	4e 54       	subi	r20, 0x4E	; 78
     ee4:	5f 4c       	sbci	r21, 0xCF	; 207
     ee6:	45 41       	sbci	r20, 0x15	; 21
     ee8:	53 54       	subi	r21, 0x43	; 67
     eea:	33 32       	cpi	r19, 0x23	; 35
     eec:	5f 4d       	sbci	r21, 0xDF	; 223
     eee:	49 4e       	sbci	r20, 0xE9	; 233
     ef0:	20 49       	sbci	r18, 0x90	; 144
     ef2:	4e 54       	subi	r20, 0x4E	; 78
     ef4:	33 32       	cpi	r19, 0x23	; 35
     ef6:	5f 4d       	sbci	r21, 0xDF	; 223
     ef8:	49 4e       	sbci	r20, 0xE9	; 233
     efa:	00 01       	movw	r0, r0
     efc:	a3 03       	fmuls	r18, r19
     efe:	55 49       	sbci	r21, 0x95	; 149
     f00:	4e 54       	subi	r20, 0x4E	; 78
     f02:	5f 4c       	sbci	r21, 0xCF	; 207
     f04:	45 41       	sbci	r20, 0x15	; 21
     f06:	53 54       	subi	r21, 0x43	; 67
     f08:	33 32       	cpi	r19, 0x23	; 35
     f0a:	5f 4d       	sbci	r21, 0xDF	; 223
     f0c:	41 58       	subi	r20, 0x81	; 129
     f0e:	20 55       	subi	r18, 0x50	; 80
     f10:	49 4e       	sbci	r20, 0xE9	; 233
     f12:	54 33       	cpi	r21, 0x34	; 52
     f14:	32 5f       	subi	r19, 0xF2	; 242
     f16:	4d 41       	sbci	r20, 0x1D	; 29
     f18:	58 00       	.word	0x0058	; ????
     f1a:	01 a8       	ldd	r0, Z+49	; 0x31
     f1c:	03 49       	sbci	r16, 0x93	; 147
     f1e:	4e 54       	subi	r20, 0x4E	; 78
     f20:	5f 4c       	sbci	r21, 0xCF	; 207
     f22:	45 41       	sbci	r20, 0x15	; 21
     f24:	53 54       	subi	r21, 0x43	; 67
     f26:	36 34       	cpi	r19, 0x46	; 70
     f28:	5f 4d       	sbci	r21, 0xDF	; 223
     f2a:	41 58       	subi	r20, 0x81	; 129
     f2c:	20 49       	sbci	r18, 0x90	; 144
     f2e:	4e 54       	subi	r20, 0x4E	; 78
     f30:	36 34       	cpi	r19, 0x46	; 70
     f32:	5f 4d       	sbci	r21, 0xDF	; 223
     f34:	41 58       	subi	r20, 0x81	; 129
     f36:	00 01       	movw	r0, r0
     f38:	ad 03       	fmulsu	r18, r21
     f3a:	49 4e       	sbci	r20, 0xE9	; 233
     f3c:	54 5f       	subi	r21, 0xF4	; 244
     f3e:	4c 45       	sbci	r20, 0x5C	; 92
     f40:	41 53       	subi	r20, 0x31	; 49
     f42:	54 36       	cpi	r21, 0x64	; 100
     f44:	34 5f       	subi	r19, 0xF4	; 244
     f46:	4d 49       	sbci	r20, 0x9D	; 157
     f48:	4e 20       	and	r4, r14
     f4a:	49 4e       	sbci	r20, 0xE9	; 233
     f4c:	54 36       	cpi	r21, 0x64	; 100
     f4e:	34 5f       	subi	r19, 0xF4	; 244
     f50:	4d 49       	sbci	r20, 0x9D	; 157
     f52:	4e 00       	.word	0x004e	; ????
     f54:	01 b2       	in	r0, 0x11	; 17
     f56:	03 55       	subi	r16, 0x53	; 83
     f58:	49 4e       	sbci	r20, 0xE9	; 233
     f5a:	54 5f       	subi	r21, 0xF4	; 244
     f5c:	4c 45       	sbci	r20, 0x5C	; 92
     f5e:	41 53       	subi	r20, 0x31	; 49
     f60:	54 36       	cpi	r21, 0x64	; 100
     f62:	34 5f       	subi	r19, 0xF4	; 244
     f64:	4d 41       	sbci	r20, 0x1D	; 29
     f66:	58 20       	and	r5, r8
     f68:	55 49       	sbci	r21, 0x95	; 149
     f6a:	4e 54       	subi	r20, 0x4E	; 78
     f6c:	36 34       	cpi	r19, 0x46	; 70
     f6e:	5f 4d       	sbci	r21, 0xDF	; 223
     f70:	41 58       	subi	r20, 0x81	; 129
     f72:	00 01       	movw	r0, r0
     f74:	bd 03       	fmulsu	r19, r21
     f76:	49 4e       	sbci	r20, 0xE9	; 233
     f78:	54 5f       	subi	r21, 0xF4	; 244
     f7a:	46 41       	sbci	r20, 0x16	; 22
     f7c:	53 54       	subi	r21, 0x43	; 67
     f7e:	38 5f       	subi	r19, 0xF8	; 248
     f80:	4d 41       	sbci	r20, 0x1D	; 29
     f82:	58 20       	and	r5, r8
     f84:	49 4e       	sbci	r20, 0xE9	; 233
     f86:	54 38       	cpi	r21, 0x84	; 132
     f88:	5f 4d       	sbci	r21, 0xDF	; 223
     f8a:	41 58       	subi	r20, 0x81	; 129
     f8c:	00 01       	movw	r0, r0
     f8e:	c2 03       	fmuls	r20, r18
     f90:	49 4e       	sbci	r20, 0xE9	; 233
     f92:	54 5f       	subi	r21, 0xF4	; 244
     f94:	46 41       	sbci	r20, 0x16	; 22
     f96:	53 54       	subi	r21, 0x43	; 67
     f98:	38 5f       	subi	r19, 0xF8	; 248
     f9a:	4d 49       	sbci	r20, 0x9D	; 157
     f9c:	4e 20       	and	r4, r14
     f9e:	49 4e       	sbci	r20, 0xE9	; 233
     fa0:	54 38       	cpi	r21, 0x84	; 132
     fa2:	5f 4d       	sbci	r21, 0xDF	; 223
     fa4:	49 4e       	sbci	r20, 0xE9	; 233
     fa6:	00 01       	movw	r0, r0
     fa8:	c7 03       	fmuls	r20, r23
     faa:	55 49       	sbci	r21, 0x95	; 149
     fac:	4e 54       	subi	r20, 0x4E	; 78
     fae:	5f 46       	sbci	r21, 0x6F	; 111
     fb0:	41 53       	subi	r20, 0x31	; 49
     fb2:	54 38       	cpi	r21, 0x84	; 132
     fb4:	5f 4d       	sbci	r21, 0xDF	; 223
     fb6:	41 58       	subi	r20, 0x81	; 129
     fb8:	20 55       	subi	r18, 0x50	; 80
     fba:	49 4e       	sbci	r20, 0xE9	; 233
     fbc:	54 38       	cpi	r21, 0x84	; 132
     fbe:	5f 4d       	sbci	r21, 0xDF	; 223
     fc0:	41 58       	subi	r20, 0x81	; 129
     fc2:	00 01       	movw	r0, r0
     fc4:	cc 03       	fmulsu	r20, r20
     fc6:	49 4e       	sbci	r20, 0xE9	; 233
     fc8:	54 5f       	subi	r21, 0xF4	; 244
     fca:	46 41       	sbci	r20, 0x16	; 22
     fcc:	53 54       	subi	r21, 0x43	; 67
     fce:	31 36       	cpi	r19, 0x61	; 97
     fd0:	5f 4d       	sbci	r21, 0xDF	; 223
     fd2:	41 58       	subi	r20, 0x81	; 129
     fd4:	20 49       	sbci	r18, 0x90	; 144
     fd6:	4e 54       	subi	r20, 0x4E	; 78
     fd8:	31 36       	cpi	r19, 0x61	; 97
     fda:	5f 4d       	sbci	r21, 0xDF	; 223
     fdc:	41 58       	subi	r20, 0x81	; 129
     fde:	00 01       	movw	r0, r0
     fe0:	d1 03       	fmuls	r21, r17
     fe2:	49 4e       	sbci	r20, 0xE9	; 233
     fe4:	54 5f       	subi	r21, 0xF4	; 244
     fe6:	46 41       	sbci	r20, 0x16	; 22
     fe8:	53 54       	subi	r21, 0x43	; 67
     fea:	31 36       	cpi	r19, 0x61	; 97
     fec:	5f 4d       	sbci	r21, 0xDF	; 223
     fee:	49 4e       	sbci	r20, 0xE9	; 233
     ff0:	20 49       	sbci	r18, 0x90	; 144
     ff2:	4e 54       	subi	r20, 0x4E	; 78
     ff4:	31 36       	cpi	r19, 0x61	; 97
     ff6:	5f 4d       	sbci	r21, 0xDF	; 223
     ff8:	49 4e       	sbci	r20, 0xE9	; 233
     ffa:	00 01       	movw	r0, r0
     ffc:	d6 03       	fmuls	r21, r22
     ffe:	55 49       	sbci	r21, 0x95	; 149
    1000:	4e 54       	subi	r20, 0x4E	; 78
    1002:	5f 46       	sbci	r21, 0x6F	; 111
    1004:	41 53       	subi	r20, 0x31	; 49
    1006:	54 31       	cpi	r21, 0x14	; 20
    1008:	36 5f       	subi	r19, 0xF6	; 246
    100a:	4d 41       	sbci	r20, 0x1D	; 29
    100c:	58 20       	and	r5, r8
    100e:	55 49       	sbci	r21, 0x95	; 149
    1010:	4e 54       	subi	r20, 0x4E	; 78
    1012:	31 36       	cpi	r19, 0x61	; 97
    1014:	5f 4d       	sbci	r21, 0xDF	; 223
    1016:	41 58       	subi	r20, 0x81	; 129
    1018:	00 01       	movw	r0, r0
    101a:	db 03       	fmulsu	r21, r19
    101c:	49 4e       	sbci	r20, 0xE9	; 233
    101e:	54 5f       	subi	r21, 0xF4	; 244
    1020:	46 41       	sbci	r20, 0x16	; 22
    1022:	53 54       	subi	r21, 0x43	; 67
    1024:	33 32       	cpi	r19, 0x23	; 35
    1026:	5f 4d       	sbci	r21, 0xDF	; 223
    1028:	41 58       	subi	r20, 0x81	; 129
    102a:	20 49       	sbci	r18, 0x90	; 144
    102c:	4e 54       	subi	r20, 0x4E	; 78
    102e:	33 32       	cpi	r19, 0x23	; 35
    1030:	5f 4d       	sbci	r21, 0xDF	; 223
    1032:	41 58       	subi	r20, 0x81	; 129
    1034:	00 01       	movw	r0, r0
    1036:	e0 03       	fmuls	r22, r16
    1038:	49 4e       	sbci	r20, 0xE9	; 233
    103a:	54 5f       	subi	r21, 0xF4	; 244
    103c:	46 41       	sbci	r20, 0x16	; 22
    103e:	53 54       	subi	r21, 0x43	; 67
    1040:	33 32       	cpi	r19, 0x23	; 35
    1042:	5f 4d       	sbci	r21, 0xDF	; 223
    1044:	49 4e       	sbci	r20, 0xE9	; 233
    1046:	20 49       	sbci	r18, 0x90	; 144
    1048:	4e 54       	subi	r20, 0x4E	; 78
    104a:	33 32       	cpi	r19, 0x23	; 35
    104c:	5f 4d       	sbci	r21, 0xDF	; 223
    104e:	49 4e       	sbci	r20, 0xE9	; 233
    1050:	00 01       	movw	r0, r0
    1052:	e5 03       	fmuls	r22, r21
    1054:	55 49       	sbci	r21, 0x95	; 149
    1056:	4e 54       	subi	r20, 0x4E	; 78
    1058:	5f 46       	sbci	r21, 0x6F	; 111
    105a:	41 53       	subi	r20, 0x31	; 49
    105c:	54 33       	cpi	r21, 0x34	; 52
    105e:	32 5f       	subi	r19, 0xF2	; 242
    1060:	4d 41       	sbci	r20, 0x1D	; 29
    1062:	58 20       	and	r5, r8
    1064:	55 49       	sbci	r21, 0x95	; 149
    1066:	4e 54       	subi	r20, 0x4E	; 78
    1068:	33 32       	cpi	r19, 0x23	; 35
    106a:	5f 4d       	sbci	r21, 0xDF	; 223
    106c:	41 58       	subi	r20, 0x81	; 129
    106e:	00 01       	movw	r0, r0
    1070:	ea 03       	fmulsu	r22, r18
    1072:	49 4e       	sbci	r20, 0xE9	; 233
    1074:	54 5f       	subi	r21, 0xF4	; 244
    1076:	46 41       	sbci	r20, 0x16	; 22
    1078:	53 54       	subi	r21, 0x43	; 67
    107a:	36 34       	cpi	r19, 0x46	; 70
    107c:	5f 4d       	sbci	r21, 0xDF	; 223
    107e:	41 58       	subi	r20, 0x81	; 129
    1080:	20 49       	sbci	r18, 0x90	; 144
    1082:	4e 54       	subi	r20, 0x4E	; 78
    1084:	36 34       	cpi	r19, 0x46	; 70
    1086:	5f 4d       	sbci	r21, 0xDF	; 223
    1088:	41 58       	subi	r20, 0x81	; 129
    108a:	00 01       	movw	r0, r0
    108c:	ef 03       	fmulsu	r22, r23
    108e:	49 4e       	sbci	r20, 0xE9	; 233
    1090:	54 5f       	subi	r21, 0xF4	; 244
    1092:	46 41       	sbci	r20, 0x16	; 22
    1094:	53 54       	subi	r21, 0x43	; 67
    1096:	36 34       	cpi	r19, 0x46	; 70
    1098:	5f 4d       	sbci	r21, 0xDF	; 223
    109a:	49 4e       	sbci	r20, 0xE9	; 233
    109c:	20 49       	sbci	r18, 0x90	; 144
    109e:	4e 54       	subi	r20, 0x4E	; 78
    10a0:	36 34       	cpi	r19, 0x46	; 70
    10a2:	5f 4d       	sbci	r21, 0xDF	; 223
    10a4:	49 4e       	sbci	r20, 0xE9	; 233
    10a6:	00 01       	movw	r0, r0
    10a8:	f4 03       	fmuls	r23, r20
    10aa:	55 49       	sbci	r21, 0x95	; 149
    10ac:	4e 54       	subi	r20, 0x4E	; 78
    10ae:	5f 46       	sbci	r21, 0x6F	; 111
    10b0:	41 53       	subi	r20, 0x31	; 49
    10b2:	54 36       	cpi	r21, 0x64	; 100
    10b4:	34 5f       	subi	r19, 0xF4	; 244
    10b6:	4d 41       	sbci	r20, 0x1D	; 29
    10b8:	58 20       	and	r5, r8
    10ba:	55 49       	sbci	r21, 0x95	; 149
    10bc:	4e 54       	subi	r20, 0x4E	; 78
    10be:	36 34       	cpi	r19, 0x46	; 70
    10c0:	5f 4d       	sbci	r21, 0xDF	; 223
    10c2:	41 58       	subi	r20, 0x81	; 129
    10c4:	00 01       	movw	r0, r0
    10c6:	ff 03       	fmulsu	r23, r23
    10c8:	49 4e       	sbci	r20, 0xE9	; 233
    10ca:	54 50       	subi	r21, 0x04	; 4
    10cc:	54 52       	subi	r21, 0x24	; 36
    10ce:	5f 4d       	sbci	r21, 0xDF	; 223
    10d0:	41 58       	subi	r20, 0x81	; 129
    10d2:	20 49       	sbci	r18, 0x90	; 144
    10d4:	4e 54       	subi	r20, 0x4E	; 78
    10d6:	31 36       	cpi	r19, 0x61	; 97
    10d8:	5f 4d       	sbci	r21, 0xDF	; 223
    10da:	41 58       	subi	r20, 0x81	; 129
    10dc:	00 01       	movw	r0, r0
    10de:	84 04       	cpc	r8, r4
    10e0:	49 4e       	sbci	r20, 0xE9	; 233
    10e2:	54 50       	subi	r21, 0x04	; 4
    10e4:	54 52       	subi	r21, 0x24	; 36
    10e6:	5f 4d       	sbci	r21, 0xDF	; 223
    10e8:	49 4e       	sbci	r20, 0xE9	; 233
    10ea:	20 49       	sbci	r18, 0x90	; 144
    10ec:	4e 54       	subi	r20, 0x4E	; 78
    10ee:	31 36       	cpi	r19, 0x61	; 97
    10f0:	5f 4d       	sbci	r21, 0xDF	; 223
    10f2:	49 4e       	sbci	r20, 0xE9	; 233
    10f4:	00 01       	movw	r0, r0
    10f6:	89 04       	cpc	r8, r9
    10f8:	55 49       	sbci	r21, 0x95	; 149
    10fa:	4e 54       	subi	r20, 0x4E	; 78
    10fc:	50 54       	subi	r21, 0x40	; 64
    10fe:	52 5f       	subi	r21, 0xF2	; 242
    1100:	4d 41       	sbci	r20, 0x1D	; 29
    1102:	58 20       	and	r5, r8
    1104:	55 49       	sbci	r21, 0x95	; 149
    1106:	4e 54       	subi	r20, 0x4E	; 78
    1108:	31 36       	cpi	r19, 0x61	; 97
    110a:	5f 4d       	sbci	r21, 0xDF	; 223
    110c:	41 58       	subi	r20, 0x81	; 129
    110e:	00 01       	movw	r0, r0
    1110:	94 04       	cpc	r9, r4
    1112:	49 4e       	sbci	r20, 0xE9	; 233
    1114:	54 4d       	sbci	r21, 0xD4	; 212
    1116:	41 58       	subi	r20, 0x81	; 129
    1118:	5f 4d       	sbci	r21, 0xDF	; 223
    111a:	41 58       	subi	r20, 0x81	; 129
    111c:	20 49       	sbci	r18, 0x90	; 144
    111e:	4e 54       	subi	r20, 0x4E	; 78
    1120:	36 34       	cpi	r19, 0x46	; 70
    1122:	5f 4d       	sbci	r21, 0xDF	; 223
    1124:	41 58       	subi	r20, 0x81	; 129
    1126:	00 01       	movw	r0, r0
    1128:	99 04       	cpc	r9, r9
    112a:	49 4e       	sbci	r20, 0xE9	; 233
    112c:	54 4d       	sbci	r21, 0xD4	; 212
    112e:	41 58       	subi	r20, 0x81	; 129
    1130:	5f 4d       	sbci	r21, 0xDF	; 223
    1132:	49 4e       	sbci	r20, 0xE9	; 233
    1134:	20 49       	sbci	r18, 0x90	; 144
    1136:	4e 54       	subi	r20, 0x4E	; 78
    1138:	36 34       	cpi	r19, 0x46	; 70
    113a:	5f 4d       	sbci	r21, 0xDF	; 223
    113c:	49 4e       	sbci	r20, 0xE9	; 233
    113e:	00 01       	movw	r0, r0
    1140:	9e 04       	cpc	r9, r14
    1142:	55 49       	sbci	r21, 0x95	; 149
    1144:	4e 54       	subi	r20, 0x4E	; 78
    1146:	4d 41       	sbci	r20, 0x1D	; 29
    1148:	58 5f       	subi	r21, 0xF8	; 248
    114a:	4d 41       	sbci	r20, 0x1D	; 29
    114c:	58 20       	and	r5, r8
    114e:	55 49       	sbci	r21, 0x95	; 149
    1150:	4e 54       	subi	r20, 0x4E	; 78
    1152:	36 34       	cpi	r19, 0x46	; 70
    1154:	5f 4d       	sbci	r21, 0xDF	; 223
    1156:	41 58       	subi	r20, 0x81	; 129
    1158:	00 01       	movw	r0, r0
    115a:	ab 04       	cpc	r10, r11
    115c:	50 54       	subi	r21, 0x40	; 64
    115e:	52 44       	sbci	r21, 0x42	; 66
    1160:	49 46       	sbci	r20, 0x69	; 105
    1162:	46 5f       	subi	r20, 0xF6	; 246
    1164:	4d 41       	sbci	r20, 0x1D	; 29
    1166:	58 20       	and	r5, r8
    1168:	49 4e       	sbci	r20, 0xE9	; 233
    116a:	54 31       	cpi	r21, 0x14	; 20
    116c:	36 5f       	subi	r19, 0xF6	; 246
    116e:	4d 41       	sbci	r20, 0x1D	; 29
    1170:	58 00       	.word	0x0058	; ????
    1172:	01 b0       	in	r0, 0x01	; 1
    1174:	04 50       	subi	r16, 0x04	; 4
    1176:	54 52       	subi	r21, 0x24	; 36
    1178:	44 49       	sbci	r20, 0x94	; 148
    117a:	46 46       	sbci	r20, 0x66	; 102
    117c:	5f 4d       	sbci	r21, 0xDF	; 223
    117e:	49 4e       	sbci	r20, 0xE9	; 233
    1180:	20 49       	sbci	r18, 0x90	; 144
    1182:	4e 54       	subi	r20, 0x4E	; 78
    1184:	31 36       	cpi	r19, 0x61	; 97
    1186:	5f 4d       	sbci	r21, 0xDF	; 223
    1188:	49 4e       	sbci	r20, 0xE9	; 233
    118a:	00 01       	movw	r0, r0
    118c:	b9 04       	cpc	r11, r9
    118e:	53 49       	sbci	r21, 0x93	; 147
    1190:	47 5f       	subi	r20, 0xF7	; 247
    1192:	41 54       	subi	r20, 0x41	; 65
    1194:	4f 4d       	sbci	r20, 0xDF	; 223
    1196:	49 43       	sbci	r20, 0x39	; 57
    1198:	5f 4d       	sbci	r21, 0xDF	; 223
    119a:	41 58       	subi	r20, 0x81	; 129
    119c:	20 49       	sbci	r18, 0x90	; 144
    119e:	4e 54       	subi	r20, 0x4E	; 78
    11a0:	38 5f       	subi	r19, 0xF8	; 248
    11a2:	4d 41       	sbci	r20, 0x1D	; 29
    11a4:	58 00       	.word	0x0058	; ????
    11a6:	01 be       	out	0x31, r0	; 49
    11a8:	04 53       	subi	r16, 0x34	; 52
    11aa:	49 47       	sbci	r20, 0x79	; 121
    11ac:	5f 41       	sbci	r21, 0x1F	; 31
    11ae:	54 4f       	sbci	r21, 0xF4	; 244
    11b0:	4d 49       	sbci	r20, 0x9D	; 157
    11b2:	43 5f       	subi	r20, 0xF3	; 243
    11b4:	4d 49       	sbci	r20, 0x9D	; 157
    11b6:	4e 20       	and	r4, r14
    11b8:	49 4e       	sbci	r20, 0xE9	; 233
    11ba:	54 38       	cpi	r21, 0x84	; 132
    11bc:	5f 4d       	sbci	r21, 0xDF	; 223
    11be:	49 4e       	sbci	r20, 0xE9	; 233
    11c0:	00 01       	movw	r0, r0
    11c2:	c4 04       	cpc	r12, r4
    11c4:	53 49       	sbci	r21, 0x93	; 147
    11c6:	5a 45       	sbci	r21, 0x5A	; 90
    11c8:	5f 4d       	sbci	r21, 0xDF	; 223
    11ca:	41 58       	subi	r20, 0x81	; 129
    11cc:	20 28       	or	r2, r0
    11ce:	5f 5f       	subi	r21, 0xFF	; 255
    11d0:	43 4f       	sbci	r20, 0xF3	; 243
    11d2:	4e 43       	sbci	r20, 0x3E	; 62
    11d4:	41 54       	subi	r20, 0x41	; 65
    11d6:	28 49       	sbci	r18, 0x98	; 152
    11d8:	4e 54       	subi	r20, 0x4E	; 78
    11da:	31 36       	cpi	r19, 0x61	; 97
    11dc:	5f 4d       	sbci	r21, 0xDF	; 223
    11de:	41 58       	subi	r20, 0x81	; 129
    11e0:	2c 20       	and	r2, r12
    11e2:	55 29       	or	r21, r5
    11e4:	29 00       	.word	0x0029	; ????
    11e6:	01 e1       	ldi	r16, 0x11	; 17
    11e8:	04 49       	sbci	r16, 0x94	; 148
    11ea:	4e 54       	subi	r20, 0x4E	; 78
    11ec:	38 5f       	subi	r19, 0xF8	; 248
    11ee:	43 28       	or	r4, r3
    11f0:	76 61       	ori	r23, 0x16	; 22
    11f2:	6c 75       	andi	r22, 0x5C	; 92
    11f4:	65 29       	or	r22, r5
    11f6:	20 28       	or	r2, r0
    11f8:	28 69       	ori	r18, 0x98	; 152
    11fa:	6e 74       	andi	r22, 0x4E	; 78
    11fc:	38 5f       	subi	r19, 0xF8	; 248
    11fe:	74 29       	or	r23, r4
    1200:	20 76       	andi	r18, 0x60	; 96
    1202:	61 6c       	ori	r22, 0xC1	; 193
    1204:	75 65       	ori	r23, 0x55	; 85
    1206:	29 00       	.word	0x0029	; ????
    1208:	01 e6       	ldi	r16, 0x61	; 97
    120a:	04 55       	subi	r16, 0x54	; 84
    120c:	49 4e       	sbci	r20, 0xE9	; 233
    120e:	54 38       	cpi	r21, 0x84	; 132
    1210:	5f 43       	sbci	r21, 0x3F	; 63
    1212:	28 76       	andi	r18, 0x68	; 104
    1214:	61 6c       	ori	r22, 0xC1	; 193
    1216:	75 65       	ori	r23, 0x55	; 85
    1218:	29 20       	and	r2, r9
    121a:	28 28       	or	r2, r8
    121c:	75 69       	ori	r23, 0x95	; 149
    121e:	6e 74       	andi	r22, 0x4E	; 78
    1220:	38 5f       	subi	r19, 0xF8	; 248
    1222:	74 29       	or	r23, r4
    1224:	20 5f       	subi	r18, 0xF0	; 240
    1226:	5f 43       	sbci	r21, 0x3F	; 63
    1228:	4f 4e       	sbci	r20, 0xEF	; 239
    122a:	43 41       	sbci	r20, 0x13	; 19
    122c:	54 28       	or	r5, r4
    122e:	76 61       	ori	r23, 0x16	; 22
    1230:	6c 75       	andi	r22, 0x5C	; 92
    1232:	65 2c       	mov	r6, r5
    1234:	20 55       	subi	r18, 0x50	; 80
    1236:	29 29       	or	r18, r9
    1238:	00 01       	movw	r0, r0
    123a:	f5 04       	cpc	r15, r5
    123c:	49 4e       	sbci	r20, 0xE9	; 233
    123e:	54 31       	cpi	r21, 0x14	; 20
    1240:	36 5f       	subi	r19, 0xF6	; 246
    1242:	43 28       	or	r4, r3
    1244:	76 61       	ori	r23, 0x16	; 22
    1246:	6c 75       	andi	r22, 0x5C	; 92
    1248:	65 29       	or	r22, r5
    124a:	20 76       	andi	r18, 0x60	; 96
    124c:	61 6c       	ori	r22, 0xC1	; 193
    124e:	75 65       	ori	r23, 0x55	; 85
    1250:	00 01       	movw	r0, r0
    1252:	fa 04       	cpc	r15, r10
    1254:	55 49       	sbci	r21, 0x95	; 149
    1256:	4e 54       	subi	r20, 0x4E	; 78
    1258:	31 36       	cpi	r19, 0x61	; 97
    125a:	5f 43       	sbci	r21, 0x3F	; 63
    125c:	28 76       	andi	r18, 0x68	; 104
    125e:	61 6c       	ori	r22, 0xC1	; 193
    1260:	75 65       	ori	r23, 0x55	; 85
    1262:	29 20       	and	r2, r9
    1264:	5f 5f       	subi	r21, 0xFF	; 255
    1266:	43 4f       	sbci	r20, 0xF3	; 243
    1268:	4e 43       	sbci	r20, 0x3E	; 62
    126a:	41 54       	subi	r20, 0x41	; 65
    126c:	28 76       	andi	r18, 0x68	; 104
    126e:	61 6c       	ori	r22, 0xC1	; 193
    1270:	75 65       	ori	r23, 0x55	; 85
    1272:	2c 20       	and	r2, r12
    1274:	55 29       	or	r21, r5
    1276:	00 01       	movw	r0, r0
    1278:	ff 04       	cpc	r15, r15
    127a:	49 4e       	sbci	r20, 0xE9	; 233
    127c:	54 33       	cpi	r21, 0x34	; 52
    127e:	32 5f       	subi	r19, 0xF2	; 242
    1280:	43 28       	or	r4, r3
    1282:	76 61       	ori	r23, 0x16	; 22
    1284:	6c 75       	andi	r22, 0x5C	; 92
    1286:	65 29       	or	r22, r5
    1288:	20 5f       	subi	r18, 0xF0	; 240
    128a:	5f 43       	sbci	r21, 0x3F	; 63
    128c:	4f 4e       	sbci	r20, 0xEF	; 239
    128e:	43 41       	sbci	r20, 0x13	; 19
    1290:	54 28       	or	r5, r4
    1292:	76 61       	ori	r23, 0x16	; 22
    1294:	6c 75       	andi	r22, 0x5C	; 92
    1296:	65 2c       	mov	r6, r5
    1298:	20 4c       	sbci	r18, 0xC0	; 192
    129a:	29 00       	.word	0x0029	; ????
    129c:	01 84       	ldd	r0, Z+9	; 0x09
    129e:	05 55       	subi	r16, 0x55	; 85
    12a0:	49 4e       	sbci	r20, 0xE9	; 233
    12a2:	54 33       	cpi	r21, 0x34	; 52
    12a4:	32 5f       	subi	r19, 0xF2	; 242
    12a6:	43 28       	or	r4, r3
    12a8:	76 61       	ori	r23, 0x16	; 22
    12aa:	6c 75       	andi	r22, 0x5C	; 92
    12ac:	65 29       	or	r22, r5
    12ae:	20 5f       	subi	r18, 0xF0	; 240
    12b0:	5f 43       	sbci	r21, 0x3F	; 63
    12b2:	4f 4e       	sbci	r20, 0xEF	; 239
    12b4:	43 41       	sbci	r20, 0x13	; 19
    12b6:	54 28       	or	r5, r4
    12b8:	76 61       	ori	r23, 0x16	; 22
    12ba:	6c 75       	andi	r22, 0x5C	; 92
    12bc:	65 2c       	mov	r6, r5
    12be:	20 55       	subi	r18, 0x50	; 80
    12c0:	4c 29       	or	r20, r12
    12c2:	00 01       	movw	r0, r0
    12c4:	8b 05       	cpc	r24, r11
    12c6:	49 4e       	sbci	r20, 0xE9	; 233
    12c8:	54 36       	cpi	r21, 0x64	; 100
    12ca:	34 5f       	subi	r19, 0xF4	; 244
    12cc:	43 28       	or	r4, r3
    12ce:	76 61       	ori	r23, 0x16	; 22
    12d0:	6c 75       	andi	r22, 0x5C	; 92
    12d2:	65 29       	or	r22, r5
    12d4:	20 5f       	subi	r18, 0xF0	; 240
    12d6:	5f 43       	sbci	r21, 0x3F	; 63
    12d8:	4f 4e       	sbci	r20, 0xEF	; 239
    12da:	43 41       	sbci	r20, 0x13	; 19
    12dc:	54 28       	or	r5, r4
    12de:	76 61       	ori	r23, 0x16	; 22
    12e0:	6c 75       	andi	r22, 0x5C	; 92
    12e2:	65 2c       	mov	r6, r5
    12e4:	20 4c       	sbci	r18, 0xC0	; 192
    12e6:	4c 29       	or	r20, r12
    12e8:	00 01       	movw	r0, r0
    12ea:	90 05       	cpc	r25, r0
    12ec:	55 49       	sbci	r21, 0x95	; 149
    12ee:	4e 54       	subi	r20, 0x4E	; 78
    12f0:	36 34       	cpi	r19, 0x46	; 70
    12f2:	5f 43       	sbci	r21, 0x3F	; 63
    12f4:	28 76       	andi	r18, 0x68	; 104
    12f6:	61 6c       	ori	r22, 0xC1	; 193
    12f8:	75 65       	ori	r23, 0x55	; 85
    12fa:	29 20       	and	r2, r9
    12fc:	5f 5f       	subi	r21, 0xFF	; 255
    12fe:	43 4f       	sbci	r20, 0xF3	; 243
    1300:	4e 43       	sbci	r20, 0x3E	; 62
    1302:	41 54       	subi	r20, 0x41	; 65
    1304:	28 76       	andi	r18, 0x68	; 104
    1306:	61 6c       	ori	r22, 0xC1	; 193
    1308:	75 65       	ori	r23, 0x55	; 85
    130a:	2c 20       	and	r2, r12
    130c:	55 4c       	sbci	r21, 0xC5	; 197
    130e:	4c 29       	or	r20, r12
    1310:	00 01       	movw	r0, r0
    1312:	95 05       	cpc	r25, r5
    1314:	49 4e       	sbci	r20, 0xE9	; 233
    1316:	54 4d       	sbci	r21, 0xD4	; 212
    1318:	41 58       	subi	r20, 0x81	; 129
    131a:	5f 43       	sbci	r21, 0x3F	; 63
    131c:	28 76       	andi	r18, 0x68	; 104
    131e:	61 6c       	ori	r22, 0xC1	; 193
    1320:	75 65       	ori	r23, 0x55	; 85
    1322:	29 20       	and	r2, r9
    1324:	5f 5f       	subi	r21, 0xFF	; 255
    1326:	43 4f       	sbci	r20, 0xF3	; 243
    1328:	4e 43       	sbci	r20, 0x3E	; 62
    132a:	41 54       	subi	r20, 0x41	; 65
    132c:	28 76       	andi	r18, 0x68	; 104
    132e:	61 6c       	ori	r22, 0xC1	; 193
    1330:	75 65       	ori	r23, 0x55	; 85
    1332:	2c 20       	and	r2, r12
    1334:	4c 4c       	sbci	r20, 0xCC	; 204
    1336:	29 00       	.word	0x0029	; ????
    1338:	01 9a       	sbi	0x00, 1	; 0
    133a:	05 55       	subi	r16, 0x55	; 85
    133c:	49 4e       	sbci	r20, 0xE9	; 233
    133e:	54 4d       	sbci	r21, 0xD4	; 212
    1340:	41 58       	subi	r20, 0x81	; 129
    1342:	5f 43       	sbci	r21, 0x3F	; 63
    1344:	28 76       	andi	r18, 0x68	; 104
    1346:	61 6c       	ori	r22, 0xC1	; 193
    1348:	75 65       	ori	r23, 0x55	; 85
    134a:	29 20       	and	r2, r9
    134c:	5f 5f       	subi	r21, 0xFF	; 255
    134e:	43 4f       	sbci	r20, 0xF3	; 243
    1350:	4e 43       	sbci	r20, 0x3E	; 62
    1352:	41 54       	subi	r20, 0x41	; 65
    1354:	28 76       	andi	r18, 0x68	; 104
    1356:	61 6c       	ori	r22, 0xC1	; 193
    1358:	75 65       	ori	r23, 0x55	; 85
    135a:	2c 20       	and	r2, r12
    135c:	55 4c       	sbci	r21, 0xC5	; 197
    135e:	4c 29       	or	r20, r12
    1360:	00 04       	cpc	r0, r0
    1362:	01 60       	ori	r16, 0x01	; 1
    1364:	50 52       	subi	r21, 0x20	; 32
    1366:	49 64       	ori	r20, 0x49	; 73
    1368:	38 20       	and	r3, r8
    136a:	22 64       	ori	r18, 0x42	; 66
    136c:	22 00       	.word	0x0022	; ????
    136e:	01 63       	ori	r16, 0x31	; 49
    1370:	50 52       	subi	r21, 0x20	; 32
    1372:	49 64       	ori	r20, 0x49	; 73
    1374:	4c 45       	sbci	r20, 0x5C	; 92
    1376:	41 53       	subi	r20, 0x31	; 49
    1378:	54 38       	cpi	r21, 0x84	; 132
    137a:	20 22       	and	r2, r16
    137c:	64 22       	and	r6, r20
    137e:	00 01       	movw	r0, r0
    1380:	66 50       	subi	r22, 0x06	; 6
    1382:	52 49       	sbci	r21, 0x92	; 146
    1384:	64 46       	sbci	r22, 0x64	; 100
    1386:	41 53       	subi	r20, 0x31	; 49
    1388:	54 38       	cpi	r21, 0x84	; 132
    138a:	20 22       	and	r2, r16
    138c:	64 22       	and	r6, r20
    138e:	00 01       	movw	r0, r0
    1390:	6a 50       	subi	r22, 0x0A	; 10
    1392:	52 49       	sbci	r21, 0x92	; 146
    1394:	69 38       	cpi	r22, 0x89	; 137
    1396:	20 22       	and	r2, r16
    1398:	69 22       	and	r6, r25
    139a:	00 01       	movw	r0, r0
    139c:	6d 50       	subi	r22, 0x0D	; 13
    139e:	52 49       	sbci	r21, 0x92	; 146
    13a0:	69 4c       	sbci	r22, 0xC9	; 201
    13a2:	45 41       	sbci	r20, 0x15	; 21
    13a4:	53 54       	subi	r21, 0x43	; 67
    13a6:	38 20       	and	r3, r8
    13a8:	22 69       	ori	r18, 0x92	; 146
    13aa:	22 00       	.word	0x0022	; ????
    13ac:	01 70       	andi	r16, 0x01	; 1
    13ae:	50 52       	subi	r21, 0x20	; 32
    13b0:	49 69       	ori	r20, 0x99	; 153
    13b2:	46 41       	sbci	r20, 0x16	; 22
    13b4:	53 54       	subi	r21, 0x43	; 67
    13b6:	38 20       	and	r3, r8
    13b8:	22 69       	ori	r18, 0x92	; 146
    13ba:	22 00       	.word	0x0022	; ????
    13bc:	01 75       	andi	r16, 0x51	; 81
    13be:	50 52       	subi	r21, 0x20	; 32
    13c0:	49 64       	ori	r20, 0x49	; 73
    13c2:	31 36       	cpi	r19, 0x61	; 97
    13c4:	20 22       	and	r2, r16
    13c6:	64 22       	and	r6, r20
    13c8:	00 01       	movw	r0, r0
    13ca:	78 50       	subi	r23, 0x08	; 8
    13cc:	52 49       	sbci	r21, 0x92	; 146
    13ce:	64 4c       	sbci	r22, 0xC4	; 196
    13d0:	45 41       	sbci	r20, 0x15	; 21
    13d2:	53 54       	subi	r21, 0x43	; 67
    13d4:	31 36       	cpi	r19, 0x61	; 97
    13d6:	20 22       	and	r2, r16
    13d8:	64 22       	and	r6, r20
    13da:	00 01       	movw	r0, r0
    13dc:	7b 50       	subi	r23, 0x0B	; 11
    13de:	52 49       	sbci	r21, 0x92	; 146
    13e0:	64 46       	sbci	r22, 0x64	; 100
    13e2:	41 53       	subi	r20, 0x31	; 49
    13e4:	54 31       	cpi	r21, 0x14	; 20
    13e6:	36 20       	and	r3, r6
    13e8:	22 64       	ori	r18, 0x42	; 66
    13ea:	22 00       	.word	0x0022	; ????
    13ec:	01 7f       	andi	r16, 0xF1	; 241
    13ee:	50 52       	subi	r21, 0x20	; 32
    13f0:	49 69       	ori	r20, 0x99	; 153
    13f2:	31 36       	cpi	r19, 0x61	; 97
    13f4:	20 22       	and	r2, r16
    13f6:	69 22       	and	r6, r25
    13f8:	00 01       	movw	r0, r0
    13fa:	82 01       	movw	r16, r4
    13fc:	50 52       	subi	r21, 0x20	; 32
    13fe:	49 69       	ori	r20, 0x99	; 153
    1400:	4c 45       	sbci	r20, 0x5C	; 92
    1402:	41 53       	subi	r20, 0x31	; 49
    1404:	54 31       	cpi	r21, 0x14	; 20
    1406:	36 20       	and	r3, r6
    1408:	22 69       	ori	r18, 0x92	; 146
    140a:	22 00       	.word	0x0022	; ????
    140c:	01 85       	ldd	r16, Z+9	; 0x09
    140e:	01 50       	subi	r16, 0x01	; 1
    1410:	52 49       	sbci	r21, 0x92	; 146
    1412:	69 46       	sbci	r22, 0x69	; 105
    1414:	41 53       	subi	r20, 0x31	; 49
    1416:	54 31       	cpi	r21, 0x14	; 20
    1418:	36 20       	and	r3, r6
    141a:	22 69       	ori	r18, 0x92	; 146
    141c:	22 00       	.word	0x0022	; ????
    141e:	01 8a       	std	Z+17, r0	; 0x11
    1420:	01 50       	subi	r16, 0x01	; 1
    1422:	52 49       	sbci	r21, 0x92	; 146
    1424:	64 33       	cpi	r22, 0x34	; 52
    1426:	32 20       	and	r3, r2
    1428:	22 6c       	ori	r18, 0xC2	; 194
    142a:	64 22       	and	r6, r20
    142c:	00 01       	movw	r0, r0
    142e:	8d 01       	movw	r16, r26
    1430:	50 52       	subi	r21, 0x20	; 32
    1432:	49 64       	ori	r20, 0x49	; 73
    1434:	4c 45       	sbci	r20, 0x5C	; 92
    1436:	41 53       	subi	r20, 0x31	; 49
    1438:	54 33       	cpi	r21, 0x34	; 52
    143a:	32 20       	and	r3, r2
    143c:	22 6c       	ori	r18, 0xC2	; 194
    143e:	64 22       	and	r6, r20
    1440:	00 01       	movw	r0, r0
    1442:	90 01       	movw	r18, r0
    1444:	50 52       	subi	r21, 0x20	; 32
    1446:	49 64       	ori	r20, 0x49	; 73
    1448:	46 41       	sbci	r20, 0x16	; 22
    144a:	53 54       	subi	r21, 0x43	; 67
    144c:	33 32       	cpi	r19, 0x23	; 35
    144e:	20 22       	and	r2, r16
    1450:	6c 64       	ori	r22, 0x4C	; 76
    1452:	22 00       	.word	0x0022	; ????
    1454:	01 94       	neg	r0
    1456:	01 50       	subi	r16, 0x01	; 1
    1458:	52 49       	sbci	r21, 0x92	; 146
    145a:	69 33       	cpi	r22, 0x39	; 57
    145c:	32 20       	and	r3, r2
    145e:	22 6c       	ori	r18, 0xC2	; 194
    1460:	69 22       	and	r6, r25
    1462:	00 01       	movw	r0, r0
    1464:	97 01       	movw	r18, r14
    1466:	50 52       	subi	r21, 0x20	; 32
    1468:	49 69       	ori	r20, 0x99	; 153
    146a:	4c 45       	sbci	r20, 0x5C	; 92
    146c:	41 53       	subi	r20, 0x31	; 49
    146e:	54 33       	cpi	r21, 0x34	; 52
    1470:	32 20       	and	r3, r2
    1472:	22 6c       	ori	r18, 0xC2	; 194
    1474:	69 22       	and	r6, r25
    1476:	00 01       	movw	r0, r0
    1478:	9a 01       	movw	r18, r20
    147a:	50 52       	subi	r21, 0x20	; 32
    147c:	49 69       	ori	r20, 0x99	; 153
    147e:	46 41       	sbci	r20, 0x16	; 22
    1480:	53 54       	subi	r21, 0x43	; 67
    1482:	33 32       	cpi	r19, 0x23	; 35
    1484:	20 22       	and	r2, r16
    1486:	6c 69       	ori	r22, 0x9C	; 156
    1488:	22 00       	.word	0x0022	; ????
    148a:	01 af       	std	Z+57, r16	; 0x39
    148c:	01 50       	subi	r16, 0x01	; 1
    148e:	52 49       	sbci	r21, 0x92	; 146
    1490:	64 50       	subi	r22, 0x04	; 4
    1492:	54 52       	subi	r21, 0x24	; 36
    1494:	20 50       	subi	r18, 0x00	; 0
    1496:	52 49       	sbci	r21, 0x92	; 146
    1498:	64 31       	cpi	r22, 0x14	; 20
    149a:	36 00       	.word	0x0036	; ????
    149c:	01 b2       	in	r0, 0x11	; 17
    149e:	01 50       	subi	r16, 0x01	; 1
    14a0:	52 49       	sbci	r21, 0x92	; 146
    14a2:	69 50       	subi	r22, 0x09	; 9
    14a4:	54 52       	subi	r21, 0x24	; 36
    14a6:	20 50       	subi	r18, 0x00	; 0
    14a8:	52 49       	sbci	r21, 0x92	; 146
    14aa:	69 31       	cpi	r22, 0x19	; 25
    14ac:	36 00       	.word	0x0036	; ????
    14ae:	01 b6       	in	r0, 0x31	; 49
    14b0:	01 50       	subi	r16, 0x01	; 1
    14b2:	52 49       	sbci	r21, 0x92	; 146
    14b4:	6f 38       	cpi	r22, 0x8F	; 143
    14b6:	20 22       	and	r2, r16
    14b8:	6f 22       	and	r6, r31
    14ba:	00 01       	movw	r0, r0
    14bc:	b9 01       	movw	r22, r18
    14be:	50 52       	subi	r21, 0x20	; 32
    14c0:	49 6f       	ori	r20, 0xF9	; 249
    14c2:	4c 45       	sbci	r20, 0x5C	; 92
    14c4:	41 53       	subi	r20, 0x31	; 49
    14c6:	54 38       	cpi	r21, 0x84	; 132
    14c8:	20 22       	and	r2, r16
    14ca:	6f 22       	and	r6, r31
    14cc:	00 01       	movw	r0, r0
    14ce:	bc 01       	movw	r22, r24
    14d0:	50 52       	subi	r21, 0x20	; 32
    14d2:	49 6f       	ori	r20, 0xF9	; 249
    14d4:	46 41       	sbci	r20, 0x16	; 22
    14d6:	53 54       	subi	r21, 0x43	; 67
    14d8:	38 20       	and	r3, r8
    14da:	22 6f       	ori	r18, 0xF2	; 242
    14dc:	22 00       	.word	0x0022	; ????
    14de:	01 c0       	rjmp	.+2      	; 0x14e2 <__data_load_end+0x80e>
    14e0:	01 50       	subi	r16, 0x01	; 1
    14e2:	52 49       	sbci	r21, 0x92	; 146
    14e4:	75 38       	cpi	r23, 0x85	; 133
    14e6:	20 22       	and	r2, r16
    14e8:	75 22       	and	r7, r21
    14ea:	00 01       	movw	r0, r0
    14ec:	c3 01       	movw	r24, r6
    14ee:	50 52       	subi	r21, 0x20	; 32
    14f0:	49 75       	andi	r20, 0x59	; 89
    14f2:	4c 45       	sbci	r20, 0x5C	; 92
    14f4:	41 53       	subi	r20, 0x31	; 49
    14f6:	54 38       	cpi	r21, 0x84	; 132
    14f8:	20 22       	and	r2, r16
    14fa:	75 22       	and	r7, r21
    14fc:	00 01       	movw	r0, r0
    14fe:	c6 01       	movw	r24, r12
    1500:	50 52       	subi	r21, 0x20	; 32
    1502:	49 75       	andi	r20, 0x59	; 89
    1504:	46 41       	sbci	r20, 0x16	; 22
    1506:	53 54       	subi	r21, 0x43	; 67
    1508:	38 20       	and	r3, r8
    150a:	22 75       	andi	r18, 0x52	; 82
    150c:	22 00       	.word	0x0022	; ????
    150e:	01 ca       	rjmp	.-3070   	; 0x912 <__stack+0xb3>
    1510:	01 50       	subi	r16, 0x01	; 1
    1512:	52 49       	sbci	r21, 0x92	; 146
    1514:	78 38       	cpi	r23, 0x88	; 136
    1516:	20 22       	and	r2, r16
    1518:	78 22       	and	r7, r24
    151a:	00 01       	movw	r0, r0
    151c:	cd 01       	movw	r24, r26
    151e:	50 52       	subi	r21, 0x20	; 32
    1520:	49 78       	andi	r20, 0x89	; 137
    1522:	4c 45       	sbci	r20, 0x5C	; 92
    1524:	41 53       	subi	r20, 0x31	; 49
    1526:	54 38       	cpi	r21, 0x84	; 132
    1528:	20 22       	and	r2, r16
    152a:	78 22       	and	r7, r24
    152c:	00 01       	movw	r0, r0
    152e:	d0 01       	movw	r26, r0
    1530:	50 52       	subi	r21, 0x20	; 32
    1532:	49 78       	andi	r20, 0x89	; 137
    1534:	46 41       	sbci	r20, 0x16	; 22
    1536:	53 54       	subi	r21, 0x43	; 67
    1538:	38 20       	and	r3, r8
    153a:	22 78       	andi	r18, 0x82	; 130
    153c:	22 00       	.word	0x0022	; ????
    153e:	01 d4       	rcall	.+2050   	; 0x1d42 <__data_load_end+0x106e>
    1540:	01 50       	subi	r16, 0x01	; 1
    1542:	52 49       	sbci	r21, 0x92	; 146
    1544:	58 38       	cpi	r21, 0x88	; 136
    1546:	20 22       	and	r2, r16
    1548:	58 22       	and	r5, r24
    154a:	00 01       	movw	r0, r0
    154c:	d7 01       	movw	r26, r14
    154e:	50 52       	subi	r21, 0x20	; 32
    1550:	49 58       	subi	r20, 0x89	; 137
    1552:	4c 45       	sbci	r20, 0x5C	; 92
    1554:	41 53       	subi	r20, 0x31	; 49
    1556:	54 38       	cpi	r21, 0x84	; 132
    1558:	20 22       	and	r2, r16
    155a:	58 22       	and	r5, r24
    155c:	00 01       	movw	r0, r0
    155e:	da 01       	movw	r26, r20
    1560:	50 52       	subi	r21, 0x20	; 32
    1562:	49 58       	subi	r20, 0x89	; 137
    1564:	46 41       	sbci	r20, 0x16	; 22
    1566:	53 54       	subi	r21, 0x43	; 67
    1568:	38 20       	and	r3, r8
    156a:	22 58       	subi	r18, 0x82	; 130
    156c:	22 00       	.word	0x0022	; ????
    156e:	01 df       	rcall	.-510    	; 0x1372 <__data_load_end+0x69e>
    1570:	01 50       	subi	r16, 0x01	; 1
    1572:	52 49       	sbci	r21, 0x92	; 146
    1574:	6f 31       	cpi	r22, 0x1F	; 31
    1576:	36 20       	and	r3, r6
    1578:	22 6f       	ori	r18, 0xF2	; 242
    157a:	22 00       	.word	0x0022	; ????
    157c:	01 e2       	ldi	r16, 0x21	; 33
    157e:	01 50       	subi	r16, 0x01	; 1
    1580:	52 49       	sbci	r21, 0x92	; 146
    1582:	6f 4c       	sbci	r22, 0xCF	; 207
    1584:	45 41       	sbci	r20, 0x15	; 21
    1586:	53 54       	subi	r21, 0x43	; 67
    1588:	31 36       	cpi	r19, 0x61	; 97
    158a:	20 22       	and	r2, r16
    158c:	6f 22       	and	r6, r31
    158e:	00 01       	movw	r0, r0
    1590:	e5 01       	movw	r28, r10
    1592:	50 52       	subi	r21, 0x20	; 32
    1594:	49 6f       	ori	r20, 0xF9	; 249
    1596:	46 41       	sbci	r20, 0x16	; 22
    1598:	53 54       	subi	r21, 0x43	; 67
    159a:	31 36       	cpi	r19, 0x61	; 97
    159c:	20 22       	and	r2, r16
    159e:	6f 22       	and	r6, r31
    15a0:	00 01       	movw	r0, r0
    15a2:	e9 01       	movw	r28, r18
    15a4:	50 52       	subi	r21, 0x20	; 32
    15a6:	49 75       	andi	r20, 0x59	; 89
    15a8:	31 36       	cpi	r19, 0x61	; 97
    15aa:	20 22       	and	r2, r16
    15ac:	75 22       	and	r7, r21
    15ae:	00 01       	movw	r0, r0
    15b0:	ec 01       	movw	r28, r24
    15b2:	50 52       	subi	r21, 0x20	; 32
    15b4:	49 75       	andi	r20, 0x59	; 89
    15b6:	4c 45       	sbci	r20, 0x5C	; 92
    15b8:	41 53       	subi	r20, 0x31	; 49
    15ba:	54 31       	cpi	r21, 0x14	; 20
    15bc:	36 20       	and	r3, r6
    15be:	22 75       	andi	r18, 0x52	; 82
    15c0:	22 00       	.word	0x0022	; ????
    15c2:	01 ef       	ldi	r16, 0xF1	; 241
    15c4:	01 50       	subi	r16, 0x01	; 1
    15c6:	52 49       	sbci	r21, 0x92	; 146
    15c8:	75 46       	sbci	r23, 0x65	; 101
    15ca:	41 53       	subi	r20, 0x31	; 49
    15cc:	54 31       	cpi	r21, 0x14	; 20
    15ce:	36 20       	and	r3, r6
    15d0:	22 75       	andi	r18, 0x52	; 82
    15d2:	22 00       	.word	0x0022	; ????
    15d4:	01 f3       	breq	.-64     	; 0x1596 <__data_load_end+0x8c2>
    15d6:	01 50       	subi	r16, 0x01	; 1
    15d8:	52 49       	sbci	r21, 0x92	; 146
    15da:	78 31       	cpi	r23, 0x18	; 24
    15dc:	36 20       	and	r3, r6
    15de:	22 78       	andi	r18, 0x82	; 130
    15e0:	22 00       	.word	0x0022	; ????
    15e2:	01 f6       	brne	.-128    	; 0x1564 <__data_load_end+0x890>
    15e4:	01 50       	subi	r16, 0x01	; 1
    15e6:	52 49       	sbci	r21, 0x92	; 146
    15e8:	78 4c       	sbci	r23, 0xC8	; 200
    15ea:	45 41       	sbci	r20, 0x15	; 21
    15ec:	53 54       	subi	r21, 0x43	; 67
    15ee:	31 36       	cpi	r19, 0x61	; 97
    15f0:	20 22       	and	r2, r16
    15f2:	78 22       	and	r7, r24
    15f4:	00 01       	movw	r0, r0
    15f6:	f9 01       	movw	r30, r18
    15f8:	50 52       	subi	r21, 0x20	; 32
    15fa:	49 78       	andi	r20, 0x89	; 137
    15fc:	46 41       	sbci	r20, 0x16	; 22
    15fe:	53 54       	subi	r21, 0x43	; 67
    1600:	31 36       	cpi	r19, 0x61	; 97
    1602:	20 22       	and	r2, r16
    1604:	78 22       	and	r7, r24
    1606:	00 01       	movw	r0, r0
    1608:	fd 01       	movw	r30, r26
    160a:	50 52       	subi	r21, 0x20	; 32
    160c:	49 58       	subi	r20, 0x89	; 137
    160e:	31 36       	cpi	r19, 0x61	; 97
    1610:	20 22       	and	r2, r16
    1612:	58 22       	and	r5, r24
    1614:	00 01       	movw	r0, r0
    1616:	80 02       	muls	r24, r16
    1618:	50 52       	subi	r21, 0x20	; 32
    161a:	49 58       	subi	r20, 0x89	; 137
    161c:	4c 45       	sbci	r20, 0x5C	; 92
    161e:	41 53       	subi	r20, 0x31	; 49
    1620:	54 31       	cpi	r21, 0x14	; 20
    1622:	36 20       	and	r3, r6
    1624:	22 58       	subi	r18, 0x82	; 130
    1626:	22 00       	.word	0x0022	; ????
    1628:	01 83       	std	Z+1, r16	; 0x01
    162a:	02 50       	subi	r16, 0x02	; 2
    162c:	52 49       	sbci	r21, 0x92	; 146
    162e:	58 46       	sbci	r21, 0x68	; 104
    1630:	41 53       	subi	r20, 0x31	; 49
    1632:	54 31       	cpi	r21, 0x14	; 20
    1634:	36 20       	and	r3, r6
    1636:	22 58       	subi	r18, 0x82	; 130
    1638:	22 00       	.word	0x0022	; ????
    163a:	01 88       	ldd	r0, Z+17	; 0x11
    163c:	02 50       	subi	r16, 0x02	; 2
    163e:	52 49       	sbci	r21, 0x92	; 146
    1640:	6f 33       	cpi	r22, 0x3F	; 63
    1642:	32 20       	and	r3, r2
    1644:	22 6c       	ori	r18, 0xC2	; 194
    1646:	6f 22       	and	r6, r31
    1648:	00 01       	movw	r0, r0
    164a:	8b 02       	muls	r24, r27
    164c:	50 52       	subi	r21, 0x20	; 32
    164e:	49 6f       	ori	r20, 0xF9	; 249
    1650:	4c 45       	sbci	r20, 0x5C	; 92
    1652:	41 53       	subi	r20, 0x31	; 49
    1654:	54 33       	cpi	r21, 0x34	; 52
    1656:	32 20       	and	r3, r2
    1658:	22 6c       	ori	r18, 0xC2	; 194
    165a:	6f 22       	and	r6, r31
    165c:	00 01       	movw	r0, r0
    165e:	8e 02       	muls	r24, r30
    1660:	50 52       	subi	r21, 0x20	; 32
    1662:	49 6f       	ori	r20, 0xF9	; 249
    1664:	46 41       	sbci	r20, 0x16	; 22
    1666:	53 54       	subi	r21, 0x43	; 67
    1668:	33 32       	cpi	r19, 0x23	; 35
    166a:	20 22       	and	r2, r16
    166c:	6c 6f       	ori	r22, 0xFC	; 252
    166e:	22 00       	.word	0x0022	; ????
    1670:	01 92       	st	Z+, r0
    1672:	02 50       	subi	r16, 0x02	; 2
    1674:	52 49       	sbci	r21, 0x92	; 146
    1676:	75 33       	cpi	r23, 0x35	; 53
    1678:	32 20       	and	r3, r2
    167a:	22 6c       	ori	r18, 0xC2	; 194
    167c:	75 22       	and	r7, r21
    167e:	00 01       	movw	r0, r0
    1680:	95 02       	muls	r25, r21
    1682:	50 52       	subi	r21, 0x20	; 32
    1684:	49 75       	andi	r20, 0x59	; 89
    1686:	4c 45       	sbci	r20, 0x5C	; 92
    1688:	41 53       	subi	r20, 0x31	; 49
    168a:	54 33       	cpi	r21, 0x34	; 52
    168c:	32 20       	and	r3, r2
    168e:	22 6c       	ori	r18, 0xC2	; 194
    1690:	75 22       	and	r7, r21
    1692:	00 01       	movw	r0, r0
    1694:	98 02       	muls	r25, r24
    1696:	50 52       	subi	r21, 0x20	; 32
    1698:	49 75       	andi	r20, 0x59	; 89
    169a:	46 41       	sbci	r20, 0x16	; 22
    169c:	53 54       	subi	r21, 0x43	; 67
    169e:	33 32       	cpi	r19, 0x23	; 35
    16a0:	20 22       	and	r2, r16
    16a2:	6c 75       	andi	r22, 0x5C	; 92
    16a4:	22 00       	.word	0x0022	; ????
    16a6:	01 9c       	mul	r0, r1
    16a8:	02 50       	subi	r16, 0x02	; 2
    16aa:	52 49       	sbci	r21, 0x92	; 146
    16ac:	78 33       	cpi	r23, 0x38	; 56
    16ae:	32 20       	and	r3, r2
    16b0:	22 6c       	ori	r18, 0xC2	; 194
    16b2:	78 22       	and	r7, r24
    16b4:	00 01       	movw	r0, r0
    16b6:	9f 02       	muls	r25, r31
    16b8:	50 52       	subi	r21, 0x20	; 32
    16ba:	49 78       	andi	r20, 0x89	; 137
    16bc:	4c 45       	sbci	r20, 0x5C	; 92
    16be:	41 53       	subi	r20, 0x31	; 49
    16c0:	54 33       	cpi	r21, 0x34	; 52
    16c2:	32 20       	and	r3, r2
    16c4:	22 6c       	ori	r18, 0xC2	; 194
    16c6:	78 22       	and	r7, r24
    16c8:	00 01       	movw	r0, r0
    16ca:	a2 02       	muls	r26, r18
    16cc:	50 52       	subi	r21, 0x20	; 32
    16ce:	49 78       	andi	r20, 0x89	; 137
    16d0:	46 41       	sbci	r20, 0x16	; 22
    16d2:	53 54       	subi	r21, 0x43	; 67
    16d4:	33 32       	cpi	r19, 0x23	; 35
    16d6:	20 22       	and	r2, r16
    16d8:	6c 78       	andi	r22, 0x8C	; 140
    16da:	22 00       	.word	0x0022	; ????
    16dc:	01 a6       	std	Z+41, r0	; 0x29
    16de:	02 50       	subi	r16, 0x02	; 2
    16e0:	52 49       	sbci	r21, 0x92	; 146
    16e2:	58 33       	cpi	r21, 0x38	; 56
    16e4:	32 20       	and	r3, r2
    16e6:	22 6c       	ori	r18, 0xC2	; 194
    16e8:	58 22       	and	r5, r24
    16ea:	00 01       	movw	r0, r0
    16ec:	a9 02       	muls	r26, r25
    16ee:	50 52       	subi	r21, 0x20	; 32
    16f0:	49 58       	subi	r20, 0x89	; 137
    16f2:	4c 45       	sbci	r20, 0x5C	; 92
    16f4:	41 53       	subi	r20, 0x31	; 49
    16f6:	54 33       	cpi	r21, 0x34	; 52
    16f8:	32 20       	and	r3, r2
    16fa:	22 6c       	ori	r18, 0xC2	; 194
    16fc:	58 22       	and	r5, r24
    16fe:	00 01       	movw	r0, r0
    1700:	ac 02       	muls	r26, r28
    1702:	50 52       	subi	r21, 0x20	; 32
    1704:	49 58       	subi	r20, 0x89	; 137
    1706:	46 41       	sbci	r20, 0x16	; 22
    1708:	53 54       	subi	r21, 0x43	; 67
    170a:	33 32       	cpi	r19, 0x23	; 35
    170c:	20 22       	and	r2, r16
    170e:	6c 58       	subi	r22, 0x8C	; 140
    1710:	22 00       	.word	0x0022	; ????
    1712:	01 ca       	rjmp	.-3070   	; 0xb16 <__fpcmp_parts_f+0x92>
    1714:	02 50       	subi	r16, 0x02	; 2
    1716:	52 49       	sbci	r21, 0x92	; 146
    1718:	6f 50       	subi	r22, 0x0F	; 15
    171a:	54 52       	subi	r21, 0x24	; 36
    171c:	20 50       	subi	r18, 0x00	; 0
    171e:	52 49       	sbci	r21, 0x92	; 146
    1720:	6f 31       	cpi	r22, 0x1F	; 31
    1722:	36 00       	.word	0x0036	; ????
    1724:	01 cd       	rjmp	.-1534   	; 0x1128 <__data_load_end+0x454>
    1726:	02 50       	subi	r16, 0x02	; 2
    1728:	52 49       	sbci	r21, 0x92	; 146
    172a:	75 50       	subi	r23, 0x05	; 5
    172c:	54 52       	subi	r21, 0x24	; 36
    172e:	20 50       	subi	r18, 0x00	; 0
    1730:	52 49       	sbci	r21, 0x92	; 146
    1732:	75 31       	cpi	r23, 0x15	; 21
    1734:	36 00       	.word	0x0036	; ????
    1736:	01 d0       	rcall	.+2      	; 0x173a <__data_load_end+0xa66>
    1738:	02 50       	subi	r16, 0x02	; 2
    173a:	52 49       	sbci	r21, 0x92	; 146
    173c:	78 50       	subi	r23, 0x08	; 8
    173e:	54 52       	subi	r21, 0x24	; 36
    1740:	20 50       	subi	r18, 0x00	; 0
    1742:	52 49       	sbci	r21, 0x92	; 146
    1744:	78 31       	cpi	r23, 0x18	; 24
    1746:	36 00       	.word	0x0036	; ????
    1748:	01 d3       	rcall	.+1538   	; 0x1d4c <__data_load_end+0x1078>
    174a:	02 50       	subi	r16, 0x02	; 2
    174c:	52 49       	sbci	r21, 0x92	; 146
    174e:	58 50       	subi	r21, 0x08	; 8
    1750:	54 52       	subi	r21, 0x24	; 36
    1752:	20 50       	subi	r18, 0x00	; 0
    1754:	52 49       	sbci	r21, 0x92	; 146
    1756:	58 31       	cpi	r21, 0x18	; 24
    1758:	36 00       	.word	0x0036	; ????
    175a:	01 e5       	ldi	r16, 0x51	; 81
    175c:	02 53       	subi	r16, 0x32	; 50
    175e:	43 4e       	sbci	r20, 0xE3	; 227
    1760:	64 31       	cpi	r22, 0x14	; 20
    1762:	36 20       	and	r3, r6
    1764:	22 64       	ori	r18, 0x42	; 66
    1766:	22 00       	.word	0x0022	; ????
    1768:	01 e8       	ldi	r16, 0x81	; 129
    176a:	02 53       	subi	r16, 0x32	; 50
    176c:	43 4e       	sbci	r20, 0xE3	; 227
    176e:	64 4c       	sbci	r22, 0xC4	; 196
    1770:	45 41       	sbci	r20, 0x15	; 21
    1772:	53 54       	subi	r21, 0x43	; 67
    1774:	31 36       	cpi	r19, 0x61	; 97
    1776:	20 22       	and	r2, r16
    1778:	64 22       	and	r6, r20
    177a:	00 01       	movw	r0, r0
    177c:	eb 02       	muls	r30, r27
    177e:	53 43       	sbci	r21, 0x33	; 51
    1780:	4e 64       	ori	r20, 0x4E	; 78
    1782:	46 41       	sbci	r20, 0x16	; 22
    1784:	53 54       	subi	r21, 0x43	; 67
    1786:	31 36       	cpi	r19, 0x61	; 97
    1788:	20 22       	and	r2, r16
    178a:	64 22       	and	r6, r20
    178c:	00 01       	movw	r0, r0
    178e:	ef 02       	muls	r30, r31
    1790:	53 43       	sbci	r21, 0x33	; 51
    1792:	4e 69       	ori	r20, 0x9E	; 158
    1794:	31 36       	cpi	r19, 0x61	; 97
    1796:	20 22       	and	r2, r16
    1798:	69 22       	and	r6, r25
    179a:	00 01       	movw	r0, r0
    179c:	f2 02       	muls	r31, r18
    179e:	53 43       	sbci	r21, 0x33	; 51
    17a0:	4e 69       	ori	r20, 0x9E	; 158
    17a2:	4c 45       	sbci	r20, 0x5C	; 92
    17a4:	41 53       	subi	r20, 0x31	; 49
    17a6:	54 31       	cpi	r21, 0x14	; 20
    17a8:	36 20       	and	r3, r6
    17aa:	22 69       	ori	r18, 0x92	; 146
    17ac:	22 00       	.word	0x0022	; ????
    17ae:	01 f5       	brne	.+64     	; 0x17f0 <__data_load_end+0xb1c>
    17b0:	02 53       	subi	r16, 0x32	; 50
    17b2:	43 4e       	sbci	r20, 0xE3	; 227
    17b4:	69 46       	sbci	r22, 0x69	; 105
    17b6:	41 53       	subi	r20, 0x31	; 49
    17b8:	54 31       	cpi	r21, 0x14	; 20
    17ba:	36 20       	and	r3, r6
    17bc:	22 69       	ori	r18, 0x92	; 146
    17be:	22 00       	.word	0x0022	; ????
    17c0:	01 fa       	bst	r0, 1
    17c2:	02 53       	subi	r16, 0x32	; 50
    17c4:	43 4e       	sbci	r20, 0xE3	; 227
    17c6:	64 33       	cpi	r22, 0x34	; 52
    17c8:	32 20       	and	r3, r2
    17ca:	22 6c       	ori	r18, 0xC2	; 194
    17cc:	64 22       	and	r6, r20
    17ce:	00 01       	movw	r0, r0
    17d0:	fd 02       	muls	r31, r29
    17d2:	53 43       	sbci	r21, 0x33	; 51
    17d4:	4e 64       	ori	r20, 0x4E	; 78
    17d6:	4c 45       	sbci	r20, 0x5C	; 92
    17d8:	41 53       	subi	r20, 0x31	; 49
    17da:	54 33       	cpi	r21, 0x34	; 52
    17dc:	32 20       	and	r3, r2
    17de:	22 6c       	ori	r18, 0xC2	; 194
    17e0:	64 22       	and	r6, r20
    17e2:	00 01       	movw	r0, r0
    17e4:	80 03       	fmuls	r16, r16
    17e6:	53 43       	sbci	r21, 0x33	; 51
    17e8:	4e 64       	ori	r20, 0x4E	; 78
    17ea:	46 41       	sbci	r20, 0x16	; 22
    17ec:	53 54       	subi	r21, 0x43	; 67
    17ee:	33 32       	cpi	r19, 0x23	; 35
    17f0:	20 22       	and	r2, r16
    17f2:	6c 64       	ori	r22, 0x4C	; 76
    17f4:	22 00       	.word	0x0022	; ????
    17f6:	01 84       	ldd	r0, Z+9	; 0x09
    17f8:	03 53       	subi	r16, 0x33	; 51
    17fa:	43 4e       	sbci	r20, 0xE3	; 227
    17fc:	69 33       	cpi	r22, 0x39	; 57
    17fe:	32 20       	and	r3, r2
    1800:	22 6c       	ori	r18, 0xC2	; 194
    1802:	69 22       	and	r6, r25
    1804:	00 01       	movw	r0, r0
    1806:	87 03       	fmuls	r16, r23
    1808:	53 43       	sbci	r21, 0x33	; 51
    180a:	4e 69       	ori	r20, 0x9E	; 158
    180c:	4c 45       	sbci	r20, 0x5C	; 92
    180e:	41 53       	subi	r20, 0x31	; 49
    1810:	54 33       	cpi	r21, 0x34	; 52
    1812:	32 20       	and	r3, r2
    1814:	22 6c       	ori	r18, 0xC2	; 194
    1816:	69 22       	and	r6, r25
    1818:	00 01       	movw	r0, r0
    181a:	8a 03       	fmulsu	r16, r18
    181c:	53 43       	sbci	r21, 0x33	; 51
    181e:	4e 69       	ori	r20, 0x9E	; 158
    1820:	46 41       	sbci	r20, 0x16	; 22
    1822:	53 54       	subi	r21, 0x43	; 67
    1824:	33 32       	cpi	r19, 0x23	; 35
    1826:	20 22       	and	r2, r16
    1828:	6c 69       	ori	r22, 0x9C	; 156
    182a:	22 00       	.word	0x0022	; ????
    182c:	01 9e       	mul	r0, r17
    182e:	03 53       	subi	r16, 0x33	; 51
    1830:	43 4e       	sbci	r20, 0xE3	; 227
    1832:	64 50       	subi	r22, 0x04	; 4
    1834:	54 52       	subi	r21, 0x24	; 36
    1836:	20 53       	subi	r18, 0x30	; 48
    1838:	43 4e       	sbci	r20, 0xE3	; 227
    183a:	64 31       	cpi	r22, 0x14	; 20
    183c:	36 00       	.word	0x0036	; ????
    183e:	01 a1       	ldd	r16, Z+33	; 0x21
    1840:	03 53       	subi	r16, 0x33	; 51
    1842:	43 4e       	sbci	r20, 0xE3	; 227
    1844:	69 50       	subi	r22, 0x09	; 9
    1846:	54 52       	subi	r21, 0x24	; 36
    1848:	20 53       	subi	r18, 0x30	; 48
    184a:	43 4e       	sbci	r20, 0xE3	; 227
    184c:	69 31       	cpi	r22, 0x19	; 25
    184e:	36 00       	.word	0x0036	; ????
    1850:	01 b5       	in	r16, 0x21	; 33
    1852:	03 53       	subi	r16, 0x33	; 51
    1854:	43 4e       	sbci	r20, 0xE3	; 227
    1856:	6f 31       	cpi	r22, 0x1F	; 31
    1858:	36 20       	and	r3, r6
    185a:	22 6f       	ori	r18, 0xF2	; 242
    185c:	22 00       	.word	0x0022	; ????
    185e:	01 b8       	out	0x01, r0	; 1
    1860:	03 53       	subi	r16, 0x33	; 51
    1862:	43 4e       	sbci	r20, 0xE3	; 227
    1864:	6f 4c       	sbci	r22, 0xCF	; 207
    1866:	45 41       	sbci	r20, 0x15	; 21
    1868:	53 54       	subi	r21, 0x43	; 67
    186a:	31 36       	cpi	r19, 0x61	; 97
    186c:	20 22       	and	r2, r16
    186e:	6f 22       	and	r6, r31
    1870:	00 01       	movw	r0, r0
    1872:	bb 03       	fmulsu	r19, r19
    1874:	53 43       	sbci	r21, 0x33	; 51
    1876:	4e 6f       	ori	r20, 0xFE	; 254
    1878:	46 41       	sbci	r20, 0x16	; 22
    187a:	53 54       	subi	r21, 0x43	; 67
    187c:	31 36       	cpi	r19, 0x61	; 97
    187e:	20 22       	and	r2, r16
    1880:	6f 22       	and	r6, r31
    1882:	00 01       	movw	r0, r0
    1884:	bf 03       	fmulsu	r19, r23
    1886:	53 43       	sbci	r21, 0x33	; 51
    1888:	4e 75       	andi	r20, 0x5E	; 94
    188a:	31 36       	cpi	r19, 0x61	; 97
    188c:	20 22       	and	r2, r16
    188e:	75 22       	and	r7, r21
    1890:	00 01       	movw	r0, r0
    1892:	c2 03       	fmuls	r20, r18
    1894:	53 43       	sbci	r21, 0x33	; 51
    1896:	4e 75       	andi	r20, 0x5E	; 94
    1898:	4c 45       	sbci	r20, 0x5C	; 92
    189a:	41 53       	subi	r20, 0x31	; 49
    189c:	54 31       	cpi	r21, 0x14	; 20
    189e:	36 20       	and	r3, r6
    18a0:	22 75       	andi	r18, 0x52	; 82
    18a2:	22 00       	.word	0x0022	; ????
    18a4:	01 c5       	rjmp	.+2562   	; 0x22a8 <__data_load_end+0x15d4>
    18a6:	03 53       	subi	r16, 0x33	; 51
    18a8:	43 4e       	sbci	r20, 0xE3	; 227
    18aa:	75 46       	sbci	r23, 0x65	; 101
    18ac:	41 53       	subi	r20, 0x31	; 49
    18ae:	54 31       	cpi	r21, 0x14	; 20
    18b0:	36 20       	and	r3, r6
    18b2:	22 75       	andi	r18, 0x52	; 82
    18b4:	22 00       	.word	0x0022	; ????
    18b6:	01 c9       	rjmp	.-3582   	; 0xaba <__fpcmp_parts_f+0x36>
    18b8:	03 53       	subi	r16, 0x33	; 51
    18ba:	43 4e       	sbci	r20, 0xE3	; 227
    18bc:	78 31       	cpi	r23, 0x18	; 24
    18be:	36 20       	and	r3, r6
    18c0:	22 78       	andi	r18, 0x82	; 130
    18c2:	22 00       	.word	0x0022	; ????
    18c4:	01 cc       	rjmp	.-2046   	; 0x10c8 <__data_load_end+0x3f4>
    18c6:	03 53       	subi	r16, 0x33	; 51
    18c8:	43 4e       	sbci	r20, 0xE3	; 227
    18ca:	78 4c       	sbci	r23, 0xC8	; 200
    18cc:	45 41       	sbci	r20, 0x15	; 21
    18ce:	53 54       	subi	r21, 0x43	; 67
    18d0:	31 36       	cpi	r19, 0x61	; 97
    18d2:	20 22       	and	r2, r16
    18d4:	78 22       	and	r7, r24
    18d6:	00 01       	movw	r0, r0
    18d8:	cf 03       	fmulsu	r20, r23
    18da:	53 43       	sbci	r21, 0x33	; 51
    18dc:	4e 78       	andi	r20, 0x8E	; 142
    18de:	46 41       	sbci	r20, 0x16	; 22
    18e0:	53 54       	subi	r21, 0x43	; 67
    18e2:	31 36       	cpi	r19, 0x61	; 97
    18e4:	20 22       	and	r2, r16
    18e6:	78 22       	and	r7, r24
    18e8:	00 01       	movw	r0, r0
    18ea:	d4 03       	fmuls	r21, r20
    18ec:	53 43       	sbci	r21, 0x33	; 51
    18ee:	4e 6f       	ori	r20, 0xFE	; 254
    18f0:	33 32       	cpi	r19, 0x23	; 35
    18f2:	20 22       	and	r2, r16
    18f4:	6c 6f       	ori	r22, 0xFC	; 252
    18f6:	22 00       	.word	0x0022	; ????
    18f8:	01 d7       	rcall	.+3586   	; 0x26fc <__data_load_end+0x1a28>
    18fa:	03 53       	subi	r16, 0x33	; 51
    18fc:	43 4e       	sbci	r20, 0xE3	; 227
    18fe:	6f 4c       	sbci	r22, 0xCF	; 207
    1900:	45 41       	sbci	r20, 0x15	; 21
    1902:	53 54       	subi	r21, 0x43	; 67
    1904:	33 32       	cpi	r19, 0x23	; 35
    1906:	20 22       	and	r2, r16
    1908:	6c 6f       	ori	r22, 0xFC	; 252
    190a:	22 00       	.word	0x0022	; ????
    190c:	01 da       	rcall	.-3070   	; 0xd10 <__data_load_end+0x3c>
    190e:	03 53       	subi	r16, 0x33	; 51
    1910:	43 4e       	sbci	r20, 0xE3	; 227
    1912:	6f 46       	sbci	r22, 0x6F	; 111
    1914:	41 53       	subi	r20, 0x31	; 49
    1916:	54 33       	cpi	r21, 0x34	; 52
    1918:	32 20       	and	r3, r2
    191a:	22 6c       	ori	r18, 0xC2	; 194
    191c:	6f 22       	and	r6, r31
    191e:	00 01       	movw	r0, r0
    1920:	de 03       	fmulsu	r21, r22
    1922:	53 43       	sbci	r21, 0x33	; 51
    1924:	4e 75       	andi	r20, 0x5E	; 94
    1926:	33 32       	cpi	r19, 0x23	; 35
    1928:	20 22       	and	r2, r16
    192a:	6c 75       	andi	r22, 0x5C	; 92
    192c:	22 00       	.word	0x0022	; ????
    192e:	01 e1       	ldi	r16, 0x11	; 17
    1930:	03 53       	subi	r16, 0x33	; 51
    1932:	43 4e       	sbci	r20, 0xE3	; 227
    1934:	75 4c       	sbci	r23, 0xC5	; 197
    1936:	45 41       	sbci	r20, 0x15	; 21
    1938:	53 54       	subi	r21, 0x43	; 67
    193a:	33 32       	cpi	r19, 0x23	; 35
    193c:	20 22       	and	r2, r16
    193e:	6c 75       	andi	r22, 0x5C	; 92
    1940:	22 00       	.word	0x0022	; ????
    1942:	01 e4       	ldi	r16, 0x41	; 65
    1944:	03 53       	subi	r16, 0x33	; 51
    1946:	43 4e       	sbci	r20, 0xE3	; 227
    1948:	75 46       	sbci	r23, 0x65	; 101
    194a:	41 53       	subi	r20, 0x31	; 49
    194c:	54 33       	cpi	r21, 0x34	; 52
    194e:	32 20       	and	r3, r2
    1950:	22 6c       	ori	r18, 0xC2	; 194
    1952:	75 22       	and	r7, r21
    1954:	00 01       	movw	r0, r0
    1956:	e8 03       	fmulsu	r22, r16
    1958:	53 43       	sbci	r21, 0x33	; 51
    195a:	4e 78       	andi	r20, 0x8E	; 142
    195c:	33 32       	cpi	r19, 0x23	; 35
    195e:	20 22       	and	r2, r16
    1960:	6c 78       	andi	r22, 0x8C	; 140
    1962:	22 00       	.word	0x0022	; ????
    1964:	01 eb       	ldi	r16, 0xB1	; 177
    1966:	03 53       	subi	r16, 0x33	; 51
    1968:	43 4e       	sbci	r20, 0xE3	; 227
    196a:	78 4c       	sbci	r23, 0xC8	; 200
    196c:	45 41       	sbci	r20, 0x15	; 21
    196e:	53 54       	subi	r21, 0x43	; 67
    1970:	33 32       	cpi	r19, 0x23	; 35
    1972:	20 22       	and	r2, r16
    1974:	6c 78       	andi	r22, 0x8C	; 140
    1976:	22 00       	.word	0x0022	; ????
    1978:	01 ee       	ldi	r16, 0xE1	; 225
    197a:	03 53       	subi	r16, 0x33	; 51
    197c:	43 4e       	sbci	r20, 0xE3	; 227
    197e:	78 46       	sbci	r23, 0x68	; 104
    1980:	41 53       	subi	r20, 0x31	; 49
    1982:	54 33       	cpi	r21, 0x34	; 52
    1984:	32 20       	and	r3, r2
    1986:	22 6c       	ori	r18, 0xC2	; 194
    1988:	78 22       	and	r7, r24
    198a:	00 01       	movw	r0, r0
    198c:	87 04       	cpc	r8, r7
    198e:	53 43       	sbci	r21, 0x33	; 51
    1990:	4e 6f       	ori	r20, 0xFE	; 254
    1992:	50 54       	subi	r21, 0x40	; 64
    1994:	52 20       	and	r5, r2
    1996:	53 43       	sbci	r21, 0x33	; 51
    1998:	4e 6f       	ori	r20, 0xFE	; 254
    199a:	31 36       	cpi	r19, 0x61	; 97
    199c:	00 01       	movw	r0, r0
    199e:	8a 04       	cpc	r8, r10
    19a0:	53 43       	sbci	r21, 0x33	; 51
    19a2:	4e 75       	andi	r20, 0x5E	; 94
    19a4:	50 54       	subi	r21, 0x40	; 64
    19a6:	52 20       	and	r5, r2
    19a8:	53 43       	sbci	r21, 0x33	; 51
    19aa:	4e 75       	andi	r20, 0x5E	; 94
    19ac:	31 36       	cpi	r19, 0x61	; 97
    19ae:	00 01       	movw	r0, r0
    19b0:	8d 04       	cpc	r8, r13
    19b2:	53 43       	sbci	r21, 0x33	; 51
    19b4:	4e 78       	andi	r20, 0x8E	; 142
    19b6:	50 54       	subi	r21, 0x40	; 64
    19b8:	52 20       	and	r5, r2
    19ba:	53 43       	sbci	r21, 0x33	; 51
    19bc:	4e 78       	andi	r20, 0x8E	; 142
    19be:	31 36       	cpi	r19, 0x61	; 97
    19c0:	00 04       	cpc	r0, r0
    19c2:	03 27       	eor	r16, r19
    19c4:	05 01       	movw	r0, r10
    19c6:	23 5f       	subi	r18, 0xF3	; 243
    19c8:	55 54       	subi	r21, 0x45	; 69
    19ca:	49 4c       	sbci	r20, 0xC9	; 201
    19cc:	5f 44       	sbci	r21, 0x4F	; 79
    19ce:	45 4c       	sbci	r20, 0xC5	; 197
    19d0:	41 59       	subi	r20, 0x91	; 145
    19d2:	5f 42       	sbci	r21, 0x2F	; 47
    19d4:	41 53       	subi	r20, 0x31	; 49
    19d6:	49 43       	sbci	r20, 0x39	; 57
    19d8:	5f 48       	sbci	r21, 0x8F	; 143
    19da:	5f 20       	and	r5, r15
    19dc:	31 00       	.word	0x0031	; ????
    19de:	04 04       	cpc	r0, r4
    19e0:	03 0d       	add	r16, r3
    19e2:	06 01       	movw	r0, r12
    19e4:	61 5f       	subi	r22, 0xF1	; 241
    19e6:	41 56       	subi	r20, 0x61	; 97
    19e8:	52 5f       	subi	r21, 0xF2	; 242
    19ea:	49 4f       	sbci	r20, 0xF9	; 249
    19ec:	5f 48       	sbci	r21, 0x8F	; 143
    19ee:	5f 20       	and	r5, r15
    19f0:	00 03       	mulsu	r16, r16
    19f2:	63 07       	cpc	r22, r19
    19f4:	01 24       	eor	r0, r1
    19f6:	5f 41       	sbci	r21, 0x1F	; 31
    19f8:	56 52       	subi	r21, 0x26	; 38
    19fa:	5f 53       	subi	r21, 0x3F	; 63
    19fc:	46 52       	subi	r20, 0x26	; 38
    19fe:	5f 44       	sbci	r21, 0x4F	; 79
    1a00:	45 46       	sbci	r20, 0x65	; 101
    1a02:	53 5f       	subi	r21, 0xF3	; 243
    1a04:	48 5f       	subi	r20, 0xF8	; 248
    1a06:	20 31       	cpi	r18, 0x10	; 16
    1a08:	00 01       	movw	r0, r0
    1a0a:	79 5f       	subi	r23, 0xF9	; 249
    1a0c:	53 46       	sbci	r21, 0x63	; 99
    1a0e:	52 5f       	subi	r21, 0xF2	; 242
    1a10:	41 53       	subi	r20, 0x31	; 49
    1a12:	4d 5f       	subi	r20, 0xFD	; 253
    1a14:	43 4f       	sbci	r20, 0xF3	; 243
    1a16:	4d 50       	subi	r20, 0x0D	; 13
    1a18:	41 54       	subi	r20, 0x41	; 65
    1a1a:	20 30       	cpi	r18, 0x00	; 0
    1a1c:	00 01       	movw	r0, r0
    1a1e:	80 01       	movw	r16, r0
    1a20:	5f 4d       	sbci	r21, 0xDF	; 223
    1a22:	4d 49       	sbci	r20, 0x9D	; 157
    1a24:	4f 5f       	subi	r20, 0xFF	; 255
    1a26:	42 59       	subi	r20, 0x92	; 146
    1a28:	54 45       	sbci	r21, 0x54	; 84
    1a2a:	28 6d       	ori	r18, 0xD8	; 216
    1a2c:	65 6d       	ori	r22, 0xD5	; 213
    1a2e:	5f 61       	ori	r21, 0x1F	; 31
    1a30:	64 64       	ori	r22, 0x44	; 68
    1a32:	72 29       	or	r23, r2
    1a34:	20 28       	or	r2, r0
    1a36:	2a 28       	or	r2, r10
    1a38:	76 6f       	ori	r23, 0xF6	; 246
    1a3a:	6c 61       	ori	r22, 0x1C	; 28
    1a3c:	74 69       	ori	r23, 0x94	; 148
    1a3e:	6c 65       	ori	r22, 0x5C	; 92
    1a40:	20 75       	andi	r18, 0x50	; 80
    1a42:	69 6e       	ori	r22, 0xE9	; 233
    1a44:	74 38       	cpi	r23, 0x84	; 132
    1a46:	5f 74       	andi	r21, 0x4F	; 79
    1a48:	20 2a       	or	r2, r16
    1a4a:	29 28       	or	r2, r9
    1a4c:	6d 65       	ori	r22, 0x5D	; 93
    1a4e:	6d 5f       	subi	r22, 0xFD	; 253
    1a50:	61 64       	ori	r22, 0x41	; 65
    1a52:	64 72       	andi	r22, 0x24	; 36
    1a54:	29 29       	or	r18, r9
    1a56:	00 01       	movw	r0, r0
    1a58:	81 01       	movw	r16, r2
    1a5a:	5f 4d       	sbci	r21, 0xDF	; 223
    1a5c:	4d 49       	sbci	r20, 0x9D	; 157
    1a5e:	4f 5f       	subi	r20, 0xFF	; 255
    1a60:	57 4f       	sbci	r21, 0xF7	; 247
    1a62:	52 44       	sbci	r21, 0x42	; 66
    1a64:	28 6d       	ori	r18, 0xD8	; 216
    1a66:	65 6d       	ori	r22, 0xD5	; 213
    1a68:	5f 61       	ori	r21, 0x1F	; 31
    1a6a:	64 64       	ori	r22, 0x44	; 68
    1a6c:	72 29       	or	r23, r2
    1a6e:	20 28       	or	r2, r0
    1a70:	2a 28       	or	r2, r10
    1a72:	76 6f       	ori	r23, 0xF6	; 246
    1a74:	6c 61       	ori	r22, 0x1C	; 28
    1a76:	74 69       	ori	r23, 0x94	; 148
    1a78:	6c 65       	ori	r22, 0x5C	; 92
    1a7a:	20 75       	andi	r18, 0x50	; 80
    1a7c:	69 6e       	ori	r22, 0xE9	; 233
    1a7e:	74 31       	cpi	r23, 0x14	; 20
    1a80:	36 5f       	subi	r19, 0xF6	; 246
    1a82:	74 20       	and	r7, r4
    1a84:	2a 29       	or	r18, r10
    1a86:	28 6d       	ori	r18, 0xD8	; 216
    1a88:	65 6d       	ori	r22, 0xD5	; 213
    1a8a:	5f 61       	ori	r21, 0x1F	; 31
    1a8c:	64 64       	ori	r22, 0x44	; 68
    1a8e:	72 29       	or	r23, r2
    1a90:	29 00       	.word	0x0029	; ????
    1a92:	01 82       	std	Z+1, r0	; 0x01
    1a94:	01 5f       	subi	r16, 0xF1	; 241
    1a96:	4d 4d       	sbci	r20, 0xDD	; 221
    1a98:	49 4f       	sbci	r20, 0xF9	; 249
    1a9a:	5f 44       	sbci	r21, 0x4F	; 79
    1a9c:	57 4f       	sbci	r21, 0xF7	; 247
    1a9e:	52 44       	sbci	r21, 0x42	; 66
    1aa0:	28 6d       	ori	r18, 0xD8	; 216
    1aa2:	65 6d       	ori	r22, 0xD5	; 213
    1aa4:	5f 61       	ori	r21, 0x1F	; 31
    1aa6:	64 64       	ori	r22, 0x44	; 68
    1aa8:	72 29       	or	r23, r2
    1aaa:	20 28       	or	r2, r0
    1aac:	2a 28       	or	r2, r10
    1aae:	76 6f       	ori	r23, 0xF6	; 246
    1ab0:	6c 61       	ori	r22, 0x1C	; 28
    1ab2:	74 69       	ori	r23, 0x94	; 148
    1ab4:	6c 65       	ori	r22, 0x5C	; 92
    1ab6:	20 75       	andi	r18, 0x50	; 80
    1ab8:	69 6e       	ori	r22, 0xE9	; 233
    1aba:	74 33       	cpi	r23, 0x34	; 52
    1abc:	32 5f       	subi	r19, 0xF2	; 242
    1abe:	74 20       	and	r7, r4
    1ac0:	2a 29       	or	r18, r10
    1ac2:	28 6d       	ori	r18, 0xD8	; 216
    1ac4:	65 6d       	ori	r22, 0xD5	; 213
    1ac6:	5f 61       	ori	r21, 0x1F	; 31
    1ac8:	64 64       	ori	r22, 0x44	; 68
    1aca:	72 29       	or	r23, r2
    1acc:	29 00       	.word	0x0029	; ????
    1ace:	01 ac       	ldd	r0, Z+57	; 0x39
    1ad0:	01 5f       	subi	r16, 0xF1	; 241
    1ad2:	5f 53       	subi	r21, 0x3F	; 63
    1ad4:	46 52       	subi	r20, 0x26	; 38
    1ad6:	5f 4f       	sbci	r21, 0xFF	; 255
    1ad8:	46 46       	sbci	r20, 0x66	; 102
    1ada:	53 45       	sbci	r21, 0x53	; 83
    1adc:	54 20       	and	r5, r4
    1ade:	30 78       	andi	r19, 0x80	; 128
    1ae0:	32 30       	cpi	r19, 0x02	; 2
    1ae2:	00 01       	movw	r0, r0
    1ae4:	b0 01       	movw	r22, r0
    1ae6:	5f 53       	subi	r21, 0x3F	; 63
    1ae8:	46 52       	subi	r20, 0x26	; 38
    1aea:	5f 4d       	sbci	r21, 0xDF	; 223
    1aec:	45 4d       	sbci	r20, 0xD5	; 213
    1aee:	38 28       	or	r3, r8
    1af0:	6d 65       	ori	r22, 0x5D	; 93
    1af2:	6d 5f       	subi	r22, 0xFD	; 253
    1af4:	61 64       	ori	r22, 0x41	; 65
    1af6:	64 72       	andi	r22, 0x24	; 36
    1af8:	29 20       	and	r2, r9
    1afa:	5f 4d       	sbci	r21, 0xDF	; 223
    1afc:	4d 49       	sbci	r20, 0x9D	; 157
    1afe:	4f 5f       	subi	r20, 0xFF	; 255
    1b00:	42 59       	subi	r20, 0x92	; 146
    1b02:	54 45       	sbci	r21, 0x54	; 84
    1b04:	28 6d       	ori	r18, 0xD8	; 216
    1b06:	65 6d       	ori	r22, 0xD5	; 213
    1b08:	5f 61       	ori	r21, 0x1F	; 31
    1b0a:	64 64       	ori	r22, 0x44	; 68
    1b0c:	72 29       	or	r23, r2
    1b0e:	00 01       	movw	r0, r0
    1b10:	b1 01       	movw	r22, r2
    1b12:	5f 53       	subi	r21, 0x3F	; 63
    1b14:	46 52       	subi	r20, 0x26	; 38
    1b16:	5f 4d       	sbci	r21, 0xDF	; 223
    1b18:	45 4d       	sbci	r20, 0xD5	; 213
    1b1a:	31 36       	cpi	r19, 0x61	; 97
    1b1c:	28 6d       	ori	r18, 0xD8	; 216
    1b1e:	65 6d       	ori	r22, 0xD5	; 213
    1b20:	5f 61       	ori	r21, 0x1F	; 31
    1b22:	64 64       	ori	r22, 0x44	; 68
    1b24:	72 29       	or	r23, r2
    1b26:	20 5f       	subi	r18, 0xF0	; 240
    1b28:	4d 4d       	sbci	r20, 0xDD	; 221
    1b2a:	49 4f       	sbci	r20, 0xF9	; 249
    1b2c:	5f 57       	subi	r21, 0x7F	; 127
    1b2e:	4f 52       	subi	r20, 0x2F	; 47
    1b30:	44 28       	or	r4, r4
    1b32:	6d 65       	ori	r22, 0x5D	; 93
    1b34:	6d 5f       	subi	r22, 0xFD	; 253
    1b36:	61 64       	ori	r22, 0x41	; 65
    1b38:	64 72       	andi	r22, 0x24	; 36
    1b3a:	29 00       	.word	0x0029	; ????
    1b3c:	01 b2       	in	r0, 0x11	; 17
    1b3e:	01 5f       	subi	r16, 0xF1	; 241
    1b40:	53 46       	sbci	r21, 0x63	; 99
    1b42:	52 5f       	subi	r21, 0xF2	; 242
    1b44:	4d 45       	sbci	r20, 0x5D	; 93
    1b46:	4d 33       	cpi	r20, 0x3D	; 61
    1b48:	32 28       	or	r3, r2
    1b4a:	6d 65       	ori	r22, 0x5D	; 93
    1b4c:	6d 5f       	subi	r22, 0xFD	; 253
    1b4e:	61 64       	ori	r22, 0x41	; 65
    1b50:	64 72       	andi	r22, 0x24	; 36
    1b52:	29 20       	and	r2, r9
    1b54:	5f 4d       	sbci	r21, 0xDF	; 223
    1b56:	4d 49       	sbci	r20, 0x9D	; 157
    1b58:	4f 5f       	subi	r20, 0xFF	; 255
    1b5a:	44 57       	subi	r20, 0x74	; 116
    1b5c:	4f 52       	subi	r20, 0x2F	; 47
    1b5e:	44 28       	or	r4, r4
    1b60:	6d 65       	ori	r22, 0x5D	; 93
    1b62:	6d 5f       	subi	r22, 0xFD	; 253
    1b64:	61 64       	ori	r22, 0x41	; 65
    1b66:	64 72       	andi	r22, 0x24	; 36
    1b68:	29 00       	.word	0x0029	; ????
    1b6a:	01 b3       	in	r16, 0x11	; 17
    1b6c:	01 5f       	subi	r16, 0xF1	; 241
    1b6e:	53 46       	sbci	r21, 0x63	; 99
    1b70:	52 5f       	subi	r21, 0xF2	; 242
    1b72:	49 4f       	sbci	r20, 0xF9	; 249
    1b74:	38 28       	or	r3, r8
    1b76:	69 6f       	ori	r22, 0xF9	; 249
    1b78:	5f 61       	ori	r21, 0x1F	; 31
    1b7a:	64 64       	ori	r22, 0x44	; 68
    1b7c:	72 29       	or	r23, r2
    1b7e:	20 5f       	subi	r18, 0xF0	; 240
    1b80:	4d 4d       	sbci	r20, 0xDD	; 221
    1b82:	49 4f       	sbci	r20, 0xF9	; 249
    1b84:	5f 42       	sbci	r21, 0x2F	; 47
    1b86:	59 54       	subi	r21, 0x49	; 73
    1b88:	45 28       	or	r4, r5
    1b8a:	28 69       	ori	r18, 0x98	; 152
    1b8c:	6f 5f       	subi	r22, 0xFF	; 255
    1b8e:	61 64       	ori	r22, 0x41	; 65
    1b90:	64 72       	andi	r22, 0x24	; 36
    1b92:	29 20       	and	r2, r9
    1b94:	2b 20       	and	r2, r11
    1b96:	5f 5f       	subi	r21, 0xFF	; 255
    1b98:	53 46       	sbci	r21, 0x63	; 99
    1b9a:	52 5f       	subi	r21, 0xF2	; 242
    1b9c:	4f 46       	sbci	r20, 0x6F	; 111
    1b9e:	46 53       	subi	r20, 0x36	; 54
    1ba0:	45 54       	subi	r20, 0x45	; 69
    1ba2:	29 00       	.word	0x0029	; ????
    1ba4:	01 b4       	in	r0, 0x21	; 33
    1ba6:	01 5f       	subi	r16, 0xF1	; 241
    1ba8:	53 46       	sbci	r21, 0x63	; 99
    1baa:	52 5f       	subi	r21, 0xF2	; 242
    1bac:	49 4f       	sbci	r20, 0xF9	; 249
    1bae:	31 36       	cpi	r19, 0x61	; 97
    1bb0:	28 69       	ori	r18, 0x98	; 152
    1bb2:	6f 5f       	subi	r22, 0xFF	; 255
    1bb4:	61 64       	ori	r22, 0x41	; 65
    1bb6:	64 72       	andi	r22, 0x24	; 36
    1bb8:	29 20       	and	r2, r9
    1bba:	5f 4d       	sbci	r21, 0xDF	; 223
    1bbc:	4d 49       	sbci	r20, 0x9D	; 157
    1bbe:	4f 5f       	subi	r20, 0xFF	; 255
    1bc0:	57 4f       	sbci	r21, 0xF7	; 247
    1bc2:	52 44       	sbci	r21, 0x42	; 66
    1bc4:	28 28       	or	r2, r8
    1bc6:	69 6f       	ori	r22, 0xF9	; 249
    1bc8:	5f 61       	ori	r21, 0x1F	; 31
    1bca:	64 64       	ori	r22, 0x44	; 68
    1bcc:	72 29       	or	r23, r2
    1bce:	20 2b       	or	r18, r16
    1bd0:	20 5f       	subi	r18, 0xF0	; 240
    1bd2:	5f 53       	subi	r21, 0x3F	; 63
    1bd4:	46 52       	subi	r20, 0x26	; 38
    1bd6:	5f 4f       	sbci	r21, 0xFF	; 255
    1bd8:	46 46       	sbci	r20, 0x66	; 102
    1bda:	53 45       	sbci	r21, 0x53	; 83
    1bdc:	54 29       	or	r21, r4
    1bde:	00 01       	movw	r0, r0
    1be0:	b6 01       	movw	r22, r12
    1be2:	5f 53       	subi	r21, 0x3F	; 63
    1be4:	46 52       	subi	r20, 0x26	; 38
    1be6:	5f 4d       	sbci	r21, 0xDF	; 223
    1be8:	45 4d       	sbci	r20, 0xD5	; 213
    1bea:	5f 41       	sbci	r21, 0x1F	; 31
    1bec:	44 44       	sbci	r20, 0x44	; 68
    1bee:	52 28       	or	r5, r2
    1bf0:	73 66       	ori	r23, 0x63	; 99
    1bf2:	72 29       	or	r23, r2
    1bf4:	20 28       	or	r2, r0
    1bf6:	28 75       	andi	r18, 0x58	; 88
    1bf8:	69 6e       	ori	r22, 0xE9	; 233
    1bfa:	74 31       	cpi	r23, 0x14	; 20
    1bfc:	36 5f       	subi	r19, 0xF6	; 246
    1bfe:	74 29       	or	r23, r4
    1c00:	20 26       	eor	r2, r16
    1c02:	28 73       	andi	r18, 0x38	; 56
    1c04:	66 72       	andi	r22, 0x26	; 38
    1c06:	29 29       	or	r18, r9
    1c08:	00 01       	movw	r0, r0
    1c0a:	b7 01       	movw	r22, r14
    1c0c:	5f 53       	subi	r21, 0x3F	; 63
    1c0e:	46 52       	subi	r20, 0x26	; 38
    1c10:	5f 49       	sbci	r21, 0x9F	; 159
    1c12:	4f 5f       	subi	r20, 0xFF	; 255
    1c14:	41 44       	sbci	r20, 0x41	; 65
    1c16:	44 52       	subi	r20, 0x24	; 36
    1c18:	28 73       	andi	r18, 0x38	; 56
    1c1a:	66 72       	andi	r22, 0x26	; 38
    1c1c:	29 20       	and	r2, r9
    1c1e:	28 5f       	subi	r18, 0xF8	; 248
    1c20:	53 46       	sbci	r21, 0x63	; 99
    1c22:	52 5f       	subi	r21, 0xF2	; 242
    1c24:	4d 45       	sbci	r20, 0x5D	; 93
    1c26:	4d 5f       	subi	r20, 0xFD	; 253
    1c28:	41 44       	sbci	r20, 0x41	; 65
    1c2a:	44 52       	subi	r20, 0x24	; 36
    1c2c:	28 73       	andi	r18, 0x38	; 56
    1c2e:	66 72       	andi	r22, 0x26	; 38
    1c30:	29 20       	and	r2, r9
    1c32:	2d 20       	and	r2, r13
    1c34:	5f 5f       	subi	r21, 0xFF	; 255
    1c36:	53 46       	sbci	r21, 0x63	; 99
    1c38:	52 5f       	subi	r21, 0xF2	; 242
    1c3a:	4f 46       	sbci	r20, 0x6F	; 111
    1c3c:	46 53       	subi	r20, 0x36	; 54
    1c3e:	45 54       	subi	r20, 0x45	; 69
    1c40:	29 00       	.word	0x0029	; ????
    1c42:	01 b8       	out	0x01, r0	; 1
    1c44:	01 5f       	subi	r16, 0xF1	; 241
    1c46:	53 46       	sbci	r21, 0x63	; 99
    1c48:	52 5f       	subi	r21, 0xF2	; 242
    1c4a:	49 4f       	sbci	r20, 0xF9	; 249
    1c4c:	5f 52       	subi	r21, 0x2F	; 47
    1c4e:	45 47       	sbci	r20, 0x75	; 117
    1c50:	5f 50       	subi	r21, 0x0F	; 15
    1c52:	28 73       	andi	r18, 0x38	; 56
    1c54:	66 72       	andi	r22, 0x26	; 38
    1c56:	29 20       	and	r2, r9
    1c58:	28 5f       	subi	r18, 0xF8	; 248
    1c5a:	53 46       	sbci	r21, 0x63	; 99
    1c5c:	52 5f       	subi	r21, 0xF2	; 242
    1c5e:	4d 45       	sbci	r20, 0x5D	; 93
    1c60:	4d 5f       	subi	r20, 0xFD	; 253
    1c62:	41 44       	sbci	r20, 0x41	; 65
    1c64:	44 52       	subi	r20, 0x24	; 36
    1c66:	28 73       	andi	r18, 0x38	; 56
    1c68:	66 72       	andi	r22, 0x26	; 38
    1c6a:	29 20       	and	r2, r9
    1c6c:	3c 20       	and	r3, r12
    1c6e:	30 78       	andi	r19, 0x80	; 128
    1c70:	34 30       	cpi	r19, 0x04	; 4
    1c72:	20 2b       	or	r18, r16
    1c74:	20 5f       	subi	r18, 0xF0	; 240
    1c76:	5f 53       	subi	r21, 0x3F	; 63
    1c78:	46 52       	subi	r20, 0x26	; 38
    1c7a:	5f 4f       	sbci	r21, 0xFF	; 255
    1c7c:	46 46       	sbci	r20, 0x66	; 102
    1c7e:	53 45       	sbci	r21, 0x53	; 83
    1c80:	54 29       	or	r21, r4
    1c82:	00 01       	movw	r0, r0
    1c84:	ba 01       	movw	r22, r20
    1c86:	5f 53       	subi	r21, 0x3F	; 63
    1c88:	46 52       	subi	r20, 0x26	; 38
    1c8a:	5f 41       	sbci	r21, 0x1F	; 31
    1c8c:	44 44       	sbci	r20, 0x44	; 68
    1c8e:	52 28       	or	r5, r2
    1c90:	73 66       	ori	r23, 0x63	; 99
    1c92:	72 29       	or	r23, r2
    1c94:	20 5f       	subi	r18, 0xF0	; 240
    1c96:	53 46       	sbci	r21, 0x63	; 99
    1c98:	52 5f       	subi	r21, 0xF2	; 242
    1c9a:	4d 45       	sbci	r20, 0x5D	; 93
    1c9c:	4d 5f       	subi	r20, 0xFD	; 253
    1c9e:	41 44       	sbci	r20, 0x41	; 65
    1ca0:	44 52       	subi	r20, 0x24	; 36
    1ca2:	28 73       	andi	r18, 0x38	; 56
    1ca4:	66 72       	andi	r22, 0x26	; 38
    1ca6:	29 00       	.word	0x0029	; ????
    1ca8:	01 be       	out	0x31, r0	; 49
    1caa:	01 5f       	subi	r16, 0xF1	; 241
    1cac:	53 46       	sbci	r21, 0x63	; 99
    1cae:	52 5f       	subi	r21, 0xF2	; 242
    1cb0:	42 59       	subi	r20, 0x92	; 146
    1cb2:	54 45       	sbci	r21, 0x54	; 84
    1cb4:	28 73       	andi	r18, 0x38	; 56
    1cb6:	66 72       	andi	r22, 0x26	; 38
    1cb8:	29 20       	and	r2, r9
    1cba:	5f 4d       	sbci	r21, 0xDF	; 223
    1cbc:	4d 49       	sbci	r20, 0x9D	; 157
    1cbe:	4f 5f       	subi	r20, 0xFF	; 255
    1cc0:	42 59       	subi	r20, 0x92	; 146
    1cc2:	54 45       	sbci	r21, 0x54	; 84
    1cc4:	28 5f       	subi	r18, 0xF8	; 248
    1cc6:	53 46       	sbci	r21, 0x63	; 99
    1cc8:	52 5f       	subi	r21, 0xF2	; 242
    1cca:	41 44       	sbci	r20, 0x41	; 65
    1ccc:	44 52       	subi	r20, 0x24	; 36
    1cce:	28 73       	andi	r18, 0x38	; 56
    1cd0:	66 72       	andi	r22, 0x26	; 38
    1cd2:	29 29       	or	r18, r9
    1cd4:	00 01       	movw	r0, r0
    1cd6:	bf 01       	movw	r22, r30
    1cd8:	5f 53       	subi	r21, 0x3F	; 63
    1cda:	46 52       	subi	r20, 0x26	; 38
    1cdc:	5f 57       	subi	r21, 0x7F	; 127
    1cde:	4f 52       	subi	r20, 0x2F	; 47
    1ce0:	44 28       	or	r4, r4
    1ce2:	73 66       	ori	r23, 0x63	; 99
    1ce4:	72 29       	or	r23, r2
    1ce6:	20 5f       	subi	r18, 0xF0	; 240
    1ce8:	4d 4d       	sbci	r20, 0xDD	; 221
    1cea:	49 4f       	sbci	r20, 0xF9	; 249
    1cec:	5f 57       	subi	r21, 0x7F	; 127
    1cee:	4f 52       	subi	r20, 0x2F	; 47
    1cf0:	44 28       	or	r4, r4
    1cf2:	5f 53       	subi	r21, 0x3F	; 63
    1cf4:	46 52       	subi	r20, 0x26	; 38
    1cf6:	5f 41       	sbci	r21, 0x1F	; 31
    1cf8:	44 44       	sbci	r20, 0x44	; 68
    1cfa:	52 28       	or	r5, r2
    1cfc:	73 66       	ori	r23, 0x63	; 99
    1cfe:	72 29       	or	r23, r2
    1d00:	29 00       	.word	0x0029	; ????
    1d02:	01 c0       	rjmp	.+2      	; 0x1d06 <__data_load_end+0x1032>
    1d04:	01 5f       	subi	r16, 0xF1	; 241
    1d06:	53 46       	sbci	r21, 0x63	; 99
    1d08:	52 5f       	subi	r21, 0xF2	; 242
    1d0a:	44 57       	subi	r20, 0x74	; 116
    1d0c:	4f 52       	subi	r20, 0x2F	; 47
    1d0e:	44 28       	or	r4, r4
    1d10:	73 66       	ori	r23, 0x63	; 99
    1d12:	72 29       	or	r23, r2
    1d14:	20 5f       	subi	r18, 0xF0	; 240
    1d16:	4d 4d       	sbci	r20, 0xDD	; 221
    1d18:	49 4f       	sbci	r20, 0xF9	; 249
    1d1a:	5f 44       	sbci	r21, 0x4F	; 79
    1d1c:	57 4f       	sbci	r21, 0xF7	; 247
    1d1e:	52 44       	sbci	r21, 0x42	; 66
    1d20:	28 5f       	subi	r18, 0xF8	; 248
    1d22:	53 46       	sbci	r21, 0x63	; 99
    1d24:	52 5f       	subi	r21, 0xF2	; 242
    1d26:	41 44       	sbci	r20, 0x41	; 65
    1d28:	44 52       	subi	r20, 0x24	; 36
    1d2a:	28 73       	andi	r18, 0x38	; 56
    1d2c:	66 72       	andi	r22, 0x26	; 38
    1d2e:	29 29       	or	r18, r9
    1d30:	00 01       	movw	r0, r0
    1d32:	d0 01       	movw	r26, r0
    1d34:	5f 42       	sbci	r21, 0x2F	; 47
    1d36:	56 28       	or	r5, r6
    1d38:	62 69       	ori	r22, 0x92	; 146
    1d3a:	74 29       	or	r23, r4
    1d3c:	20 28       	or	r2, r0
    1d3e:	31 20       	and	r3, r1
    1d40:	3c 3c       	cpi	r19, 0xCC	; 204
    1d42:	20 28       	or	r2, r0
    1d44:	62 69       	ori	r22, 0x92	; 146
    1d46:	74 29       	or	r23, r4
    1d48:	29 00       	.word	0x0029	; ????
    1d4a:	01 d5       	rcall	.+2562   	; 0x274e <__data_load_end+0x1a7a>
    1d4c:	01 5f       	subi	r16, 0xF1	; 241
    1d4e:	56 45       	sbci	r21, 0x56	; 86
    1d50:	43 54       	subi	r20, 0x43	; 67
    1d52:	4f 52       	subi	r20, 0x2F	; 47
    1d54:	28 4e       	sbci	r18, 0xE8	; 232
    1d56:	29 20       	and	r2, r9
    1d58:	5f 5f       	subi	r21, 0xFF	; 255
    1d5a:	76 65       	ori	r23, 0x56	; 86
    1d5c:	63 74       	andi	r22, 0x43	; 67
    1d5e:	6f 72       	andi	r22, 0x2F	; 47
    1d60:	5f 20       	and	r5, r15
    1d62:	23 23       	and	r18, r19
    1d64:	20 4e       	sbci	r18, 0xE0	; 224
    1d66:	00 01       	movw	r0, r0
    1d68:	ea 01       	movw	r28, r20
    1d6a:	62 69       	ori	r22, 0x92	; 146
    1d6c:	74 5f       	subi	r23, 0xF4	; 244
    1d6e:	69 73       	andi	r22, 0x39	; 57
    1d70:	5f 73       	andi	r21, 0x3F	; 63
    1d72:	65 74       	andi	r22, 0x45	; 69
    1d74:	28 73       	andi	r18, 0x38	; 56
    1d76:	66 72       	andi	r22, 0x26	; 38
    1d78:	2c 62       	ori	r18, 0x2C	; 44
    1d7a:	69 74       	andi	r22, 0x49	; 73
    1d7c:	29 20       	and	r2, r9
    1d7e:	28 5f       	subi	r18, 0xF8	; 248
    1d80:	53 46       	sbci	r21, 0x63	; 99
    1d82:	52 5f       	subi	r21, 0xF2	; 242
    1d84:	42 59       	subi	r20, 0x92	; 146
    1d86:	54 45       	sbci	r21, 0x54	; 84
    1d88:	28 73       	andi	r18, 0x38	; 56
    1d8a:	66 72       	andi	r22, 0x26	; 38
    1d8c:	29 20       	and	r2, r9
    1d8e:	26 20       	and	r2, r6
    1d90:	5f 42       	sbci	r21, 0x2F	; 47
    1d92:	56 28       	or	r5, r6
    1d94:	62 69       	ori	r22, 0x92	; 146
    1d96:	74 29       	or	r23, r4
    1d98:	29 00       	.word	0x0029	; ????
    1d9a:	01 f5       	brne	.+64     	; 0x1ddc <__data_load_end+0x1108>
    1d9c:	01 62       	ori	r16, 0x21	; 33
    1d9e:	69 74       	andi	r22, 0x49	; 73
    1da0:	5f 69       	ori	r21, 0x9F	; 159
    1da2:	73 5f       	subi	r23, 0xF3	; 243
    1da4:	63 6c       	ori	r22, 0xC3	; 195
    1da6:	65 61       	ori	r22, 0x15	; 21
    1da8:	72 28       	or	r7, r2
    1daa:	73 66       	ori	r23, 0x63	; 99
    1dac:	72 2c       	mov	r7, r2
    1dae:	62 69       	ori	r22, 0x92	; 146
    1db0:	74 29       	or	r23, r4
    1db2:	20 28       	or	r2, r0
    1db4:	21 28       	or	r2, r1
    1db6:	5f 53       	subi	r21, 0x3F	; 63
    1db8:	46 52       	subi	r20, 0x26	; 38
    1dba:	5f 42       	sbci	r21, 0x2F	; 47
    1dbc:	59 54       	subi	r21, 0x49	; 73
    1dbe:	45 28       	or	r4, r5
    1dc0:	73 66       	ori	r23, 0x63	; 99
    1dc2:	72 29       	or	r23, r2
    1dc4:	20 26       	eor	r2, r16
    1dc6:	20 5f       	subi	r18, 0xF0	; 240
    1dc8:	42 56       	subi	r20, 0x62	; 98
    1dca:	28 62       	ori	r18, 0x28	; 40
    1dcc:	69 74       	andi	r22, 0x49	; 73
    1dce:	29 29       	or	r18, r9
    1dd0:	29 00       	.word	0x0029	; ????
    1dd2:	01 fe       	sbrs	r0, 1
    1dd4:	01 6c       	ori	r16, 0xC1	; 193
    1dd6:	6f 6f       	ori	r22, 0xFF	; 255
    1dd8:	70 5f       	subi	r23, 0xF0	; 240
    1dda:	75 6e       	ori	r23, 0xE5	; 229
    1ddc:	74 69       	ori	r23, 0x94	; 148
    1dde:	6c 5f       	subi	r22, 0xFC	; 252
    1de0:	62 69       	ori	r22, 0x92	; 146
    1de2:	74 5f       	subi	r23, 0xF4	; 244
    1de4:	69 73       	andi	r22, 0x39	; 57
    1de6:	5f 73       	andi	r21, 0x3F	; 63
    1de8:	65 74       	andi	r22, 0x45	; 69
    1dea:	28 73       	andi	r18, 0x38	; 56
    1dec:	66 72       	andi	r22, 0x26	; 38
    1dee:	2c 62       	ori	r18, 0x2C	; 44
    1df0:	69 74       	andi	r22, 0x49	; 73
    1df2:	29 20       	and	r2, r9
    1df4:	64 6f       	ori	r22, 0xF4	; 244
    1df6:	20 7b       	andi	r18, 0xB0	; 176
    1df8:	20 7d       	andi	r18, 0xD0	; 208
    1dfa:	20 77       	andi	r18, 0x70	; 112
    1dfc:	68 69       	ori	r22, 0x98	; 152
    1dfe:	6c 65       	ori	r22, 0x5C	; 92
    1e00:	20 28       	or	r2, r0
    1e02:	62 69       	ori	r22, 0x92	; 146
    1e04:	74 5f       	subi	r23, 0xF4	; 244
    1e06:	69 73       	andi	r22, 0x39	; 57
    1e08:	5f 63       	ori	r21, 0x3F	; 63
    1e0a:	6c 65       	ori	r22, 0x5C	; 92
    1e0c:	61 72       	andi	r22, 0x21	; 33
    1e0e:	28 73       	andi	r18, 0x38	; 56
    1e10:	66 72       	andi	r22, 0x26	; 38
    1e12:	2c 20       	and	r2, r12
    1e14:	62 69       	ori	r22, 0x92	; 146
    1e16:	74 29       	or	r23, r4
    1e18:	29 00       	.word	0x0029	; ????
    1e1a:	01 87       	std	Z+9, r16	; 0x09
    1e1c:	02 6c       	ori	r16, 0xC2	; 194
    1e1e:	6f 6f       	ori	r22, 0xFF	; 255
    1e20:	70 5f       	subi	r23, 0xF0	; 240
    1e22:	75 6e       	ori	r23, 0xE5	; 229
    1e24:	74 69       	ori	r23, 0x94	; 148
    1e26:	6c 5f       	subi	r22, 0xFC	; 252
    1e28:	62 69       	ori	r22, 0x92	; 146
    1e2a:	74 5f       	subi	r23, 0xF4	; 244
    1e2c:	69 73       	andi	r22, 0x39	; 57
    1e2e:	5f 63       	ori	r21, 0x3F	; 63
    1e30:	6c 65       	ori	r22, 0x5C	; 92
    1e32:	61 72       	andi	r22, 0x21	; 33
    1e34:	28 73       	andi	r18, 0x38	; 56
    1e36:	66 72       	andi	r22, 0x26	; 38
    1e38:	2c 62       	ori	r18, 0x2C	; 44
    1e3a:	69 74       	andi	r22, 0x49	; 73
    1e3c:	29 20       	and	r2, r9
    1e3e:	64 6f       	ori	r22, 0xF4	; 244
    1e40:	20 7b       	andi	r18, 0xB0	; 176
    1e42:	20 7d       	andi	r18, 0xD0	; 208
    1e44:	20 77       	andi	r18, 0x70	; 112
    1e46:	68 69       	ori	r22, 0x98	; 152
    1e48:	6c 65       	ori	r22, 0x5C	; 92
    1e4a:	20 28       	or	r2, r0
    1e4c:	62 69       	ori	r22, 0x92	; 146
    1e4e:	74 5f       	subi	r23, 0xF4	; 244
    1e50:	69 73       	andi	r22, 0x39	; 57
    1e52:	5f 73       	andi	r21, 0x3F	; 63
    1e54:	65 74       	andi	r22, 0x45	; 69
    1e56:	28 73       	andi	r18, 0x38	; 56
    1e58:	66 72       	andi	r22, 0x26	; 38
    1e5a:	2c 20       	and	r2, r12
    1e5c:	62 69       	ori	r22, 0x92	; 146
    1e5e:	74 29       	or	r23, r4
    1e60:	29 00       	.word	0x0029	; ????
    1e62:	04 03       	mulsu	r16, r20
    1e64:	ce 01       	movw	r24, r28
    1e66:	08 01       	movw	r0, r16
    1e68:	24 5f       	subi	r18, 0xF4	; 244
    1e6a:	41 56       	subi	r20, 0x61	; 97
    1e6c:	52 5f       	subi	r21, 0xF2	; 242
    1e6e:	49 4f       	sbci	r20, 0xF9	; 249
    1e70:	4d 33       	cpi	r20, 0x3D	; 61
    1e72:	32 5f       	subi	r19, 0xF2	; 242
    1e74:	48 5f       	subi	r20, 0xF8	; 248
    1e76:	20 31       	cpi	r18, 0x10	; 16
    1e78:	00 01       	movw	r0, r0
    1e7a:	2d 5f       	subi	r18, 0xFD	; 253
    1e7c:	41 56       	subi	r20, 0x61	; 97
    1e7e:	52 5f       	subi	r21, 0xF2	; 242
    1e80:	49 4f       	sbci	r20, 0xF9	; 249
    1e82:	58 58       	subi	r21, 0x88	; 136
    1e84:	58 5f       	subi	r21, 0xF8	; 248
    1e86:	48 5f       	subi	r20, 0xF8	; 248
    1e88:	20 22       	and	r2, r16
    1e8a:	69 6f       	ori	r22, 0xF9	; 249
    1e8c:	6d 33       	cpi	r22, 0x3D	; 61
    1e8e:	32 2e       	mov	r3, r18
    1e90:	68 22       	and	r6, r24
    1e92:	00 01       	movw	r0, r0
    1e94:	35 54       	subi	r19, 0x45	; 69
    1e96:	57 42       	sbci	r21, 0x27	; 39
    1e98:	52 20       	and	r5, r2
    1e9a:	5f 53       	subi	r21, 0x3F	; 63
    1e9c:	46 52       	subi	r20, 0x26	; 38
    1e9e:	5f 49       	sbci	r21, 0x9F	; 159
    1ea0:	4f 38       	cpi	r20, 0x8F	; 143
    1ea2:	28 30       	cpi	r18, 0x08	; 8
    1ea4:	78 30       	cpi	r23, 0x08	; 8
    1ea6:	30 29       	or	r19, r0
    1ea8:	00 01       	movw	r0, r0
    1eaa:	36 54       	subi	r19, 0x46	; 70
    1eac:	57 53       	subi	r21, 0x37	; 55
    1eae:	52 20       	and	r5, r2
    1eb0:	5f 53       	subi	r21, 0x3F	; 63
    1eb2:	46 52       	subi	r20, 0x26	; 38
    1eb4:	5f 49       	sbci	r21, 0x9F	; 159
    1eb6:	4f 38       	cpi	r20, 0x8F	; 143
    1eb8:	28 30       	cpi	r18, 0x08	; 8
    1eba:	78 30       	cpi	r23, 0x08	; 8
    1ebc:	31 29       	or	r19, r1
    1ebe:	00 01       	movw	r0, r0
    1ec0:	37 54       	subi	r19, 0x47	; 71
    1ec2:	57 41       	sbci	r21, 0x17	; 23
    1ec4:	52 20       	and	r5, r2
    1ec6:	5f 53       	subi	r21, 0x3F	; 63
    1ec8:	46 52       	subi	r20, 0x26	; 38
    1eca:	5f 49       	sbci	r21, 0x9F	; 159
    1ecc:	4f 38       	cpi	r20, 0x8F	; 143
    1ece:	28 30       	cpi	r18, 0x08	; 8
    1ed0:	78 30       	cpi	r23, 0x08	; 8
    1ed2:	32 29       	or	r19, r2
    1ed4:	00 01       	movw	r0, r0
    1ed6:	38 54       	subi	r19, 0x48	; 72
    1ed8:	57 44       	sbci	r21, 0x47	; 71
    1eda:	52 20       	and	r5, r2
    1edc:	5f 53       	subi	r21, 0x3F	; 63
    1ede:	46 52       	subi	r20, 0x26	; 38
    1ee0:	5f 49       	sbci	r21, 0x9F	; 159
    1ee2:	4f 38       	cpi	r20, 0x8F	; 143
    1ee4:	28 30       	cpi	r18, 0x08	; 8
    1ee6:	78 30       	cpi	r23, 0x08	; 8
    1ee8:	33 29       	or	r19, r3
    1eea:	00 01       	movw	r0, r0
    1eec:	3c 41       	sbci	r19, 0x1C	; 28
    1eee:	44 43       	sbci	r20, 0x34	; 52
    1ef0:	20 5f       	subi	r18, 0xF0	; 240
    1ef2:	53 46       	sbci	r21, 0x63	; 99
    1ef4:	52 5f       	subi	r21, 0xF2	; 242
    1ef6:	49 4f       	sbci	r20, 0xF9	; 249
    1ef8:	31 36       	cpi	r19, 0x61	; 97
    1efa:	28 30       	cpi	r18, 0x08	; 8
    1efc:	78 30       	cpi	r23, 0x08	; 8
    1efe:	34 29       	or	r19, r4
    1f00:	00 01       	movw	r0, r0
    1f02:	3e 41       	sbci	r19, 0x1E	; 30
    1f04:	44 43       	sbci	r20, 0x34	; 52
    1f06:	57 20       	and	r5, r7
    1f08:	5f 53       	subi	r21, 0x3F	; 63
    1f0a:	46 52       	subi	r20, 0x26	; 38
    1f0c:	5f 49       	sbci	r21, 0x9F	; 159
    1f0e:	4f 31       	cpi	r20, 0x1F	; 31
    1f10:	36 28       	or	r3, r6
    1f12:	30 78       	andi	r19, 0x80	; 128
    1f14:	30 34       	cpi	r19, 0x40	; 64
    1f16:	29 00       	.word	0x0029	; ????
    1f18:	01 3f       	cpi	r16, 0xF1	; 241
    1f1a:	41 44       	sbci	r20, 0x41	; 65
    1f1c:	43 4c       	sbci	r20, 0xC3	; 195
    1f1e:	20 5f       	subi	r18, 0xF0	; 240
    1f20:	53 46       	sbci	r21, 0x63	; 99
    1f22:	52 5f       	subi	r21, 0xF2	; 242
    1f24:	49 4f       	sbci	r20, 0xF9	; 249
    1f26:	38 28       	or	r3, r8
    1f28:	30 78       	andi	r19, 0x80	; 128
    1f2a:	30 34       	cpi	r19, 0x40	; 64
    1f2c:	29 00       	.word	0x0029	; ????
    1f2e:	01 40       	sbci	r16, 0x01	; 1
    1f30:	41 44       	sbci	r20, 0x41	; 65
    1f32:	43 48       	sbci	r20, 0x83	; 131
    1f34:	20 5f       	subi	r18, 0xF0	; 240
    1f36:	53 46       	sbci	r21, 0x63	; 99
    1f38:	52 5f       	subi	r21, 0xF2	; 242
    1f3a:	49 4f       	sbci	r20, 0xF9	; 249
    1f3c:	38 28       	or	r3, r8
    1f3e:	30 78       	andi	r19, 0x80	; 128
    1f40:	30 35       	cpi	r19, 0x50	; 80
    1f42:	29 00       	.word	0x0029	; ????
    1f44:	01 41       	sbci	r16, 0x11	; 17
    1f46:	41 44       	sbci	r20, 0x41	; 65
    1f48:	43 53       	subi	r20, 0x33	; 51
    1f4a:	52 41       	sbci	r21, 0x12	; 18
    1f4c:	20 5f       	subi	r18, 0xF0	; 240
    1f4e:	53 46       	sbci	r21, 0x63	; 99
    1f50:	52 5f       	subi	r21, 0xF2	; 242
    1f52:	49 4f       	sbci	r20, 0xF9	; 249
    1f54:	38 28       	or	r3, r8
    1f56:	30 78       	andi	r19, 0x80	; 128
    1f58:	30 36       	cpi	r19, 0x60	; 96
    1f5a:	29 00       	.word	0x0029	; ????
    1f5c:	01 42       	sbci	r16, 0x21	; 33
    1f5e:	41 44       	sbci	r20, 0x41	; 65
    1f60:	4d 55       	subi	r20, 0x5D	; 93
    1f62:	58 20       	and	r5, r8
    1f64:	5f 53       	subi	r21, 0x3F	; 63
    1f66:	46 52       	subi	r20, 0x26	; 38
    1f68:	5f 49       	sbci	r21, 0x9F	; 159
    1f6a:	4f 38       	cpi	r20, 0x8F	; 143
    1f6c:	28 30       	cpi	r18, 0x08	; 8
    1f6e:	78 30       	cpi	r23, 0x08	; 8
    1f70:	37 29       	or	r19, r7
    1f72:	00 01       	movw	r0, r0
    1f74:	45 41       	sbci	r20, 0x15	; 21
    1f76:	43 53       	subi	r20, 0x33	; 51
    1f78:	52 20       	and	r5, r2
    1f7a:	5f 53       	subi	r21, 0x3F	; 63
    1f7c:	46 52       	subi	r20, 0x26	; 38
    1f7e:	5f 49       	sbci	r21, 0x9F	; 159
    1f80:	4f 38       	cpi	r20, 0x8F	; 143
    1f82:	28 30       	cpi	r18, 0x08	; 8
    1f84:	78 30       	cpi	r23, 0x08	; 8
    1f86:	38 29       	or	r19, r8
    1f88:	00 01       	movw	r0, r0
    1f8a:	48 55       	subi	r20, 0x58	; 88
    1f8c:	42 52       	subi	r20, 0x22	; 34
    1f8e:	52 4c       	sbci	r21, 0xC2	; 194
    1f90:	20 5f       	subi	r18, 0xF0	; 240
    1f92:	53 46       	sbci	r21, 0x63	; 99
    1f94:	52 5f       	subi	r21, 0xF2	; 242
    1f96:	49 4f       	sbci	r20, 0xF9	; 249
    1f98:	38 28       	or	r3, r8
    1f9a:	30 78       	andi	r19, 0x80	; 128
    1f9c:	30 39       	cpi	r19, 0x90	; 144
    1f9e:	29 00       	.word	0x0029	; ????
    1fa0:	01 49       	sbci	r16, 0x91	; 145
    1fa2:	55 43       	sbci	r21, 0x35	; 53
    1fa4:	53 52       	subi	r21, 0x23	; 35
    1fa6:	42 20       	and	r4, r2
    1fa8:	5f 53       	subi	r21, 0x3F	; 63
    1faa:	46 52       	subi	r20, 0x26	; 38
    1fac:	5f 49       	sbci	r21, 0x9F	; 159
    1fae:	4f 38       	cpi	r20, 0x8F	; 143
    1fb0:	28 30       	cpi	r18, 0x08	; 8
    1fb2:	78 30       	cpi	r23, 0x08	; 8
    1fb4:	41 29       	or	r20, r1
    1fb6:	00 01       	movw	r0, r0
    1fb8:	4a 55       	subi	r20, 0x5A	; 90
    1fba:	43 53       	subi	r20, 0x33	; 51
    1fbc:	52 41       	sbci	r21, 0x12	; 18
    1fbe:	20 5f       	subi	r18, 0xF0	; 240
    1fc0:	53 46       	sbci	r21, 0x63	; 99
    1fc2:	52 5f       	subi	r21, 0xF2	; 242
    1fc4:	49 4f       	sbci	r20, 0xF9	; 249
    1fc6:	38 28       	or	r3, r8
    1fc8:	30 78       	andi	r19, 0x80	; 128
    1fca:	30 42       	sbci	r19, 0x20	; 32
    1fcc:	29 00       	.word	0x0029	; ????
    1fce:	01 4b       	sbci	r16, 0xB1	; 177
    1fd0:	55 44       	sbci	r21, 0x45	; 69
    1fd2:	52 20       	and	r5, r2
    1fd4:	5f 53       	subi	r21, 0x3F	; 63
    1fd6:	46 52       	subi	r20, 0x26	; 38
    1fd8:	5f 49       	sbci	r21, 0x9F	; 159
    1fda:	4f 38       	cpi	r20, 0x8F	; 143
    1fdc:	28 30       	cpi	r18, 0x08	; 8
    1fde:	78 30       	cpi	r23, 0x08	; 8
    1fe0:	43 29       	or	r20, r3
    1fe2:	00 01       	movw	r0, r0
    1fe4:	4e 53       	subi	r20, 0x3E	; 62
    1fe6:	50 43       	sbci	r21, 0x30	; 48
    1fe8:	52 20       	and	r5, r2
    1fea:	5f 53       	subi	r21, 0x3F	; 63
    1fec:	46 52       	subi	r20, 0x26	; 38
    1fee:	5f 49       	sbci	r21, 0x9F	; 159
    1ff0:	4f 38       	cpi	r20, 0x8F	; 143
    1ff2:	28 30       	cpi	r18, 0x08	; 8
    1ff4:	78 30       	cpi	r23, 0x08	; 8
    1ff6:	44 29       	or	r20, r4
    1ff8:	00 01       	movw	r0, r0
    1ffa:	4f 53       	subi	r20, 0x3F	; 63
    1ffc:	50 53       	subi	r21, 0x30	; 48
    1ffe:	52 20       	and	r5, r2
    2000:	5f 53       	subi	r21, 0x3F	; 63
    2002:	46 52       	subi	r20, 0x26	; 38
    2004:	5f 49       	sbci	r21, 0x9F	; 159
    2006:	4f 38       	cpi	r20, 0x8F	; 143
    2008:	28 30       	cpi	r18, 0x08	; 8
    200a:	78 30       	cpi	r23, 0x08	; 8
    200c:	45 29       	or	r20, r5
    200e:	00 01       	movw	r0, r0
    2010:	50 53       	subi	r21, 0x30	; 48
    2012:	50 44       	sbci	r21, 0x40	; 64
    2014:	52 20       	and	r5, r2
    2016:	5f 53       	subi	r21, 0x3F	; 63
    2018:	46 52       	subi	r20, 0x26	; 38
    201a:	5f 49       	sbci	r21, 0x9F	; 159
    201c:	4f 38       	cpi	r20, 0x8F	; 143
    201e:	28 30       	cpi	r18, 0x08	; 8
    2020:	78 30       	cpi	r23, 0x08	; 8
    2022:	46 29       	or	r20, r6
    2024:	00 01       	movw	r0, r0
    2026:	53 50       	subi	r21, 0x03	; 3
    2028:	49 4e       	sbci	r20, 0xE9	; 233
    202a:	44 20       	and	r4, r4
    202c:	5f 53       	subi	r21, 0x3F	; 63
    202e:	46 52       	subi	r20, 0x26	; 38
    2030:	5f 49       	sbci	r21, 0x9F	; 159
    2032:	4f 38       	cpi	r20, 0x8F	; 143
    2034:	28 30       	cpi	r18, 0x08	; 8
    2036:	78 31       	cpi	r23, 0x18	; 24
    2038:	30 29       	or	r19, r0
    203a:	00 01       	movw	r0, r0
    203c:	54 44       	sbci	r21, 0x44	; 68
    203e:	44 52       	subi	r20, 0x24	; 36
    2040:	44 20       	and	r4, r4
    2042:	5f 53       	subi	r21, 0x3F	; 63
    2044:	46 52       	subi	r20, 0x26	; 38
    2046:	5f 49       	sbci	r21, 0x9F	; 159
    2048:	4f 38       	cpi	r20, 0x8F	; 143
    204a:	28 30       	cpi	r18, 0x08	; 8
    204c:	78 31       	cpi	r23, 0x18	; 24
    204e:	31 29       	or	r19, r1
    2050:	00 01       	movw	r0, r0
    2052:	55 50       	subi	r21, 0x05	; 5
    2054:	4f 52       	subi	r20, 0x2F	; 47
    2056:	54 44       	sbci	r21, 0x44	; 68
    2058:	20 5f       	subi	r18, 0xF0	; 240
    205a:	53 46       	sbci	r21, 0x63	; 99
    205c:	52 5f       	subi	r21, 0xF2	; 242
    205e:	49 4f       	sbci	r20, 0xF9	; 249
    2060:	38 28       	or	r3, r8
    2062:	30 78       	andi	r19, 0x80	; 128
    2064:	31 32       	cpi	r19, 0x21	; 33
    2066:	29 00       	.word	0x0029	; ????
    2068:	01 58       	subi	r16, 0x81	; 129
    206a:	50 49       	sbci	r21, 0x90	; 144
    206c:	4e 43       	sbci	r20, 0x3E	; 62
    206e:	20 5f       	subi	r18, 0xF0	; 240
    2070:	53 46       	sbci	r21, 0x63	; 99
    2072:	52 5f       	subi	r21, 0xF2	; 242
    2074:	49 4f       	sbci	r20, 0xF9	; 249
    2076:	38 28       	or	r3, r8
    2078:	30 78       	andi	r19, 0x80	; 128
    207a:	31 33       	cpi	r19, 0x31	; 49
    207c:	29 00       	.word	0x0029	; ????
    207e:	01 59       	subi	r16, 0x91	; 145
    2080:	44 44       	sbci	r20, 0x44	; 68
    2082:	52 43       	sbci	r21, 0x32	; 50
    2084:	20 5f       	subi	r18, 0xF0	; 240
    2086:	53 46       	sbci	r21, 0x63	; 99
    2088:	52 5f       	subi	r21, 0xF2	; 242
    208a:	49 4f       	sbci	r20, 0xF9	; 249
    208c:	38 28       	or	r3, r8
    208e:	30 78       	andi	r19, 0x80	; 128
    2090:	31 34       	cpi	r19, 0x41	; 65
    2092:	29 00       	.word	0x0029	; ????
    2094:	01 5a       	subi	r16, 0xA1	; 161
    2096:	50 4f       	sbci	r21, 0xF0	; 240
    2098:	52 54       	subi	r21, 0x42	; 66
    209a:	43 20       	and	r4, r3
    209c:	5f 53       	subi	r21, 0x3F	; 63
    209e:	46 52       	subi	r20, 0x26	; 38
    20a0:	5f 49       	sbci	r21, 0x9F	; 159
    20a2:	4f 38       	cpi	r20, 0x8F	; 143
    20a4:	28 30       	cpi	r18, 0x08	; 8
    20a6:	78 31       	cpi	r23, 0x18	; 24
    20a8:	35 29       	or	r19, r5
    20aa:	00 01       	movw	r0, r0
    20ac:	5d 50       	subi	r21, 0x0D	; 13
    20ae:	49 4e       	sbci	r20, 0xE9	; 233
    20b0:	42 20       	and	r4, r2
    20b2:	5f 53       	subi	r21, 0x3F	; 63
    20b4:	46 52       	subi	r20, 0x26	; 38
    20b6:	5f 49       	sbci	r21, 0x9F	; 159
    20b8:	4f 38       	cpi	r20, 0x8F	; 143
    20ba:	28 30       	cpi	r18, 0x08	; 8
    20bc:	78 31       	cpi	r23, 0x18	; 24
    20be:	36 29       	or	r19, r6
    20c0:	00 01       	movw	r0, r0
    20c2:	5e 44       	sbci	r21, 0x4E	; 78
    20c4:	44 52       	subi	r20, 0x24	; 36
    20c6:	42 20       	and	r4, r2
    20c8:	5f 53       	subi	r21, 0x3F	; 63
    20ca:	46 52       	subi	r20, 0x26	; 38
    20cc:	5f 49       	sbci	r21, 0x9F	; 159
    20ce:	4f 38       	cpi	r20, 0x8F	; 143
    20d0:	28 30       	cpi	r18, 0x08	; 8
    20d2:	78 31       	cpi	r23, 0x18	; 24
    20d4:	37 29       	or	r19, r7
    20d6:	00 01       	movw	r0, r0
    20d8:	5f 50       	subi	r21, 0x0F	; 15
    20da:	4f 52       	subi	r20, 0x2F	; 47
    20dc:	54 42       	sbci	r21, 0x24	; 36
    20de:	20 5f       	subi	r18, 0xF0	; 240
    20e0:	53 46       	sbci	r21, 0x63	; 99
    20e2:	52 5f       	subi	r21, 0xF2	; 242
    20e4:	49 4f       	sbci	r20, 0xF9	; 249
    20e6:	38 28       	or	r3, r8
    20e8:	30 78       	andi	r19, 0x80	; 128
    20ea:	31 38       	cpi	r19, 0x81	; 129
    20ec:	29 00       	.word	0x0029	; ????
    20ee:	01 62       	ori	r16, 0x21	; 33
    20f0:	50 49       	sbci	r21, 0x90	; 144
    20f2:	4e 41       	sbci	r20, 0x1E	; 30
    20f4:	20 5f       	subi	r18, 0xF0	; 240
    20f6:	53 46       	sbci	r21, 0x63	; 99
    20f8:	52 5f       	subi	r21, 0xF2	; 242
    20fa:	49 4f       	sbci	r20, 0xF9	; 249
    20fc:	38 28       	or	r3, r8
    20fe:	30 78       	andi	r19, 0x80	; 128
    2100:	31 39       	cpi	r19, 0x91	; 145
    2102:	29 00       	.word	0x0029	; ????
    2104:	01 63       	ori	r16, 0x31	; 49
    2106:	44 44       	sbci	r20, 0x44	; 68
    2108:	52 41       	sbci	r21, 0x12	; 18
    210a:	20 5f       	subi	r18, 0xF0	; 240
    210c:	53 46       	sbci	r21, 0x63	; 99
    210e:	52 5f       	subi	r21, 0xF2	; 242
    2110:	49 4f       	sbci	r20, 0xF9	; 249
    2112:	38 28       	or	r3, r8
    2114:	30 78       	andi	r19, 0x80	; 128
    2116:	31 41       	sbci	r19, 0x11	; 17
    2118:	29 00       	.word	0x0029	; ????
    211a:	01 64       	ori	r16, 0x41	; 65
    211c:	50 4f       	sbci	r21, 0xF0	; 240
    211e:	52 54       	subi	r21, 0x42	; 66
    2120:	41 20       	and	r4, r1
    2122:	5f 53       	subi	r21, 0x3F	; 63
    2124:	46 52       	subi	r20, 0x26	; 38
    2126:	5f 49       	sbci	r21, 0x9F	; 159
    2128:	4f 38       	cpi	r20, 0x8F	; 143
    212a:	28 30       	cpi	r18, 0x08	; 8
    212c:	78 31       	cpi	r23, 0x18	; 24
    212e:	42 29       	or	r20, r2
    2130:	00 01       	movw	r0, r0
    2132:	67 45       	sbci	r22, 0x57	; 87
    2134:	45 43       	sbci	r20, 0x35	; 53
    2136:	52 20       	and	r5, r2
    2138:	5f 53       	subi	r21, 0x3F	; 63
    213a:	46 52       	subi	r20, 0x26	; 38
    213c:	5f 49       	sbci	r21, 0x9F	; 159
    213e:	4f 38       	cpi	r20, 0x8F	; 143
    2140:	28 30       	cpi	r18, 0x08	; 8
    2142:	78 31       	cpi	r23, 0x18	; 24
    2144:	43 29       	or	r20, r3
    2146:	00 01       	movw	r0, r0
    2148:	6a 45       	sbci	r22, 0x5A	; 90
    214a:	45 44       	sbci	r20, 0x45	; 69
    214c:	52 20       	and	r5, r2
    214e:	5f 53       	subi	r21, 0x3F	; 63
    2150:	46 52       	subi	r20, 0x26	; 38
    2152:	5f 49       	sbci	r21, 0x9F	; 159
    2154:	4f 38       	cpi	r20, 0x8F	; 143
    2156:	28 30       	cpi	r18, 0x08	; 8
    2158:	78 31       	cpi	r23, 0x18	; 24
    215a:	44 29       	or	r20, r4
    215c:	00 01       	movw	r0, r0
    215e:	6d 45       	sbci	r22, 0x5D	; 93
    2160:	45 41       	sbci	r20, 0x15	; 21
    2162:	52 20       	and	r5, r2
    2164:	5f 53       	subi	r21, 0x3F	; 63
    2166:	46 52       	subi	r20, 0x26	; 38
    2168:	5f 49       	sbci	r21, 0x9F	; 159
    216a:	4f 31       	cpi	r20, 0x1F	; 31
    216c:	36 28       	or	r3, r6
    216e:	30 78       	andi	r19, 0x80	; 128
    2170:	31 45       	sbci	r19, 0x51	; 81
    2172:	29 00       	.word	0x0029	; ????
    2174:	01 6e       	ori	r16, 0xE1	; 225
    2176:	45 45       	sbci	r20, 0x55	; 85
    2178:	41 52       	subi	r20, 0x21	; 33
    217a:	4c 20       	and	r4, r12
    217c:	5f 53       	subi	r21, 0x3F	; 63
    217e:	46 52       	subi	r20, 0x26	; 38
    2180:	5f 49       	sbci	r21, 0x9F	; 159
    2182:	4f 38       	cpi	r20, 0x8F	; 143
    2184:	28 30       	cpi	r18, 0x08	; 8
    2186:	78 31       	cpi	r23, 0x18	; 24
    2188:	45 29       	or	r20, r5
    218a:	00 01       	movw	r0, r0
    218c:	6f 45       	sbci	r22, 0x5F	; 95
    218e:	45 41       	sbci	r20, 0x15	; 21
    2190:	52 48       	sbci	r21, 0x82	; 130
    2192:	20 5f       	subi	r18, 0xF0	; 240
    2194:	53 46       	sbci	r21, 0x63	; 99
    2196:	52 5f       	subi	r21, 0xF2	; 242
    2198:	49 4f       	sbci	r20, 0xF9	; 249
    219a:	38 28       	or	r3, r8
    219c:	30 78       	andi	r19, 0x80	; 128
    219e:	31 46       	sbci	r19, 0x61	; 97
    21a0:	29 00       	.word	0x0029	; ????
    21a2:	01 71       	andi	r16, 0x11	; 17
    21a4:	55 42       	sbci	r21, 0x25	; 37
    21a6:	52 52       	subi	r21, 0x22	; 34
    21a8:	48 20       	and	r4, r8
    21aa:	5f 53       	subi	r21, 0x3F	; 63
    21ac:	46 52       	subi	r20, 0x26	; 38
    21ae:	5f 49       	sbci	r21, 0x9F	; 159
    21b0:	4f 38       	cpi	r20, 0x8F	; 143
    21b2:	28 30       	cpi	r18, 0x08	; 8
    21b4:	78 32       	cpi	r23, 0x28	; 40
    21b6:	30 29       	or	r19, r0
    21b8:	00 01       	movw	r0, r0
    21ba:	72 55       	subi	r23, 0x52	; 82
    21bc:	43 53       	subi	r20, 0x33	; 51
    21be:	52 43       	sbci	r21, 0x32	; 50
    21c0:	20 55       	subi	r18, 0x50	; 80
    21c2:	42 52       	subi	r20, 0x22	; 34
    21c4:	52 48       	sbci	r21, 0x82	; 130
    21c6:	00 01       	movw	r0, r0
    21c8:	74 57       	subi	r23, 0x74	; 116
    21ca:	44 54       	subi	r20, 0x44	; 68
    21cc:	43 52       	subi	r20, 0x23	; 35
    21ce:	20 5f       	subi	r18, 0xF0	; 240
    21d0:	53 46       	sbci	r21, 0x63	; 99
    21d2:	52 5f       	subi	r21, 0xF2	; 242
    21d4:	49 4f       	sbci	r20, 0xF9	; 249
    21d6:	38 28       	or	r3, r8
    21d8:	30 78       	andi	r19, 0x80	; 128
    21da:	32 31       	cpi	r19, 0x12	; 18
    21dc:	29 00       	.word	0x0029	; ????
    21de:	01 76       	andi	r16, 0x61	; 97
    21e0:	41 53       	subi	r20, 0x31	; 49
    21e2:	53 52       	subi	r21, 0x23	; 35
    21e4:	20 5f       	subi	r18, 0xF0	; 240
    21e6:	53 46       	sbci	r21, 0x63	; 99
    21e8:	52 5f       	subi	r21, 0xF2	; 242
    21ea:	49 4f       	sbci	r20, 0xF9	; 249
    21ec:	38 28       	or	r3, r8
    21ee:	30 78       	andi	r19, 0x80	; 128
    21f0:	32 32       	cpi	r19, 0x22	; 34
    21f2:	29 00       	.word	0x0029	; ????
    21f4:	01 79       	andi	r16, 0x91	; 145
    21f6:	4f 43       	sbci	r20, 0x3F	; 63
    21f8:	52 32       	cpi	r21, 0x22	; 34
    21fa:	20 5f       	subi	r18, 0xF0	; 240
    21fc:	53 46       	sbci	r21, 0x63	; 99
    21fe:	52 5f       	subi	r21, 0xF2	; 242
    2200:	49 4f       	sbci	r20, 0xF9	; 249
    2202:	38 28       	or	r3, r8
    2204:	30 78       	andi	r19, 0x80	; 128
    2206:	32 33       	cpi	r19, 0x32	; 50
    2208:	29 00       	.word	0x0029	; ????
    220a:	01 7a       	andi	r16, 0xA1	; 161
    220c:	54 43       	sbci	r21, 0x34	; 52
    220e:	4e 54       	subi	r20, 0x4E	; 78
    2210:	32 20       	and	r3, r2
    2212:	5f 53       	subi	r21, 0x3F	; 63
    2214:	46 52       	subi	r20, 0x26	; 38
    2216:	5f 49       	sbci	r21, 0x9F	; 159
    2218:	4f 38       	cpi	r20, 0x8F	; 143
    221a:	28 30       	cpi	r18, 0x08	; 8
    221c:	78 32       	cpi	r23, 0x28	; 40
    221e:	34 29       	or	r19, r4
    2220:	00 01       	movw	r0, r0
    2222:	7b 54       	subi	r23, 0x4B	; 75
    2224:	43 43       	sbci	r20, 0x33	; 51
    2226:	52 32       	cpi	r21, 0x22	; 34
    2228:	20 5f       	subi	r18, 0xF0	; 240
    222a:	53 46       	sbci	r21, 0x63	; 99
    222c:	52 5f       	subi	r21, 0xF2	; 242
    222e:	49 4f       	sbci	r20, 0xF9	; 249
    2230:	38 28       	or	r3, r8
    2232:	30 78       	andi	r19, 0x80	; 128
    2234:	32 35       	cpi	r19, 0x52	; 82
    2236:	29 00       	.word	0x0029	; ????
    2238:	01 7e       	andi	r16, 0xE1	; 225
    223a:	49 43       	sbci	r20, 0x39	; 57
    223c:	52 31       	cpi	r21, 0x12	; 18
    223e:	20 5f       	subi	r18, 0xF0	; 240
    2240:	53 46       	sbci	r21, 0x63	; 99
    2242:	52 5f       	subi	r21, 0xF2	; 242
    2244:	49 4f       	sbci	r20, 0xF9	; 249
    2246:	31 36       	cpi	r19, 0x61	; 97
    2248:	28 30       	cpi	r18, 0x08	; 8
    224a:	78 32       	cpi	r23, 0x28	; 40
    224c:	36 29       	or	r19, r6
    224e:	00 01       	movw	r0, r0
    2250:	7f 49       	sbci	r23, 0x9F	; 159
    2252:	43 52       	subi	r20, 0x23	; 35
    2254:	31 4c       	sbci	r19, 0xC1	; 193
    2256:	20 5f       	subi	r18, 0xF0	; 240
    2258:	53 46       	sbci	r21, 0x63	; 99
    225a:	52 5f       	subi	r21, 0xF2	; 242
    225c:	49 4f       	sbci	r20, 0xF9	; 249
    225e:	38 28       	or	r3, r8
    2260:	30 78       	andi	r19, 0x80	; 128
    2262:	32 36       	cpi	r19, 0x62	; 98
    2264:	29 00       	.word	0x0029	; ????
    2266:	01 80       	ldd	r0, Z+1	; 0x01
    2268:	01 49       	sbci	r16, 0x91	; 145
    226a:	43 52       	subi	r20, 0x23	; 35
    226c:	31 48       	sbci	r19, 0x81	; 129
    226e:	20 5f       	subi	r18, 0xF0	; 240
    2270:	53 46       	sbci	r21, 0x63	; 99
    2272:	52 5f       	subi	r21, 0xF2	; 242
    2274:	49 4f       	sbci	r20, 0xF9	; 249
    2276:	38 28       	or	r3, r8
    2278:	30 78       	andi	r19, 0x80	; 128
    227a:	32 37       	cpi	r19, 0x72	; 114
    227c:	29 00       	.word	0x0029	; ????
    227e:	01 81       	ldd	r16, Z+1	; 0x01
    2280:	01 4f       	sbci	r16, 0xF1	; 241
    2282:	43 52       	subi	r20, 0x23	; 35
    2284:	31 42       	sbci	r19, 0x21	; 33
    2286:	20 5f       	subi	r18, 0xF0	; 240
    2288:	53 46       	sbci	r21, 0x63	; 99
    228a:	52 5f       	subi	r21, 0xF2	; 242
    228c:	49 4f       	sbci	r20, 0xF9	; 249
    228e:	31 36       	cpi	r19, 0x61	; 97
    2290:	28 30       	cpi	r18, 0x08	; 8
    2292:	78 32       	cpi	r23, 0x28	; 40
    2294:	38 29       	or	r19, r8
    2296:	00 01       	movw	r0, r0
    2298:	82 01       	movw	r16, r4
    229a:	4f 43       	sbci	r20, 0x3F	; 63
    229c:	52 31       	cpi	r21, 0x12	; 18
    229e:	42 4c       	sbci	r20, 0xC2	; 194
    22a0:	20 5f       	subi	r18, 0xF0	; 240
    22a2:	53 46       	sbci	r21, 0x63	; 99
    22a4:	52 5f       	subi	r21, 0xF2	; 242
    22a6:	49 4f       	sbci	r20, 0xF9	; 249
    22a8:	38 28       	or	r3, r8
    22aa:	30 78       	andi	r19, 0x80	; 128
    22ac:	32 38       	cpi	r19, 0x82	; 130
    22ae:	29 00       	.word	0x0029	; ????
    22b0:	01 83       	std	Z+1, r16	; 0x01
    22b2:	01 4f       	sbci	r16, 0xF1	; 241
    22b4:	43 52       	subi	r20, 0x23	; 35
    22b6:	31 42       	sbci	r19, 0x21	; 33
    22b8:	48 20       	and	r4, r8
    22ba:	5f 53       	subi	r21, 0x3F	; 63
    22bc:	46 52       	subi	r20, 0x26	; 38
    22be:	5f 49       	sbci	r21, 0x9F	; 159
    22c0:	4f 38       	cpi	r20, 0x8F	; 143
    22c2:	28 30       	cpi	r18, 0x08	; 8
    22c4:	78 32       	cpi	r23, 0x28	; 40
    22c6:	39 29       	or	r19, r9
    22c8:	00 01       	movw	r0, r0
    22ca:	84 01       	movw	r16, r8
    22cc:	4f 43       	sbci	r20, 0x3F	; 63
    22ce:	52 31       	cpi	r21, 0x12	; 18
    22d0:	41 20       	and	r4, r1
    22d2:	5f 53       	subi	r21, 0x3F	; 63
    22d4:	46 52       	subi	r20, 0x26	; 38
    22d6:	5f 49       	sbci	r21, 0x9F	; 159
    22d8:	4f 31       	cpi	r20, 0x1F	; 31
    22da:	36 28       	or	r3, r6
    22dc:	30 78       	andi	r19, 0x80	; 128
    22de:	32 41       	sbci	r19, 0x12	; 18
    22e0:	29 00       	.word	0x0029	; ????
    22e2:	01 85       	ldd	r16, Z+9	; 0x09
    22e4:	01 4f       	sbci	r16, 0xF1	; 241
    22e6:	43 52       	subi	r20, 0x23	; 35
    22e8:	31 41       	sbci	r19, 0x11	; 17
    22ea:	4c 20       	and	r4, r12
    22ec:	5f 53       	subi	r21, 0x3F	; 63
    22ee:	46 52       	subi	r20, 0x26	; 38
    22f0:	5f 49       	sbci	r21, 0x9F	; 159
    22f2:	4f 38       	cpi	r20, 0x8F	; 143
    22f4:	28 30       	cpi	r18, 0x08	; 8
    22f6:	78 32       	cpi	r23, 0x28	; 40
    22f8:	41 29       	or	r20, r1
    22fa:	00 01       	movw	r0, r0
    22fc:	86 01       	movw	r16, r12
    22fe:	4f 43       	sbci	r20, 0x3F	; 63
    2300:	52 31       	cpi	r21, 0x12	; 18
    2302:	41 48       	sbci	r20, 0x81	; 129
    2304:	20 5f       	subi	r18, 0xF0	; 240
    2306:	53 46       	sbci	r21, 0x63	; 99
    2308:	52 5f       	subi	r21, 0xF2	; 242
    230a:	49 4f       	sbci	r20, 0xF9	; 249
    230c:	38 28       	or	r3, r8
    230e:	30 78       	andi	r19, 0x80	; 128
    2310:	32 42       	sbci	r19, 0x22	; 34
    2312:	29 00       	.word	0x0029	; ????
    2314:	01 87       	std	Z+9, r16	; 0x09
    2316:	01 54       	subi	r16, 0x41	; 65
    2318:	43 4e       	sbci	r20, 0xE3	; 227
    231a:	54 31       	cpi	r21, 0x14	; 20
    231c:	20 5f       	subi	r18, 0xF0	; 240
    231e:	53 46       	sbci	r21, 0x63	; 99
    2320:	52 5f       	subi	r21, 0xF2	; 242
    2322:	49 4f       	sbci	r20, 0xF9	; 249
    2324:	31 36       	cpi	r19, 0x61	; 97
    2326:	28 30       	cpi	r18, 0x08	; 8
    2328:	78 32       	cpi	r23, 0x28	; 40
    232a:	43 29       	or	r20, r3
    232c:	00 01       	movw	r0, r0
    232e:	88 01       	movw	r16, r16
    2330:	54 43       	sbci	r21, 0x34	; 52
    2332:	4e 54       	subi	r20, 0x4E	; 78
    2334:	31 4c       	sbci	r19, 0xC1	; 193
    2336:	20 5f       	subi	r18, 0xF0	; 240
    2338:	53 46       	sbci	r21, 0x63	; 99
    233a:	52 5f       	subi	r21, 0xF2	; 242
    233c:	49 4f       	sbci	r20, 0xF9	; 249
    233e:	38 28       	or	r3, r8
    2340:	30 78       	andi	r19, 0x80	; 128
    2342:	32 43       	sbci	r19, 0x32	; 50
    2344:	29 00       	.word	0x0029	; ????
    2346:	01 89       	ldd	r16, Z+17	; 0x11
    2348:	01 54       	subi	r16, 0x41	; 65
    234a:	43 4e       	sbci	r20, 0xE3	; 227
    234c:	54 31       	cpi	r21, 0x14	; 20
    234e:	48 20       	and	r4, r8
    2350:	5f 53       	subi	r21, 0x3F	; 63
    2352:	46 52       	subi	r20, 0x26	; 38
    2354:	5f 49       	sbci	r21, 0x9F	; 159
    2356:	4f 38       	cpi	r20, 0x8F	; 143
    2358:	28 30       	cpi	r18, 0x08	; 8
    235a:	78 32       	cpi	r23, 0x28	; 40
    235c:	44 29       	or	r20, r4
    235e:	00 01       	movw	r0, r0
    2360:	8a 01       	movw	r16, r20
    2362:	54 43       	sbci	r21, 0x34	; 52
    2364:	43 52       	subi	r20, 0x23	; 35
    2366:	31 42       	sbci	r19, 0x21	; 33
    2368:	20 5f       	subi	r18, 0xF0	; 240
    236a:	53 46       	sbci	r21, 0x63	; 99
    236c:	52 5f       	subi	r21, 0xF2	; 242
    236e:	49 4f       	sbci	r20, 0xF9	; 249
    2370:	38 28       	or	r3, r8
    2372:	30 78       	andi	r19, 0x80	; 128
    2374:	32 45       	sbci	r19, 0x52	; 82
    2376:	29 00       	.word	0x0029	; ????
    2378:	01 8b       	std	Z+17, r16	; 0x11
    237a:	01 54       	subi	r16, 0x41	; 65
    237c:	43 43       	sbci	r20, 0x33	; 51
    237e:	52 31       	cpi	r21, 0x12	; 18
    2380:	41 20       	and	r4, r1
    2382:	5f 53       	subi	r21, 0x3F	; 63
    2384:	46 52       	subi	r20, 0x26	; 38
    2386:	5f 49       	sbci	r21, 0x9F	; 159
    2388:	4f 38       	cpi	r20, 0x8F	; 143
    238a:	28 30       	cpi	r18, 0x08	; 8
    238c:	78 32       	cpi	r23, 0x28	; 40
    238e:	46 29       	or	r20, r6
    2390:	00 01       	movw	r0, r0
    2392:	8d 01       	movw	r16, r26
    2394:	53 46       	sbci	r21, 0x63	; 99
    2396:	49 4f       	sbci	r20, 0xF9	; 249
    2398:	52 20       	and	r5, r2
    239a:	5f 53       	subi	r21, 0x3F	; 63
    239c:	46 52       	subi	r20, 0x26	; 38
    239e:	5f 49       	sbci	r21, 0x9F	; 159
    23a0:	4f 38       	cpi	r20, 0x8F	; 143
    23a2:	28 30       	cpi	r18, 0x08	; 8
    23a4:	78 33       	cpi	r23, 0x38	; 56
    23a6:	30 29       	or	r19, r0
    23a8:	00 01       	movw	r0, r0
    23aa:	8f 01       	movw	r16, r30
    23ac:	4f 53       	subi	r20, 0x3F	; 63
    23ae:	43 43       	sbci	r20, 0x33	; 51
    23b0:	41 4c       	sbci	r20, 0xC1	; 193
    23b2:	20 5f       	subi	r18, 0xF0	; 240
    23b4:	53 46       	sbci	r21, 0x63	; 99
    23b6:	52 5f       	subi	r21, 0xF2	; 242
    23b8:	49 4f       	sbci	r20, 0xF9	; 249
    23ba:	38 28       	or	r3, r8
    23bc:	30 78       	andi	r19, 0x80	; 128
    23be:	33 31       	cpi	r19, 0x13	; 19
    23c0:	29 00       	.word	0x0029	; ????
    23c2:	01 90       	ld	r0, Z+
    23c4:	01 4f       	sbci	r16, 0xF1	; 241
    23c6:	43 44       	sbci	r20, 0x43	; 67
    23c8:	52 20       	and	r5, r2
    23ca:	4f 53       	subi	r20, 0x3F	; 63
    23cc:	43 43       	sbci	r20, 0x33	; 51
    23ce:	41 4c       	sbci	r20, 0xC1	; 193
    23d0:	00 01       	movw	r0, r0
    23d2:	93 01       	movw	r18, r6
    23d4:	54 43       	sbci	r21, 0x34	; 52
    23d6:	4e 54       	subi	r20, 0x4E	; 78
    23d8:	30 20       	and	r3, r0
    23da:	5f 53       	subi	r21, 0x3F	; 63
    23dc:	46 52       	subi	r20, 0x26	; 38
    23de:	5f 49       	sbci	r21, 0x9F	; 159
    23e0:	4f 38       	cpi	r20, 0x8F	; 143
    23e2:	28 30       	cpi	r18, 0x08	; 8
    23e4:	78 33       	cpi	r23, 0x38	; 56
    23e6:	32 29       	or	r19, r2
    23e8:	00 01       	movw	r0, r0
    23ea:	94 01       	movw	r18, r8
    23ec:	54 43       	sbci	r21, 0x34	; 52
    23ee:	43 52       	subi	r20, 0x23	; 35
    23f0:	30 20       	and	r3, r0
    23f2:	5f 53       	subi	r21, 0x3F	; 63
    23f4:	46 52       	subi	r20, 0x26	; 38
    23f6:	5f 49       	sbci	r21, 0x9F	; 159
    23f8:	4f 38       	cpi	r20, 0x8F	; 143
    23fa:	28 30       	cpi	r18, 0x08	; 8
    23fc:	78 33       	cpi	r23, 0x38	; 56
    23fe:	33 29       	or	r19, r3
    2400:	00 01       	movw	r0, r0
    2402:	96 01       	movw	r18, r12
    2404:	4d 43       	sbci	r20, 0x3D	; 61
    2406:	55 53       	subi	r21, 0x35	; 53
    2408:	52 20       	and	r5, r2
    240a:	5f 53       	subi	r21, 0x3F	; 63
    240c:	46 52       	subi	r20, 0x26	; 38
    240e:	5f 49       	sbci	r21, 0x9F	; 159
    2410:	4f 38       	cpi	r20, 0x8F	; 143
    2412:	28 30       	cpi	r18, 0x08	; 8
    2414:	78 33       	cpi	r23, 0x38	; 56
    2416:	34 29       	or	r19, r4
    2418:	00 01       	movw	r0, r0
    241a:	97 01       	movw	r18, r14
    241c:	4d 43       	sbci	r20, 0x3D	; 61
    241e:	55 43       	sbci	r21, 0x35	; 53
    2420:	53 52       	subi	r21, 0x23	; 35
    2422:	20 4d       	sbci	r18, 0xD0	; 208
    2424:	43 55       	subi	r20, 0x53	; 83
    2426:	53 52       	subi	r21, 0x23	; 35
    2428:	00 01       	movw	r0, r0
    242a:	98 01       	movw	r18, r16
    242c:	4d 43       	sbci	r20, 0x3D	; 61
    242e:	55 43       	sbci	r21, 0x35	; 53
    2430:	52 20       	and	r5, r2
    2432:	5f 53       	subi	r21, 0x3F	; 63
    2434:	46 52       	subi	r20, 0x26	; 38
    2436:	5f 49       	sbci	r21, 0x9F	; 159
    2438:	4f 38       	cpi	r20, 0x8F	; 143
    243a:	28 30       	cpi	r18, 0x08	; 8
    243c:	78 33       	cpi	r23, 0x38	; 56
    243e:	35 29       	or	r19, r5
    2440:	00 01       	movw	r0, r0
    2442:	9a 01       	movw	r18, r20
    2444:	54 57       	subi	r21, 0x74	; 116
    2446:	43 52       	subi	r20, 0x23	; 35
    2448:	20 5f       	subi	r18, 0xF0	; 240
    244a:	53 46       	sbci	r21, 0x63	; 99
    244c:	52 5f       	subi	r21, 0xF2	; 242
    244e:	49 4f       	sbci	r20, 0xF9	; 249
    2450:	38 28       	or	r3, r8
    2452:	30 78       	andi	r19, 0x80	; 128
    2454:	33 36       	cpi	r19, 0x63	; 99
    2456:	29 00       	.word	0x0029	; ????
    2458:	01 9c       	mul	r0, r1
    245a:	01 53       	subi	r16, 0x31	; 49
    245c:	50 4d       	sbci	r21, 0xD0	; 208
    245e:	43 52       	subi	r20, 0x23	; 35
    2460:	20 5f       	subi	r18, 0xF0	; 240
    2462:	53 46       	sbci	r21, 0x63	; 99
    2464:	52 5f       	subi	r21, 0xF2	; 242
    2466:	49 4f       	sbci	r20, 0xF9	; 249
    2468:	38 28       	or	r3, r8
    246a:	30 78       	andi	r19, 0x80	; 128
    246c:	33 37       	cpi	r19, 0x73	; 115
    246e:	29 00       	.word	0x0029	; ????
    2470:	01 9e       	mul	r0, r17
    2472:	01 54       	subi	r16, 0x41	; 65
    2474:	49 46       	sbci	r20, 0x69	; 105
    2476:	52 20       	and	r5, r2
    2478:	5f 53       	subi	r21, 0x3F	; 63
    247a:	46 52       	subi	r20, 0x26	; 38
    247c:	5f 49       	sbci	r21, 0x9F	; 159
    247e:	4f 38       	cpi	r20, 0x8F	; 143
    2480:	28 30       	cpi	r18, 0x08	; 8
    2482:	78 33       	cpi	r23, 0x38	; 56
    2484:	38 29       	or	r19, r8
    2486:	00 01       	movw	r0, r0
    2488:	9f 01       	movw	r18, r30
    248a:	54 49       	sbci	r21, 0x94	; 148
    248c:	4d 53       	subi	r20, 0x3D	; 61
    248e:	4b 20       	and	r4, r11
    2490:	5f 53       	subi	r21, 0x3F	; 63
    2492:	46 52       	subi	r20, 0x26	; 38
    2494:	5f 49       	sbci	r21, 0x9F	; 159
    2496:	4f 38       	cpi	r20, 0x8F	; 143
    2498:	28 30       	cpi	r18, 0x08	; 8
    249a:	78 33       	cpi	r23, 0x38	; 56
    249c:	39 29       	or	r19, r9
    249e:	00 01       	movw	r0, r0
    24a0:	a1 01       	movw	r20, r2
    24a2:	47 49       	sbci	r20, 0x97	; 151
    24a4:	46 52       	subi	r20, 0x26	; 38
    24a6:	20 5f       	subi	r18, 0xF0	; 240
    24a8:	53 46       	sbci	r21, 0x63	; 99
    24aa:	52 5f       	subi	r21, 0xF2	; 242
    24ac:	49 4f       	sbci	r20, 0xF9	; 249
    24ae:	38 28       	or	r3, r8
    24b0:	30 78       	andi	r19, 0x80	; 128
    24b2:	33 41       	sbci	r19, 0x13	; 19
    24b4:	29 00       	.word	0x0029	; ????
    24b6:	01 a2       	std	Z+33, r0	; 0x21
    24b8:	01 47       	sbci	r16, 0x71	; 113
    24ba:	49 4d       	sbci	r20, 0xD9	; 217
    24bc:	53 4b       	sbci	r21, 0xB3	; 179
    24be:	20 5f       	subi	r18, 0xF0	; 240
    24c0:	53 46       	sbci	r21, 0x63	; 99
    24c2:	52 5f       	subi	r21, 0xF2	; 242
    24c4:	49 4f       	sbci	r20, 0xF9	; 249
    24c6:	38 28       	or	r3, r8
    24c8:	30 78       	andi	r19, 0x80	; 128
    24ca:	33 42       	sbci	r19, 0x23	; 35
    24cc:	29 00       	.word	0x0029	; ????
    24ce:	01 a3       	std	Z+33, r16	; 0x21
    24d0:	01 47       	sbci	r16, 0x71	; 113
    24d2:	49 43       	sbci	r20, 0x39	; 57
    24d4:	52 20       	and	r5, r2
    24d6:	47 49       	sbci	r20, 0x97	; 151
    24d8:	4d 53       	subi	r20, 0x3D	; 61
    24da:	4b 00       	.word	0x004b	; ????
    24dc:	01 a5       	ldd	r16, Z+41	; 0x29
    24de:	01 4f       	sbci	r16, 0xF1	; 241
    24e0:	43 52       	subi	r20, 0x23	; 35
    24e2:	30 20       	and	r3, r0
    24e4:	5f 53       	subi	r21, 0x3F	; 63
    24e6:	46 52       	subi	r20, 0x26	; 38
    24e8:	5f 49       	sbci	r21, 0x9F	; 159
    24ea:	4f 38       	cpi	r20, 0x8F	; 143
    24ec:	28 30       	cpi	r18, 0x08	; 8
    24ee:	78 33       	cpi	r23, 0x38	; 56
    24f0:	43 29       	or	r20, r3
    24f2:	00 01       	movw	r0, r0
    24f4:	ae 01       	movw	r20, r28
    24f6:	49 4e       	sbci	r20, 0xE9	; 233
    24f8:	54 30       	cpi	r21, 0x04	; 4
    24fa:	5f 76       	andi	r21, 0x6F	; 111
    24fc:	65 63       	ori	r22, 0x35	; 53
    24fe:	74 20       	and	r7, r4
    2500:	5f 56       	subi	r21, 0x6F	; 111
    2502:	45 43       	sbci	r20, 0x35	; 53
    2504:	54 4f       	sbci	r21, 0xF4	; 244
    2506:	52 28       	or	r5, r2
    2508:	31 29       	or	r19, r1
    250a:	00 01       	movw	r0, r0
    250c:	af 01       	movw	r20, r30
    250e:	53 49       	sbci	r21, 0x93	; 147
    2510:	47 5f       	subi	r20, 0xF7	; 247
    2512:	49 4e       	sbci	r20, 0xE9	; 233
    2514:	54 45       	sbci	r21, 0x54	; 84
    2516:	52 52       	subi	r21, 0x22	; 34
    2518:	55 50       	subi	r21, 0x05	; 5
    251a:	54 30       	cpi	r21, 0x04	; 4
    251c:	20 5f       	subi	r18, 0xF0	; 240
    251e:	56 45       	sbci	r21, 0x56	; 86
    2520:	43 54       	subi	r20, 0x43	; 67
    2522:	4f 52       	subi	r20, 0x2F	; 47
    2524:	28 31       	cpi	r18, 0x18	; 24
    2526:	29 00       	.word	0x0029	; ????
    2528:	01 b2       	in	r0, 0x11	; 17
    252a:	01 49       	sbci	r16, 0x91	; 145
    252c:	4e 54       	subi	r20, 0x4E	; 78
    252e:	31 5f       	subi	r19, 0xF1	; 241
    2530:	76 65       	ori	r23, 0x56	; 86
    2532:	63 74       	andi	r22, 0x43	; 67
    2534:	20 5f       	subi	r18, 0xF0	; 240
    2536:	56 45       	sbci	r21, 0x56	; 86
    2538:	43 54       	subi	r20, 0x43	; 67
    253a:	4f 52       	subi	r20, 0x2F	; 47
    253c:	28 32       	cpi	r18, 0x28	; 40
    253e:	29 00       	.word	0x0029	; ????
    2540:	01 b3       	in	r16, 0x11	; 17
    2542:	01 53       	subi	r16, 0x31	; 49
    2544:	49 47       	sbci	r20, 0x79	; 121
    2546:	5f 49       	sbci	r21, 0x9F	; 159
    2548:	4e 54       	subi	r20, 0x4E	; 78
    254a:	45 52       	subi	r20, 0x25	; 37
    254c:	52 55       	subi	r21, 0x52	; 82
    254e:	50 54       	subi	r21, 0x40	; 64
    2550:	31 20       	and	r3, r1
    2552:	5f 56       	subi	r21, 0x6F	; 111
    2554:	45 43       	sbci	r20, 0x35	; 53
    2556:	54 4f       	sbci	r21, 0xF4	; 244
    2558:	52 28       	or	r5, r2
    255a:	32 29       	or	r19, r2
    255c:	00 01       	movw	r0, r0
    255e:	b6 01       	movw	r22, r12
    2560:	49 4e       	sbci	r20, 0xE9	; 233
    2562:	54 32       	cpi	r21, 0x24	; 36
    2564:	5f 76       	andi	r21, 0x6F	; 111
    2566:	65 63       	ori	r22, 0x35	; 53
    2568:	74 20       	and	r7, r4
    256a:	5f 56       	subi	r21, 0x6F	; 111
    256c:	45 43       	sbci	r20, 0x35	; 53
    256e:	54 4f       	sbci	r21, 0xF4	; 244
    2570:	52 28       	or	r5, r2
    2572:	33 29       	or	r19, r3
    2574:	00 01       	movw	r0, r0
    2576:	b7 01       	movw	r22, r14
    2578:	53 49       	sbci	r21, 0x93	; 147
    257a:	47 5f       	subi	r20, 0xF7	; 247
    257c:	49 4e       	sbci	r20, 0xE9	; 233
    257e:	54 45       	sbci	r21, 0x54	; 84
    2580:	52 52       	subi	r21, 0x22	; 34
    2582:	55 50       	subi	r21, 0x05	; 5
    2584:	54 32       	cpi	r21, 0x24	; 36
    2586:	20 5f       	subi	r18, 0xF0	; 240
    2588:	56 45       	sbci	r21, 0x56	; 86
    258a:	43 54       	subi	r20, 0x43	; 67
    258c:	4f 52       	subi	r20, 0x2F	; 47
    258e:	28 33       	cpi	r18, 0x38	; 56
    2590:	29 00       	.word	0x0029	; ????
    2592:	01 ba       	out	0x11, r0	; 17
    2594:	01 54       	subi	r16, 0x41	; 65
    2596:	49 4d       	sbci	r20, 0xD9	; 217
    2598:	45 52       	subi	r20, 0x25	; 37
    259a:	32 5f       	subi	r19, 0xF2	; 242
    259c:	43 4f       	sbci	r20, 0xF3	; 243
    259e:	4d 50       	subi	r20, 0x0D	; 13
    25a0:	5f 76       	andi	r21, 0x6F	; 111
    25a2:	65 63       	ori	r22, 0x35	; 53
    25a4:	74 20       	and	r7, r4
    25a6:	5f 56       	subi	r21, 0x6F	; 111
    25a8:	45 43       	sbci	r20, 0x35	; 53
    25aa:	54 4f       	sbci	r21, 0xF4	; 244
    25ac:	52 28       	or	r5, r2
    25ae:	34 29       	or	r19, r4
    25b0:	00 01       	movw	r0, r0
    25b2:	bb 01       	movw	r22, r22
    25b4:	53 49       	sbci	r21, 0x93	; 147
    25b6:	47 5f       	subi	r20, 0xF7	; 247
    25b8:	4f 55       	subi	r20, 0x5F	; 95
    25ba:	54 50       	subi	r21, 0x04	; 4
    25bc:	55 54       	subi	r21, 0x45	; 69
    25be:	5f 43       	sbci	r21, 0x3F	; 63
    25c0:	4f 4d       	sbci	r20, 0xDF	; 223
    25c2:	50 41       	sbci	r21, 0x10	; 16
    25c4:	52 45       	sbci	r21, 0x52	; 82
    25c6:	32 20       	and	r3, r2
    25c8:	5f 56       	subi	r21, 0x6F	; 111
    25ca:	45 43       	sbci	r20, 0x35	; 53
    25cc:	54 4f       	sbci	r21, 0xF4	; 244
    25ce:	52 28       	or	r5, r2
    25d0:	34 29       	or	r19, r4
    25d2:	00 01       	movw	r0, r0
    25d4:	be 01       	movw	r22, r28
    25d6:	54 49       	sbci	r21, 0x94	; 148
    25d8:	4d 45       	sbci	r20, 0x5D	; 93
    25da:	52 32       	cpi	r21, 0x22	; 34
    25dc:	5f 4f       	sbci	r21, 0xFF	; 255
    25de:	56 46       	sbci	r21, 0x66	; 102
    25e0:	5f 76       	andi	r21, 0x6F	; 111
    25e2:	65 63       	ori	r22, 0x35	; 53
    25e4:	74 20       	and	r7, r4
    25e6:	5f 56       	subi	r21, 0x6F	; 111
    25e8:	45 43       	sbci	r20, 0x35	; 53
    25ea:	54 4f       	sbci	r21, 0xF4	; 244
    25ec:	52 28       	or	r5, r2
    25ee:	35 29       	or	r19, r5
    25f0:	00 01       	movw	r0, r0
    25f2:	bf 01       	movw	r22, r30
    25f4:	53 49       	sbci	r21, 0x93	; 147
    25f6:	47 5f       	subi	r20, 0xF7	; 247
    25f8:	4f 56       	subi	r20, 0x6F	; 111
    25fa:	45 52       	subi	r20, 0x25	; 37
    25fc:	46 4c       	sbci	r20, 0xC6	; 198
    25fe:	4f 57       	subi	r20, 0x7F	; 127
    2600:	32 20       	and	r3, r2
    2602:	5f 56       	subi	r21, 0x6F	; 111
    2604:	45 43       	sbci	r20, 0x35	; 53
    2606:	54 4f       	sbci	r21, 0xF4	; 244
    2608:	52 28       	or	r5, r2
    260a:	35 29       	or	r19, r5
    260c:	00 01       	movw	r0, r0
    260e:	c2 01       	movw	r24, r4
    2610:	54 49       	sbci	r21, 0x94	; 148
    2612:	4d 45       	sbci	r20, 0x5D	; 93
    2614:	52 31       	cpi	r21, 0x12	; 18
    2616:	5f 43       	sbci	r21, 0x3F	; 63
    2618:	41 50       	subi	r20, 0x01	; 1
    261a:	54 5f       	subi	r21, 0xF4	; 244
    261c:	76 65       	ori	r23, 0x56	; 86
    261e:	63 74       	andi	r22, 0x43	; 67
    2620:	20 5f       	subi	r18, 0xF0	; 240
    2622:	56 45       	sbci	r21, 0x56	; 86
    2624:	43 54       	subi	r20, 0x43	; 67
    2626:	4f 52       	subi	r20, 0x2F	; 47
    2628:	28 36       	cpi	r18, 0x68	; 104
    262a:	29 00       	.word	0x0029	; ????
    262c:	01 c3       	rjmp	.+1538   	; 0x2c30 <__data_load_end+0x1f5c>
    262e:	01 53       	subi	r16, 0x31	; 49
    2630:	49 47       	sbci	r20, 0x79	; 121
    2632:	5f 49       	sbci	r21, 0x9F	; 159
    2634:	4e 50       	subi	r20, 0x0E	; 14
    2636:	55 54       	subi	r21, 0x45	; 69
    2638:	5f 43       	sbci	r21, 0x3F	; 63
    263a:	41 50       	subi	r20, 0x01	; 1
    263c:	54 55       	subi	r21, 0x54	; 84
    263e:	52 45       	sbci	r21, 0x52	; 82
    2640:	31 20       	and	r3, r1
    2642:	5f 56       	subi	r21, 0x6F	; 111
    2644:	45 43       	sbci	r20, 0x35	; 53
    2646:	54 4f       	sbci	r21, 0xF4	; 244
    2648:	52 28       	or	r5, r2
    264a:	36 29       	or	r19, r6
    264c:	00 01       	movw	r0, r0
    264e:	c6 01       	movw	r24, r12
    2650:	54 49       	sbci	r21, 0x94	; 148
    2652:	4d 45       	sbci	r20, 0x5D	; 93
    2654:	52 31       	cpi	r21, 0x12	; 18
    2656:	5f 43       	sbci	r21, 0x3F	; 63
    2658:	4f 4d       	sbci	r20, 0xDF	; 223
    265a:	50 41       	sbci	r21, 0x10	; 16
    265c:	5f 76       	andi	r21, 0x6F	; 111
    265e:	65 63       	ori	r22, 0x35	; 53
    2660:	74 20       	and	r7, r4
    2662:	5f 56       	subi	r21, 0x6F	; 111
    2664:	45 43       	sbci	r20, 0x35	; 53
    2666:	54 4f       	sbci	r21, 0xF4	; 244
    2668:	52 28       	or	r5, r2
    266a:	37 29       	or	r19, r7
    266c:	00 01       	movw	r0, r0
    266e:	c7 01       	movw	r24, r14
    2670:	53 49       	sbci	r21, 0x93	; 147
    2672:	47 5f       	subi	r20, 0xF7	; 247
    2674:	4f 55       	subi	r20, 0x5F	; 95
    2676:	54 50       	subi	r21, 0x04	; 4
    2678:	55 54       	subi	r21, 0x45	; 69
    267a:	5f 43       	sbci	r21, 0x3F	; 63
    267c:	4f 4d       	sbci	r20, 0xDF	; 223
    267e:	50 41       	sbci	r21, 0x10	; 16
    2680:	52 45       	sbci	r21, 0x52	; 82
    2682:	31 41       	sbci	r19, 0x11	; 17
    2684:	20 5f       	subi	r18, 0xF0	; 240
    2686:	56 45       	sbci	r21, 0x56	; 86
    2688:	43 54       	subi	r20, 0x43	; 67
    268a:	4f 52       	subi	r20, 0x2F	; 47
    268c:	28 37       	cpi	r18, 0x78	; 120
    268e:	29 00       	.word	0x0029	; ????
    2690:	01 ca       	rjmp	.-3070   	; 0x1a94 <__data_load_end+0xdc0>
    2692:	01 54       	subi	r16, 0x41	; 65
    2694:	49 4d       	sbci	r20, 0xD9	; 217
    2696:	45 52       	subi	r20, 0x25	; 37
    2698:	31 5f       	subi	r19, 0xF1	; 241
    269a:	43 4f       	sbci	r20, 0xF3	; 243
    269c:	4d 50       	subi	r20, 0x0D	; 13
    269e:	42 5f       	subi	r20, 0xF2	; 242
    26a0:	76 65       	ori	r23, 0x56	; 86
    26a2:	63 74       	andi	r22, 0x43	; 67
    26a4:	20 5f       	subi	r18, 0xF0	; 240
    26a6:	56 45       	sbci	r21, 0x56	; 86
    26a8:	43 54       	subi	r20, 0x43	; 67
    26aa:	4f 52       	subi	r20, 0x2F	; 47
    26ac:	28 38       	cpi	r18, 0x88	; 136
    26ae:	29 00       	.word	0x0029	; ????
    26b0:	01 cb       	rjmp	.-2558   	; 0x1cb4 <__data_load_end+0xfe0>
    26b2:	01 53       	subi	r16, 0x31	; 49
    26b4:	49 47       	sbci	r20, 0x79	; 121
    26b6:	5f 4f       	sbci	r21, 0xFF	; 255
    26b8:	55 54       	subi	r21, 0x45	; 69
    26ba:	50 55       	subi	r21, 0x50	; 80
    26bc:	54 5f       	subi	r21, 0xF4	; 244
    26be:	43 4f       	sbci	r20, 0xF3	; 243
    26c0:	4d 50       	subi	r20, 0x0D	; 13
    26c2:	41 52       	subi	r20, 0x21	; 33
    26c4:	45 31       	cpi	r20, 0x15	; 21
    26c6:	42 20       	and	r4, r2
    26c8:	5f 56       	subi	r21, 0x6F	; 111
    26ca:	45 43       	sbci	r20, 0x35	; 53
    26cc:	54 4f       	sbci	r21, 0xF4	; 244
    26ce:	52 28       	or	r5, r2
    26d0:	38 29       	or	r19, r8
    26d2:	00 01       	movw	r0, r0
    26d4:	ce 01       	movw	r24, r28
    26d6:	54 49       	sbci	r21, 0x94	; 148
    26d8:	4d 45       	sbci	r20, 0x5D	; 93
    26da:	52 31       	cpi	r21, 0x12	; 18
    26dc:	5f 4f       	sbci	r21, 0xFF	; 255
    26de:	56 46       	sbci	r21, 0x66	; 102
    26e0:	5f 76       	andi	r21, 0x6F	; 111
    26e2:	65 63       	ori	r22, 0x35	; 53
    26e4:	74 20       	and	r7, r4
    26e6:	5f 56       	subi	r21, 0x6F	; 111
    26e8:	45 43       	sbci	r20, 0x35	; 53
    26ea:	54 4f       	sbci	r21, 0xF4	; 244
    26ec:	52 28       	or	r5, r2
    26ee:	39 29       	or	r19, r9
    26f0:	00 01       	movw	r0, r0
    26f2:	cf 01       	movw	r24, r30
    26f4:	53 49       	sbci	r21, 0x93	; 147
    26f6:	47 5f       	subi	r20, 0xF7	; 247
    26f8:	4f 56       	subi	r20, 0x6F	; 111
    26fa:	45 52       	subi	r20, 0x25	; 37
    26fc:	46 4c       	sbci	r20, 0xC6	; 198
    26fe:	4f 57       	subi	r20, 0x7F	; 127
    2700:	31 20       	and	r3, r1
    2702:	5f 56       	subi	r21, 0x6F	; 111
    2704:	45 43       	sbci	r20, 0x35	; 53
    2706:	54 4f       	sbci	r21, 0xF4	; 244
    2708:	52 28       	or	r5, r2
    270a:	39 29       	or	r19, r9
    270c:	00 01       	movw	r0, r0
    270e:	d2 01       	movw	r26, r4
    2710:	54 49       	sbci	r21, 0x94	; 148
    2712:	4d 45       	sbci	r20, 0x5D	; 93
    2714:	52 30       	cpi	r21, 0x02	; 2
    2716:	5f 43       	sbci	r21, 0x3F	; 63
    2718:	4f 4d       	sbci	r20, 0xDF	; 223
    271a:	50 5f       	subi	r21, 0xF0	; 240
    271c:	76 65       	ori	r23, 0x56	; 86
    271e:	63 74       	andi	r22, 0x43	; 67
    2720:	20 5f       	subi	r18, 0xF0	; 240
    2722:	56 45       	sbci	r21, 0x56	; 86
    2724:	43 54       	subi	r20, 0x43	; 67
    2726:	4f 52       	subi	r20, 0x2F	; 47
    2728:	28 31       	cpi	r18, 0x18	; 24
    272a:	30 29       	or	r19, r0
    272c:	00 01       	movw	r0, r0
    272e:	d3 01       	movw	r26, r6
    2730:	53 49       	sbci	r21, 0x93	; 147
    2732:	47 5f       	subi	r20, 0xF7	; 247
    2734:	4f 55       	subi	r20, 0x5F	; 95
    2736:	54 50       	subi	r21, 0x04	; 4
    2738:	55 54       	subi	r21, 0x45	; 69
    273a:	5f 43       	sbci	r21, 0x3F	; 63
    273c:	4f 4d       	sbci	r20, 0xDF	; 223
    273e:	50 41       	sbci	r21, 0x10	; 16
    2740:	52 45       	sbci	r21, 0x52	; 82
    2742:	30 20       	and	r3, r0
    2744:	5f 56       	subi	r21, 0x6F	; 111
    2746:	45 43       	sbci	r20, 0x35	; 53
    2748:	54 4f       	sbci	r21, 0xF4	; 244
    274a:	52 28       	or	r5, r2
    274c:	31 30       	cpi	r19, 0x01	; 1
    274e:	29 00       	.word	0x0029	; ????
    2750:	01 d6       	rcall	.+3074   	; 0x3354 <__data_load_end+0x2680>
    2752:	01 54       	subi	r16, 0x41	; 65
    2754:	49 4d       	sbci	r20, 0xD9	; 217
    2756:	45 52       	subi	r20, 0x25	; 37
    2758:	30 5f       	subi	r19, 0xF0	; 240
    275a:	4f 56       	subi	r20, 0x6F	; 111
    275c:	46 5f       	subi	r20, 0xF6	; 246
    275e:	76 65       	ori	r23, 0x56	; 86
    2760:	63 74       	andi	r22, 0x43	; 67
    2762:	20 5f       	subi	r18, 0xF0	; 240
    2764:	56 45       	sbci	r21, 0x56	; 86
    2766:	43 54       	subi	r20, 0x43	; 67
    2768:	4f 52       	subi	r20, 0x2F	; 47
    276a:	28 31       	cpi	r18, 0x18	; 24
    276c:	31 29       	or	r19, r1
    276e:	00 01       	movw	r0, r0
    2770:	d7 01       	movw	r26, r14
    2772:	53 49       	sbci	r21, 0x93	; 147
    2774:	47 5f       	subi	r20, 0xF7	; 247
    2776:	4f 56       	subi	r20, 0x6F	; 111
    2778:	45 52       	subi	r20, 0x25	; 37
    277a:	46 4c       	sbci	r20, 0xC6	; 198
    277c:	4f 57       	subi	r20, 0x7F	; 127
    277e:	30 20       	and	r3, r0
    2780:	5f 56       	subi	r21, 0x6F	; 111
    2782:	45 43       	sbci	r20, 0x35	; 53
    2784:	54 4f       	sbci	r21, 0xF4	; 244
    2786:	52 28       	or	r5, r2
    2788:	31 31       	cpi	r19, 0x11	; 17
    278a:	29 00       	.word	0x0029	; ????
    278c:	01 da       	rcall	.-3070   	; 0x1b90 <__data_load_end+0xebc>
    278e:	01 53       	subi	r16, 0x31	; 49
    2790:	50 49       	sbci	r21, 0x90	; 144
    2792:	5f 53       	subi	r21, 0x3F	; 63
    2794:	54 43       	sbci	r21, 0x34	; 52
    2796:	5f 76       	andi	r21, 0x6F	; 111
    2798:	65 63       	ori	r22, 0x35	; 53
    279a:	74 20       	and	r7, r4
    279c:	5f 56       	subi	r21, 0x6F	; 111
    279e:	45 43       	sbci	r20, 0x35	; 53
    27a0:	54 4f       	sbci	r21, 0xF4	; 244
    27a2:	52 28       	or	r5, r2
    27a4:	31 32       	cpi	r19, 0x21	; 33
    27a6:	29 00       	.word	0x0029	; ????
    27a8:	01 db       	rcall	.-2558   	; 0x1dac <__data_load_end+0x10d8>
    27aa:	01 53       	subi	r16, 0x31	; 49
    27ac:	49 47       	sbci	r20, 0x79	; 121
    27ae:	5f 53       	subi	r21, 0x3F	; 63
    27b0:	50 49       	sbci	r21, 0x90	; 144
    27b2:	20 5f       	subi	r18, 0xF0	; 240
    27b4:	56 45       	sbci	r21, 0x56	; 86
    27b6:	43 54       	subi	r20, 0x43	; 67
    27b8:	4f 52       	subi	r20, 0x2F	; 47
    27ba:	28 31       	cpi	r18, 0x18	; 24
    27bc:	32 29       	or	r19, r2
    27be:	00 01       	movw	r0, r0
    27c0:	de 01       	movw	r26, r28
    27c2:	55 53       	subi	r21, 0x35	; 53
    27c4:	41 52       	subi	r20, 0x21	; 33
    27c6:	54 5f       	subi	r21, 0xF4	; 244
    27c8:	52 58       	subi	r21, 0x82	; 130
    27ca:	43 5f       	subi	r20, 0xF3	; 243
    27cc:	76 65       	ori	r23, 0x56	; 86
    27ce:	63 74       	andi	r22, 0x43	; 67
    27d0:	20 5f       	subi	r18, 0xF0	; 240
    27d2:	56 45       	sbci	r21, 0x56	; 86
    27d4:	43 54       	subi	r20, 0x43	; 67
    27d6:	4f 52       	subi	r20, 0x2F	; 47
    27d8:	28 31       	cpi	r18, 0x18	; 24
    27da:	33 29       	or	r19, r3
    27dc:	00 01       	movw	r0, r0
    27de:	df 01       	movw	r26, r30
    27e0:	53 49       	sbci	r21, 0x93	; 147
    27e2:	47 5f       	subi	r20, 0xF7	; 247
    27e4:	55 53       	subi	r21, 0x35	; 53
    27e6:	41 52       	subi	r20, 0x21	; 33
    27e8:	54 5f       	subi	r21, 0xF4	; 244
    27ea:	52 45       	sbci	r21, 0x52	; 82
    27ec:	43 56       	subi	r20, 0x63	; 99
    27ee:	20 5f       	subi	r18, 0xF0	; 240
    27f0:	56 45       	sbci	r21, 0x56	; 86
    27f2:	43 54       	subi	r20, 0x43	; 67
    27f4:	4f 52       	subi	r20, 0x2F	; 47
    27f6:	28 31       	cpi	r18, 0x18	; 24
    27f8:	33 29       	or	r19, r3
    27fa:	00 01       	movw	r0, r0
    27fc:	e0 01       	movw	r28, r0
    27fe:	53 49       	sbci	r21, 0x93	; 147
    2800:	47 5f       	subi	r20, 0xF7	; 247
    2802:	55 41       	sbci	r21, 0x15	; 21
    2804:	52 54       	subi	r21, 0x42	; 66
    2806:	5f 52       	subi	r21, 0x2F	; 47
    2808:	45 43       	sbci	r20, 0x35	; 53
    280a:	56 20       	and	r5, r6
    280c:	5f 56       	subi	r21, 0x6F	; 111
    280e:	45 43       	sbci	r20, 0x35	; 53
    2810:	54 4f       	sbci	r21, 0xF4	; 244
    2812:	52 28       	or	r5, r2
    2814:	31 33       	cpi	r19, 0x31	; 49
    2816:	29 00       	.word	0x0029	; ????
    2818:	01 e3       	ldi	r16, 0x31	; 49
    281a:	01 55       	subi	r16, 0x51	; 81
    281c:	53 41       	sbci	r21, 0x13	; 19
    281e:	52 54       	subi	r21, 0x42	; 66
    2820:	5f 55       	subi	r21, 0x5F	; 95
    2822:	44 52       	subi	r20, 0x24	; 36
    2824:	45 5f       	subi	r20, 0xF5	; 245
    2826:	76 65       	ori	r23, 0x56	; 86
    2828:	63 74       	andi	r22, 0x43	; 67
    282a:	20 5f       	subi	r18, 0xF0	; 240
    282c:	56 45       	sbci	r21, 0x56	; 86
    282e:	43 54       	subi	r20, 0x43	; 67
    2830:	4f 52       	subi	r20, 0x2F	; 47
    2832:	28 31       	cpi	r18, 0x18	; 24
    2834:	34 29       	or	r19, r4
    2836:	00 01       	movw	r0, r0
    2838:	e4 01       	movw	r28, r8
    283a:	53 49       	sbci	r21, 0x93	; 147
    283c:	47 5f       	subi	r20, 0xF7	; 247
    283e:	55 53       	subi	r21, 0x35	; 53
    2840:	41 52       	subi	r20, 0x21	; 33
    2842:	54 5f       	subi	r21, 0xF4	; 244
    2844:	44 41       	sbci	r20, 0x14	; 20
    2846:	54 41       	sbci	r21, 0x14	; 20
    2848:	20 5f       	subi	r18, 0xF0	; 240
    284a:	56 45       	sbci	r21, 0x56	; 86
    284c:	43 54       	subi	r20, 0x43	; 67
    284e:	4f 52       	subi	r20, 0x2F	; 47
    2850:	28 31       	cpi	r18, 0x18	; 24
    2852:	34 29       	or	r19, r4
    2854:	00 01       	movw	r0, r0
    2856:	e5 01       	movw	r28, r10
    2858:	53 49       	sbci	r21, 0x93	; 147
    285a:	47 5f       	subi	r20, 0xF7	; 247
    285c:	55 41       	sbci	r21, 0x15	; 21
    285e:	52 54       	subi	r21, 0x42	; 66
    2860:	5f 44       	sbci	r21, 0x4F	; 79
    2862:	41 54       	subi	r20, 0x41	; 65
    2864:	41 20       	and	r4, r1
    2866:	5f 56       	subi	r21, 0x6F	; 111
    2868:	45 43       	sbci	r20, 0x35	; 53
    286a:	54 4f       	sbci	r21, 0xF4	; 244
    286c:	52 28       	or	r5, r2
    286e:	31 34       	cpi	r19, 0x41	; 65
    2870:	29 00       	.word	0x0029	; ????
    2872:	01 e8       	ldi	r16, 0x81	; 129
    2874:	01 55       	subi	r16, 0x51	; 81
    2876:	53 41       	sbci	r21, 0x13	; 19
    2878:	52 54       	subi	r21, 0x42	; 66
    287a:	5f 54       	subi	r21, 0x4F	; 79
    287c:	58 43       	sbci	r21, 0x38	; 56
    287e:	5f 76       	andi	r21, 0x6F	; 111
    2880:	65 63       	ori	r22, 0x35	; 53
    2882:	74 20       	and	r7, r4
    2884:	5f 56       	subi	r21, 0x6F	; 111
    2886:	45 43       	sbci	r20, 0x35	; 53
    2888:	54 4f       	sbci	r21, 0xF4	; 244
    288a:	52 28       	or	r5, r2
    288c:	31 35       	cpi	r19, 0x51	; 81
    288e:	29 00       	.word	0x0029	; ????
    2890:	01 e9       	ldi	r16, 0x91	; 145
    2892:	01 53       	subi	r16, 0x31	; 49
    2894:	49 47       	sbci	r20, 0x79	; 121
    2896:	5f 55       	subi	r21, 0x5F	; 95
    2898:	53 41       	sbci	r21, 0x13	; 19
    289a:	52 54       	subi	r21, 0x42	; 66
    289c:	5f 54       	subi	r21, 0x4F	; 79
    289e:	52 41       	sbci	r21, 0x12	; 18
    28a0:	4e 53       	subi	r20, 0x3E	; 62
    28a2:	20 5f       	subi	r18, 0xF0	; 240
    28a4:	56 45       	sbci	r21, 0x56	; 86
    28a6:	43 54       	subi	r20, 0x43	; 67
    28a8:	4f 52       	subi	r20, 0x2F	; 47
    28aa:	28 31       	cpi	r18, 0x18	; 24
    28ac:	35 29       	or	r19, r5
    28ae:	00 01       	movw	r0, r0
    28b0:	ea 01       	movw	r28, r20
    28b2:	53 49       	sbci	r21, 0x93	; 147
    28b4:	47 5f       	subi	r20, 0xF7	; 247
    28b6:	55 41       	sbci	r21, 0x15	; 21
    28b8:	52 54       	subi	r21, 0x42	; 66
    28ba:	5f 54       	subi	r21, 0x4F	; 79
    28bc:	52 41       	sbci	r21, 0x12	; 18
    28be:	4e 53       	subi	r20, 0x3E	; 62
    28c0:	20 5f       	subi	r18, 0xF0	; 240
    28c2:	56 45       	sbci	r21, 0x56	; 86
    28c4:	43 54       	subi	r20, 0x43	; 67
    28c6:	4f 52       	subi	r20, 0x2F	; 47
    28c8:	28 31       	cpi	r18, 0x18	; 24
    28ca:	35 29       	or	r19, r5
    28cc:	00 01       	movw	r0, r0
    28ce:	ed 01       	movw	r28, r26
    28d0:	41 44       	sbci	r20, 0x41	; 65
    28d2:	43 5f       	subi	r20, 0xF3	; 243
    28d4:	76 65       	ori	r23, 0x56	; 86
    28d6:	63 74       	andi	r22, 0x43	; 67
    28d8:	20 5f       	subi	r18, 0xF0	; 240
    28da:	56 45       	sbci	r21, 0x56	; 86
    28dc:	43 54       	subi	r20, 0x43	; 67
    28de:	4f 52       	subi	r20, 0x2F	; 47
    28e0:	28 31       	cpi	r18, 0x18	; 24
    28e2:	36 29       	or	r19, r6
    28e4:	00 01       	movw	r0, r0
    28e6:	ee 01       	movw	r28, r28
    28e8:	53 49       	sbci	r21, 0x93	; 147
    28ea:	47 5f       	subi	r20, 0xF7	; 247
    28ec:	41 44       	sbci	r20, 0x41	; 65
    28ee:	43 20       	and	r4, r3
    28f0:	5f 56       	subi	r21, 0x6F	; 111
    28f2:	45 43       	sbci	r20, 0x35	; 53
    28f4:	54 4f       	sbci	r21, 0xF4	; 244
    28f6:	52 28       	or	r5, r2
    28f8:	31 36       	cpi	r19, 0x61	; 97
    28fa:	29 00       	.word	0x0029	; ????
    28fc:	01 f1       	breq	.+64     	; 0x293e <__data_load_end+0x1c6a>
    28fe:	01 45       	sbci	r16, 0x51	; 81
    2900:	45 5f       	subi	r20, 0xF5	; 245
    2902:	52 44       	sbci	r21, 0x42	; 66
    2904:	59 5f       	subi	r21, 0xF9	; 249
    2906:	76 65       	ori	r23, 0x56	; 86
    2908:	63 74       	andi	r22, 0x43	; 67
    290a:	20 5f       	subi	r18, 0xF0	; 240
    290c:	56 45       	sbci	r21, 0x56	; 86
    290e:	43 54       	subi	r20, 0x43	; 67
    2910:	4f 52       	subi	r20, 0x2F	; 47
    2912:	28 31       	cpi	r18, 0x18	; 24
    2914:	37 29       	or	r19, r7
    2916:	00 01       	movw	r0, r0
    2918:	f2 01       	movw	r30, r4
    291a:	53 49       	sbci	r21, 0x93	; 147
    291c:	47 5f       	subi	r20, 0xF7	; 247
    291e:	45 45       	sbci	r20, 0x55	; 85
    2920:	50 52       	subi	r21, 0x20	; 32
    2922:	4f 4d       	sbci	r20, 0xDF	; 223
    2924:	5f 52       	subi	r21, 0x2F	; 47
    2926:	45 41       	sbci	r20, 0x15	; 21
    2928:	44 59       	subi	r20, 0x94	; 148
    292a:	20 5f       	subi	r18, 0xF0	; 240
    292c:	56 45       	sbci	r21, 0x56	; 86
    292e:	43 54       	subi	r20, 0x43	; 67
    2930:	4f 52       	subi	r20, 0x2F	; 47
    2932:	28 31       	cpi	r18, 0x18	; 24
    2934:	37 29       	or	r19, r7
    2936:	00 01       	movw	r0, r0
    2938:	f5 01       	movw	r30, r10
    293a:	41 4e       	sbci	r20, 0xE1	; 225
    293c:	41 5f       	subi	r20, 0xF1	; 241
    293e:	43 4f       	sbci	r20, 0xF3	; 243
    2940:	4d 50       	subi	r20, 0x0D	; 13
    2942:	5f 76       	andi	r21, 0x6F	; 111
    2944:	65 63       	ori	r22, 0x35	; 53
    2946:	74 20       	and	r7, r4
    2948:	5f 56       	subi	r21, 0x6F	; 111
    294a:	45 43       	sbci	r20, 0x35	; 53
    294c:	54 4f       	sbci	r21, 0xF4	; 244
    294e:	52 28       	or	r5, r2
    2950:	31 38       	cpi	r19, 0x81	; 129
    2952:	29 00       	.word	0x0029	; ????
    2954:	01 f6       	brne	.-128    	; 0x28d6 <__data_load_end+0x1c02>
    2956:	01 53       	subi	r16, 0x31	; 49
    2958:	49 47       	sbci	r20, 0x79	; 121
    295a:	5f 43       	sbci	r21, 0x3F	; 63
    295c:	4f 4d       	sbci	r20, 0xDF	; 223
    295e:	50 41       	sbci	r21, 0x10	; 16
    2960:	52 41       	sbci	r21, 0x12	; 18
    2962:	54 4f       	sbci	r21, 0xF4	; 244
    2964:	52 20       	and	r5, r2
    2966:	5f 56       	subi	r21, 0x6F	; 111
    2968:	45 43       	sbci	r20, 0x35	; 53
    296a:	54 4f       	sbci	r21, 0xF4	; 244
    296c:	52 28       	or	r5, r2
    296e:	31 38       	cpi	r19, 0x81	; 129
    2970:	29 00       	.word	0x0029	; ????
    2972:	01 f9       	bld	r16, 1
    2974:	01 54       	subi	r16, 0x41	; 65
    2976:	57 49       	sbci	r21, 0x97	; 151
    2978:	5f 76       	andi	r21, 0x6F	; 111
    297a:	65 63       	ori	r22, 0x35	; 53
    297c:	74 20       	and	r7, r4
    297e:	5f 56       	subi	r21, 0x6F	; 111
    2980:	45 43       	sbci	r20, 0x35	; 53
    2982:	54 4f       	sbci	r21, 0xF4	; 244
    2984:	52 28       	or	r5, r2
    2986:	31 39       	cpi	r19, 0x91	; 145
    2988:	29 00       	.word	0x0029	; ????
    298a:	01 fa       	bst	r0, 1
    298c:	01 53       	subi	r16, 0x31	; 49
    298e:	49 47       	sbci	r20, 0x79	; 121
    2990:	5f 32       	cpi	r21, 0x2F	; 47
    2992:	57 49       	sbci	r21, 0x97	; 151
    2994:	52 45       	sbci	r21, 0x52	; 82
    2996:	5f 53       	subi	r21, 0x3F	; 63
    2998:	45 52       	subi	r20, 0x25	; 37
    299a:	49 41       	sbci	r20, 0x19	; 25
    299c:	4c 20       	and	r4, r12
    299e:	5f 56       	subi	r21, 0x6F	; 111
    29a0:	45 43       	sbci	r20, 0x35	; 53
    29a2:	54 4f       	sbci	r21, 0xF4	; 244
    29a4:	52 28       	or	r5, r2
    29a6:	31 39       	cpi	r19, 0x91	; 145
    29a8:	29 00       	.word	0x0029	; ????
    29aa:	01 fd       	sbrc	r16, 1
    29ac:	01 53       	subi	r16, 0x31	; 49
    29ae:	50 4d       	sbci	r21, 0xD0	; 208
    29b0:	5f 52       	subi	r21, 0x2F	; 47
    29b2:	44 59       	subi	r20, 0x94	; 148
    29b4:	5f 76       	andi	r21, 0x6F	; 111
    29b6:	65 63       	ori	r22, 0x35	; 53
    29b8:	74 20       	and	r7, r4
    29ba:	5f 56       	subi	r21, 0x6F	; 111
    29bc:	45 43       	sbci	r20, 0x35	; 53
    29be:	54 4f       	sbci	r21, 0xF4	; 244
    29c0:	52 28       	or	r5, r2
    29c2:	32 30       	cpi	r19, 0x02	; 2
    29c4:	29 00       	.word	0x0029	; ????
    29c6:	01 fe       	sbrs	r0, 1
    29c8:	01 53       	subi	r16, 0x31	; 49
    29ca:	49 47       	sbci	r20, 0x79	; 121
    29cc:	5f 53       	subi	r21, 0x3F	; 63
    29ce:	50 4d       	sbci	r21, 0xD0	; 208
    29d0:	5f 52       	subi	r21, 0x2F	; 47
    29d2:	45 41       	sbci	r20, 0x15	; 21
    29d4:	44 59       	subi	r20, 0x94	; 148
    29d6:	20 5f       	subi	r18, 0xF0	; 240
    29d8:	56 45       	sbci	r21, 0x56	; 86
    29da:	43 54       	subi	r20, 0x43	; 67
    29dc:	4f 52       	subi	r20, 0x2F	; 47
    29de:	28 32       	cpi	r18, 0x28	; 40
    29e0:	30 29       	or	r19, r0
    29e2:	00 01       	movw	r0, r0
    29e4:	80 02       	muls	r24, r16
    29e6:	5f 56       	subi	r21, 0x6F	; 111
    29e8:	45 43       	sbci	r20, 0x35	; 53
    29ea:	54 4f       	sbci	r21, 0xF4	; 244
    29ec:	52 53       	subi	r21, 0x32	; 50
    29ee:	5f 53       	subi	r21, 0x3F	; 63
    29f0:	49 5a       	subi	r20, 0xA9	; 169
    29f2:	45 20       	and	r4, r5
    29f4:	38 34       	cpi	r19, 0x48	; 72
    29f6:	00 01       	movw	r0, r0
    29f8:	85 02       	muls	r24, r21
    29fa:	49 4e       	sbci	r20, 0xE9	; 233
    29fc:	54 31       	cpi	r21, 0x14	; 20
    29fe:	20 37       	cpi	r18, 0x70	; 112
    2a00:	00 01       	movw	r0, r0
    2a02:	86 02       	muls	r24, r22
    2a04:	49 4e       	sbci	r20, 0xE9	; 233
    2a06:	54 30       	cpi	r21, 0x04	; 4
    2a08:	20 36       	cpi	r18, 0x60	; 96
    2a0a:	00 01       	movw	r0, r0
    2a0c:	87 02       	muls	r24, r23
    2a0e:	49 4e       	sbci	r20, 0xE9	; 233
    2a10:	54 32       	cpi	r21, 0x24	; 36
    2a12:	20 35       	cpi	r18, 0x50	; 80
    2a14:	00 01       	movw	r0, r0
    2a16:	88 02       	muls	r24, r24
    2a18:	49 56       	subi	r20, 0x69	; 105
    2a1a:	53 45       	sbci	r21, 0x53	; 83
    2a1c:	4c 20       	and	r4, r12
    2a1e:	31 00       	.word	0x0031	; ????
    2a20:	01 89       	ldd	r16, Z+17	; 0x11
    2a22:	02 49       	sbci	r16, 0x92	; 146
    2a24:	56 43       	sbci	r21, 0x36	; 54
    2a26:	45 20       	and	r4, r5
    2a28:	30 00       	.word	0x0030	; ????
    2a2a:	01 8c       	ldd	r0, Z+25	; 0x19
    2a2c:	02 49       	sbci	r16, 0x92	; 146
    2a2e:	4e 54       	subi	r20, 0x4E	; 78
    2a30:	46 31       	cpi	r20, 0x16	; 22
    2a32:	20 37       	cpi	r18, 0x70	; 112
    2a34:	00 01       	movw	r0, r0
    2a36:	8d 02       	muls	r24, r29
    2a38:	49 4e       	sbci	r20, 0xE9	; 233
    2a3a:	54 46       	sbci	r21, 0x64	; 100
    2a3c:	30 20       	and	r3, r0
    2a3e:	36 00       	.word	0x0036	; ????
    2a40:	01 8e       	std	Z+25, r0	; 0x19
    2a42:	02 49       	sbci	r16, 0x92	; 146
    2a44:	4e 54       	subi	r20, 0x4E	; 78
    2a46:	46 32       	cpi	r20, 0x26	; 38
    2a48:	20 35       	cpi	r18, 0x50	; 80
    2a4a:	00 01       	movw	r0, r0
    2a4c:	91 02       	muls	r25, r17
    2a4e:	4f 43       	sbci	r20, 0x3F	; 63
    2a50:	49 45       	sbci	r20, 0x59	; 89
    2a52:	32 20       	and	r3, r2
    2a54:	37 00       	.word	0x0037	; ????
    2a56:	01 92       	st	Z+, r0
    2a58:	02 54       	subi	r16, 0x42	; 66
    2a5a:	4f 49       	sbci	r20, 0x9F	; 159
    2a5c:	45 32       	cpi	r20, 0x25	; 37
    2a5e:	20 36       	cpi	r18, 0x60	; 96
    2a60:	00 01       	movw	r0, r0
    2a62:	93 02       	muls	r25, r19
    2a64:	54 49       	sbci	r21, 0x94	; 148
    2a66:	43 49       	sbci	r20, 0x93	; 147
    2a68:	45 31       	cpi	r20, 0x15	; 21
    2a6a:	20 35       	cpi	r18, 0x50	; 80
    2a6c:	00 01       	movw	r0, r0
    2a6e:	94 02       	muls	r25, r20
    2a70:	4f 43       	sbci	r20, 0x3F	; 63
    2a72:	49 45       	sbci	r20, 0x59	; 89
    2a74:	31 41       	sbci	r19, 0x11	; 17
    2a76:	20 34       	cpi	r18, 0x40	; 64
    2a78:	00 01       	movw	r0, r0
    2a7a:	95 02       	muls	r25, r21
    2a7c:	4f 43       	sbci	r20, 0x3F	; 63
    2a7e:	49 45       	sbci	r20, 0x59	; 89
    2a80:	31 42       	sbci	r19, 0x21	; 33
    2a82:	20 33       	cpi	r18, 0x30	; 48
    2a84:	00 01       	movw	r0, r0
    2a86:	96 02       	muls	r25, r22
    2a88:	54 4f       	sbci	r21, 0xF4	; 244
    2a8a:	49 45       	sbci	r20, 0x59	; 89
    2a8c:	31 20       	and	r3, r1
    2a8e:	32 00       	.word	0x0032	; ????
    2a90:	01 97       	sbiw	r24, 0x01	; 1
    2a92:	02 4f       	sbci	r16, 0xF2	; 242
    2a94:	43 49       	sbci	r20, 0x93	; 147
    2a96:	45 30       	cpi	r20, 0x05	; 5
    2a98:	20 31       	cpi	r18, 0x10	; 16
    2a9a:	00 01       	movw	r0, r0
    2a9c:	98 02       	muls	r25, r24
    2a9e:	54 4f       	sbci	r21, 0xF4	; 244
    2aa0:	49 45       	sbci	r20, 0x59	; 89
    2aa2:	30 20       	and	r3, r0
    2aa4:	30 00       	.word	0x0030	; ????
    2aa6:	01 9b       	sbis	0x00, 1	; 0
    2aa8:	02 4f       	sbci	r16, 0xF2	; 242
    2aaa:	43 46       	sbci	r20, 0x63	; 99
    2aac:	32 20       	and	r3, r2
    2aae:	37 00       	.word	0x0037	; ????
    2ab0:	01 9c       	mul	r0, r1
    2ab2:	02 54       	subi	r16, 0x42	; 66
    2ab4:	4f 56       	subi	r20, 0x6F	; 111
    2ab6:	32 20       	and	r3, r2
    2ab8:	36 00       	.word	0x0036	; ????
    2aba:	01 9d       	mul	r16, r1
    2abc:	02 49       	sbci	r16, 0x92	; 146
    2abe:	43 46       	sbci	r20, 0x63	; 99
    2ac0:	31 20       	and	r3, r1
    2ac2:	35 00       	.word	0x0035	; ????
    2ac4:	01 9e       	mul	r0, r17
    2ac6:	02 4f       	sbci	r16, 0xF2	; 242
    2ac8:	43 46       	sbci	r20, 0x63	; 99
    2aca:	31 41       	sbci	r19, 0x11	; 17
    2acc:	20 34       	cpi	r18, 0x40	; 64
    2ace:	00 01       	movw	r0, r0
    2ad0:	9f 02       	muls	r25, r31
    2ad2:	4f 43       	sbci	r20, 0x3F	; 63
    2ad4:	46 31       	cpi	r20, 0x16	; 22
    2ad6:	42 20       	and	r4, r2
    2ad8:	33 00       	.word	0x0033	; ????
    2ada:	01 a0       	ldd	r0, Z+33	; 0x21
    2adc:	02 54       	subi	r16, 0x42	; 66
    2ade:	4f 56       	subi	r20, 0x6F	; 111
    2ae0:	31 20       	and	r3, r1
    2ae2:	32 00       	.word	0x0032	; ????
    2ae4:	01 a1       	ldd	r16, Z+33	; 0x21
    2ae6:	02 4f       	sbci	r16, 0xF2	; 242
    2ae8:	43 46       	sbci	r20, 0x63	; 99
    2aea:	30 20       	and	r3, r0
    2aec:	31 00       	.word	0x0031	; ????
    2aee:	01 a2       	std	Z+33, r0	; 0x21
    2af0:	02 54       	subi	r16, 0x42	; 66
    2af2:	4f 56       	subi	r20, 0x6F	; 111
    2af4:	30 20       	and	r3, r0
    2af6:	30 00       	.word	0x0030	; ????
    2af8:	01 a5       	ldd	r16, Z+41	; 0x29
    2afa:	02 53       	subi	r16, 0x32	; 50
    2afc:	50 4d       	sbci	r21, 0xD0	; 208
    2afe:	49 45       	sbci	r20, 0x59	; 89
    2b00:	20 37       	cpi	r18, 0x70	; 112
    2b02:	00 01       	movw	r0, r0
    2b04:	a6 02       	muls	r26, r22
    2b06:	52 57       	subi	r21, 0x72	; 114
    2b08:	57 53       	subi	r21, 0x37	; 55
    2b0a:	42 20       	and	r4, r2
    2b0c:	36 00       	.word	0x0036	; ????
    2b0e:	01 a8       	ldd	r0, Z+49	; 0x31
    2b10:	02 52       	subi	r16, 0x22	; 34
    2b12:	57 57       	subi	r21, 0x77	; 119
    2b14:	53 52       	subi	r21, 0x23	; 35
    2b16:	45 20       	and	r4, r5
    2b18:	34 00       	.word	0x0034	; ????
    2b1a:	01 a9       	ldd	r16, Z+49	; 0x31
    2b1c:	02 42       	sbci	r16, 0x22	; 34
    2b1e:	4c 42       	sbci	r20, 0x2C	; 44
    2b20:	53 45       	sbci	r21, 0x53	; 83
    2b22:	54 20       	and	r5, r4
    2b24:	33 00       	.word	0x0033	; ????
    2b26:	01 aa       	std	Z+49, r0	; 0x31
    2b28:	02 50       	subi	r16, 0x02	; 2
    2b2a:	47 57       	subi	r20, 0x77	; 119
    2b2c:	52 54       	subi	r21, 0x42	; 66
    2b2e:	20 32       	cpi	r18, 0x20	; 32
    2b30:	00 01       	movw	r0, r0
    2b32:	ab 02       	muls	r26, r27
    2b34:	50 47       	sbci	r21, 0x70	; 112
    2b36:	45 52       	subi	r20, 0x25	; 37
    2b38:	53 20       	and	r5, r3
    2b3a:	31 00       	.word	0x0031	; ????
    2b3c:	01 ac       	ldd	r0, Z+57	; 0x39
    2b3e:	02 53       	subi	r16, 0x32	; 50
    2b40:	50 4d       	sbci	r21, 0xD0	; 208
    2b42:	45 4e       	sbci	r20, 0xE5	; 229
    2b44:	20 30       	cpi	r18, 0x00	; 0
    2b46:	00 01       	movw	r0, r0
    2b48:	af 02       	muls	r26, r31
    2b4a:	54 57       	subi	r21, 0x74	; 116
    2b4c:	49 4e       	sbci	r20, 0xE9	; 233
    2b4e:	54 20       	and	r5, r4
    2b50:	37 00       	.word	0x0037	; ????
    2b52:	01 b0       	in	r0, 0x01	; 1
    2b54:	02 54       	subi	r16, 0x42	; 66
    2b56:	57 45       	sbci	r21, 0x57	; 87
    2b58:	41 20       	and	r4, r1
    2b5a:	36 00       	.word	0x0036	; ????
    2b5c:	01 b1       	in	r16, 0x01	; 1
    2b5e:	02 54       	subi	r16, 0x42	; 66
    2b60:	57 53       	subi	r21, 0x37	; 55
    2b62:	54 41       	sbci	r21, 0x14	; 20
    2b64:	20 35       	cpi	r18, 0x50	; 80
    2b66:	00 01       	movw	r0, r0
    2b68:	b2 02       	muls	r27, r18
    2b6a:	54 57       	subi	r21, 0x74	; 116
    2b6c:	53 54       	subi	r21, 0x43	; 67
    2b6e:	4f 20       	and	r4, r15
    2b70:	34 00       	.word	0x0034	; ????
    2b72:	01 b3       	in	r16, 0x11	; 17
    2b74:	02 54       	subi	r16, 0x42	; 66
    2b76:	57 57       	subi	r21, 0x77	; 119
    2b78:	43 20       	and	r4, r3
    2b7a:	33 00       	.word	0x0033	; ????
    2b7c:	01 b4       	in	r0, 0x21	; 33
    2b7e:	02 54       	subi	r16, 0x42	; 66
    2b80:	57 45       	sbci	r21, 0x57	; 87
    2b82:	4e 20       	and	r4, r14
    2b84:	32 00       	.word	0x0032	; ????
    2b86:	01 b6       	in	r0, 0x31	; 49
    2b88:	02 54       	subi	r16, 0x42	; 66
    2b8a:	57 49       	sbci	r21, 0x97	; 151
    2b8c:	45 20       	and	r4, r5
    2b8e:	30 00       	.word	0x0030	; ????
    2b90:	01 b9       	out	0x01, r16	; 1
    2b92:	02 54       	subi	r16, 0x42	; 66
    2b94:	57 41       	sbci	r21, 0x17	; 23
    2b96:	36 20       	and	r3, r6
    2b98:	37 00       	.word	0x0037	; ????
    2b9a:	01 ba       	out	0x11, r0	; 17
    2b9c:	02 54       	subi	r16, 0x42	; 66
    2b9e:	57 41       	sbci	r21, 0x17	; 23
    2ba0:	35 20       	and	r3, r5
    2ba2:	36 00       	.word	0x0036	; ????
    2ba4:	01 bb       	out	0x11, r16	; 17
    2ba6:	02 54       	subi	r16, 0x42	; 66
    2ba8:	57 41       	sbci	r21, 0x17	; 23
    2baa:	34 20       	and	r3, r4
    2bac:	35 00       	.word	0x0035	; ????
    2bae:	01 bc       	out	0x21, r0	; 33
    2bb0:	02 54       	subi	r16, 0x42	; 66
    2bb2:	57 41       	sbci	r21, 0x17	; 23
    2bb4:	33 20       	and	r3, r3
    2bb6:	34 00       	.word	0x0034	; ????
    2bb8:	01 bd       	out	0x21, r16	; 33
    2bba:	02 54       	subi	r16, 0x42	; 66
    2bbc:	57 41       	sbci	r21, 0x17	; 23
    2bbe:	32 20       	and	r3, r2
    2bc0:	33 00       	.word	0x0033	; ????
    2bc2:	01 be       	out	0x31, r0	; 49
    2bc4:	02 54       	subi	r16, 0x42	; 66
    2bc6:	57 41       	sbci	r21, 0x17	; 23
    2bc8:	31 20       	and	r3, r1
    2bca:	32 00       	.word	0x0032	; ????
    2bcc:	01 bf       	out	0x31, r16	; 49
    2bce:	02 54       	subi	r16, 0x42	; 66
    2bd0:	57 41       	sbci	r21, 0x17	; 23
    2bd2:	30 20       	and	r3, r0
    2bd4:	31 00       	.word	0x0031	; ????
    2bd6:	01 c0       	rjmp	.+2      	; 0x2bda <__data_load_end+0x1f06>
    2bd8:	02 54       	subi	r16, 0x42	; 66
    2bda:	57 47       	sbci	r21, 0x77	; 119
    2bdc:	43 45       	sbci	r20, 0x53	; 83
    2bde:	20 30       	cpi	r18, 0x00	; 0
    2be0:	00 01       	movw	r0, r0
    2be2:	c3 02       	muls	r28, r19
    2be4:	54 57       	subi	r21, 0x74	; 116
    2be6:	53 37       	cpi	r21, 0x73	; 115
    2be8:	20 37       	cpi	r18, 0x70	; 112
    2bea:	00 01       	movw	r0, r0
    2bec:	c4 02       	muls	r28, r20
    2bee:	54 57       	subi	r21, 0x74	; 116
    2bf0:	53 36       	cpi	r21, 0x63	; 99
    2bf2:	20 36       	cpi	r18, 0x60	; 96
    2bf4:	00 01       	movw	r0, r0
    2bf6:	c5 02       	muls	r28, r21
    2bf8:	54 57       	subi	r21, 0x74	; 116
    2bfa:	53 35       	cpi	r21, 0x53	; 83
    2bfc:	20 35       	cpi	r18, 0x50	; 80
    2bfe:	00 01       	movw	r0, r0
    2c00:	c6 02       	muls	r28, r22
    2c02:	54 57       	subi	r21, 0x74	; 116
    2c04:	53 34       	cpi	r21, 0x43	; 67
    2c06:	20 34       	cpi	r18, 0x40	; 64
    2c08:	00 01       	movw	r0, r0
    2c0a:	c7 02       	muls	r28, r23
    2c0c:	54 57       	subi	r21, 0x74	; 116
    2c0e:	53 33       	cpi	r21, 0x33	; 51
    2c10:	20 33       	cpi	r18, 0x30	; 48
    2c12:	00 01       	movw	r0, r0
    2c14:	c9 02       	muls	r28, r25
    2c16:	54 57       	subi	r21, 0x74	; 116
    2c18:	50 53       	subi	r21, 0x30	; 48
    2c1a:	31 20       	and	r3, r1
    2c1c:	31 00       	.word	0x0031	; ????
    2c1e:	01 ca       	rjmp	.-3070   	; 0x2022 <__data_load_end+0x134e>
    2c20:	02 54       	subi	r16, 0x42	; 66
    2c22:	57 50       	subi	r21, 0x07	; 7
    2c24:	53 30       	cpi	r21, 0x03	; 3
    2c26:	20 30       	cpi	r18, 0x00	; 0
    2c28:	00 01       	movw	r0, r0
    2c2a:	cd 02       	muls	r28, r29
    2c2c:	53 45       	sbci	r21, 0x53	; 83
    2c2e:	20 37       	cpi	r18, 0x70	; 112
    2c30:	00 01       	movw	r0, r0
    2c32:	ce 02       	muls	r28, r30
    2c34:	53 4d       	sbci	r21, 0xD3	; 211
    2c36:	32 20       	and	r3, r2
    2c38:	36 00       	.word	0x0036	; ????
    2c3a:	01 cf       	rjmp	.-510    	; 0x2a3e <__data_load_end+0x1d6a>
    2c3c:	02 53       	subi	r16, 0x32	; 50
    2c3e:	4d 31       	cpi	r20, 0x1D	; 29
    2c40:	20 35       	cpi	r18, 0x50	; 80
    2c42:	00 01       	movw	r0, r0
    2c44:	d0 02       	muls	r29, r16
    2c46:	53 4d       	sbci	r21, 0xD3	; 211
    2c48:	30 20       	and	r3, r0
    2c4a:	34 00       	.word	0x0034	; ????
    2c4c:	01 d1       	rcall	.+514    	; 0x2e50 <__data_load_end+0x217c>
    2c4e:	02 49       	sbci	r16, 0x92	; 146
    2c50:	53 43       	sbci	r21, 0x33	; 51
    2c52:	31 31       	cpi	r19, 0x11	; 17
    2c54:	20 33       	cpi	r18, 0x30	; 48
    2c56:	00 01       	movw	r0, r0
    2c58:	d2 02       	muls	r29, r18
    2c5a:	49 53       	subi	r20, 0x39	; 57
    2c5c:	43 31       	cpi	r20, 0x13	; 19
    2c5e:	30 20       	and	r3, r0
    2c60:	32 00       	.word	0x0032	; ????
    2c62:	01 d3       	rcall	.+1538   	; 0x3266 <__data_load_end+0x2592>
    2c64:	02 49       	sbci	r16, 0x92	; 146
    2c66:	53 43       	sbci	r21, 0x33	; 51
    2c68:	30 31       	cpi	r19, 0x10	; 16
    2c6a:	20 31       	cpi	r18, 0x10	; 16
    2c6c:	00 01       	movw	r0, r0
    2c6e:	d4 02       	muls	r29, r20
    2c70:	49 53       	subi	r20, 0x39	; 57
    2c72:	43 30       	cpi	r20, 0x03	; 3
    2c74:	30 20       	and	r3, r0
    2c76:	30 00       	.word	0x0030	; ????
    2c78:	01 d7       	rcall	.+3586   	; 0x3a7c <__data_load_end+0x2da8>
    2c7a:	02 4a       	sbci	r16, 0xA2	; 162
    2c7c:	54 44       	sbci	r21, 0x44	; 68
    2c7e:	20 37       	cpi	r18, 0x70	; 112
    2c80:	00 01       	movw	r0, r0
    2c82:	d8 02       	muls	r29, r24
    2c84:	49 53       	subi	r20, 0x39	; 57
    2c86:	43 32       	cpi	r20, 0x23	; 35
    2c88:	20 36       	cpi	r18, 0x60	; 96
    2c8a:	00 01       	movw	r0, r0
    2c8c:	da 02       	muls	r29, r26
    2c8e:	4a 54       	subi	r20, 0x4A	; 74
    2c90:	52 46       	sbci	r21, 0x62	; 98
    2c92:	20 34       	cpi	r18, 0x40	; 64
    2c94:	00 01       	movw	r0, r0
    2c96:	db 02       	muls	r29, r27
    2c98:	57 44       	sbci	r21, 0x47	; 71
    2c9a:	52 46       	sbci	r21, 0x62	; 98
    2c9c:	20 33       	cpi	r18, 0x30	; 48
    2c9e:	00 01       	movw	r0, r0
    2ca0:	dc 02       	muls	r29, r28
    2ca2:	42 4f       	sbci	r20, 0xF2	; 242
    2ca4:	52 46       	sbci	r21, 0x62	; 98
    2ca6:	20 32       	cpi	r18, 0x20	; 32
    2ca8:	00 01       	movw	r0, r0
    2caa:	dd 02       	muls	r29, r29
    2cac:	45 58       	subi	r20, 0x85	; 133
    2cae:	54 52       	subi	r21, 0x24	; 36
    2cb0:	46 20       	and	r4, r6
    2cb2:	31 00       	.word	0x0031	; ????
    2cb4:	01 de       	rcall	.-1022   	; 0x28b8 <__data_load_end+0x1be4>
    2cb6:	02 50       	subi	r16, 0x02	; 2
    2cb8:	4f 52       	subi	r20, 0x2F	; 47
    2cba:	46 20       	and	r4, r6
    2cbc:	30 00       	.word	0x0030	; ????
    2cbe:	01 e1       	ldi	r16, 0x11	; 17
    2cc0:	02 41       	sbci	r16, 0x12	; 18
    2cc2:	44 54       	subi	r20, 0x44	; 68
    2cc4:	53 32       	cpi	r21, 0x23	; 35
    2cc6:	20 37       	cpi	r18, 0x70	; 112
    2cc8:	00 01       	movw	r0, r0
    2cca:	e2 02       	muls	r30, r18
    2ccc:	41 44       	sbci	r20, 0x41	; 65
    2cce:	54 53       	subi	r21, 0x34	; 52
    2cd0:	31 20       	and	r3, r1
    2cd2:	36 00       	.word	0x0036	; ????
    2cd4:	01 e3       	ldi	r16, 0x31	; 49
    2cd6:	02 41       	sbci	r16, 0x12	; 18
    2cd8:	44 54       	subi	r20, 0x44	; 68
    2cda:	53 30       	cpi	r21, 0x03	; 3
    2cdc:	20 35       	cpi	r18, 0x50	; 80
    2cde:	00 01       	movw	r0, r0
    2ce0:	e5 02       	muls	r30, r21
    2ce2:	41 43       	sbci	r20, 0x31	; 49
    2ce4:	4d 45       	sbci	r20, 0x5D	; 93
    2ce6:	20 33       	cpi	r18, 0x30	; 48
    2ce8:	00 01       	movw	r0, r0
    2cea:	e6 02       	muls	r30, r22
    2cec:	50 55       	subi	r21, 0x50	; 80
    2cee:	44 20       	and	r4, r4
    2cf0:	32 00       	.word	0x0032	; ????
    2cf2:	01 e7       	ldi	r16, 0x71	; 113
    2cf4:	02 50       	subi	r16, 0x02	; 2
    2cf6:	53 52       	subi	r21, 0x23	; 35
    2cf8:	32 20       	and	r3, r2
    2cfa:	31 00       	.word	0x0031	; ????
    2cfc:	01 e8       	ldi	r16, 0x81	; 129
    2cfe:	02 50       	subi	r16, 0x02	; 2
    2d00:	53 52       	subi	r21, 0x23	; 35
    2d02:	31 30       	cpi	r19, 0x01	; 1
    2d04:	20 30       	cpi	r18, 0x00	; 0
    2d06:	00 01       	movw	r0, r0
    2d08:	eb 02       	muls	r30, r27
    2d0a:	46 4f       	sbci	r20, 0xF6	; 246
    2d0c:	43 30       	cpi	r20, 0x03	; 3
    2d0e:	20 37       	cpi	r18, 0x70	; 112
    2d10:	00 01       	movw	r0, r0
    2d12:	ec 02       	muls	r30, r28
    2d14:	57 47       	sbci	r21, 0x77	; 119
    2d16:	4d 30       	cpi	r20, 0x0D	; 13
    2d18:	30 20       	and	r3, r0
    2d1a:	36 00       	.word	0x0036	; ????
    2d1c:	01 ed       	ldi	r16, 0xD1	; 209
    2d1e:	02 43       	sbci	r16, 0x32	; 50
    2d20:	4f 4d       	sbci	r20, 0xDF	; 223
    2d22:	30 31       	cpi	r19, 0x10	; 16
    2d24:	20 35       	cpi	r18, 0x50	; 80
    2d26:	00 01       	movw	r0, r0
    2d28:	ee 02       	muls	r30, r30
    2d2a:	43 4f       	sbci	r20, 0xF3	; 243
    2d2c:	4d 30       	cpi	r20, 0x0D	; 13
    2d2e:	30 20       	and	r3, r0
    2d30:	34 00       	.word	0x0034	; ????
    2d32:	01 ef       	ldi	r16, 0xF1	; 241
    2d34:	02 57       	subi	r16, 0x72	; 114
    2d36:	47 4d       	sbci	r20, 0xD7	; 215
    2d38:	30 31       	cpi	r19, 0x10	; 16
    2d3a:	20 33       	cpi	r18, 0x30	; 48
    2d3c:	00 01       	movw	r0, r0
    2d3e:	f0 02       	muls	r31, r16
    2d40:	43 53       	subi	r20, 0x33	; 51
    2d42:	30 32       	cpi	r19, 0x20	; 32
    2d44:	20 32       	cpi	r18, 0x20	; 32
    2d46:	00 01       	movw	r0, r0
    2d48:	f1 02       	muls	r31, r17
    2d4a:	43 53       	subi	r20, 0x33	; 51
    2d4c:	30 31       	cpi	r19, 0x10	; 16
    2d4e:	20 31       	cpi	r18, 0x10	; 16
    2d50:	00 01       	movw	r0, r0
    2d52:	f2 02       	muls	r31, r18
    2d54:	43 53       	subi	r20, 0x33	; 51
    2d56:	30 30       	cpi	r19, 0x00	; 0
    2d58:	20 30       	cpi	r18, 0x00	; 0
    2d5a:	00 01       	movw	r0, r0
    2d5c:	f5 02       	muls	r31, r21
    2d5e:	46 4f       	sbci	r20, 0xF6	; 246
    2d60:	43 32       	cpi	r20, 0x23	; 35
    2d62:	20 37       	cpi	r18, 0x70	; 112
    2d64:	00 01       	movw	r0, r0
    2d66:	f6 02       	muls	r31, r22
    2d68:	57 47       	sbci	r21, 0x77	; 119
    2d6a:	4d 32       	cpi	r20, 0x2D	; 45
    2d6c:	30 20       	and	r3, r0
    2d6e:	36 00       	.word	0x0036	; ????
    2d70:	01 f7       	brne	.-64     	; 0x2d32 <__data_load_end+0x205e>
    2d72:	02 43       	sbci	r16, 0x32	; 50
    2d74:	4f 4d       	sbci	r20, 0xDF	; 223
    2d76:	32 31       	cpi	r19, 0x12	; 18
    2d78:	20 35       	cpi	r18, 0x50	; 80
    2d7a:	00 01       	movw	r0, r0
    2d7c:	f8 02       	muls	r31, r24
    2d7e:	43 4f       	sbci	r20, 0xF3	; 243
    2d80:	4d 32       	cpi	r20, 0x2D	; 45
    2d82:	30 20       	and	r3, r0
    2d84:	34 00       	.word	0x0034	; ????
    2d86:	01 f9       	bld	r16, 1
    2d88:	02 57       	subi	r16, 0x72	; 114
    2d8a:	47 4d       	sbci	r20, 0xD7	; 215
    2d8c:	32 31       	cpi	r19, 0x12	; 18
    2d8e:	20 33       	cpi	r18, 0x30	; 48
    2d90:	00 01       	movw	r0, r0
    2d92:	fa 02       	muls	r31, r26
    2d94:	43 53       	subi	r20, 0x33	; 51
    2d96:	32 32       	cpi	r19, 0x22	; 34
    2d98:	20 32       	cpi	r18, 0x20	; 32
    2d9a:	00 01       	movw	r0, r0
    2d9c:	fb 02       	muls	r31, r27
    2d9e:	43 53       	subi	r20, 0x33	; 51
    2da0:	32 31       	cpi	r19, 0x12	; 18
    2da2:	20 31       	cpi	r18, 0x10	; 16
    2da4:	00 01       	movw	r0, r0
    2da6:	fc 02       	muls	r31, r28
    2da8:	43 53       	subi	r20, 0x33	; 51
    2daa:	32 30       	cpi	r19, 0x02	; 2
    2dac:	20 30       	cpi	r18, 0x00	; 0
    2dae:	00 01       	movw	r0, r0
    2db0:	80 03       	fmuls	r16, r16
    2db2:	41 53       	subi	r20, 0x31	; 49
    2db4:	32 20       	and	r3, r2
    2db6:	33 00       	.word	0x0033	; ????
    2db8:	01 81       	ldd	r16, Z+1	; 0x01
    2dba:	03 54       	subi	r16, 0x43	; 67
    2dbc:	43 4e       	sbci	r20, 0xE3	; 227
    2dbe:	32 55       	subi	r19, 0x52	; 82
    2dc0:	42 20       	and	r4, r2
    2dc2:	32 00       	.word	0x0032	; ????
    2dc4:	01 82       	std	Z+1, r0	; 0x01
    2dc6:	03 4f       	sbci	r16, 0xF3	; 243
    2dc8:	43 52       	subi	r20, 0x23	; 35
    2dca:	32 55       	subi	r19, 0x52	; 82
    2dcc:	42 20       	and	r4, r2
    2dce:	31 00       	.word	0x0031	; ????
    2dd0:	01 83       	std	Z+1, r16	; 0x01
    2dd2:	03 54       	subi	r16, 0x43	; 67
    2dd4:	43 52       	subi	r20, 0x23	; 35
    2dd6:	32 55       	subi	r19, 0x52	; 82
    2dd8:	42 20       	and	r4, r2
    2dda:	30 00       	.word	0x0030	; ????
    2ddc:	01 86       	std	Z+9, r0	; 0x09
    2dde:	03 43       	sbci	r16, 0x33	; 51
    2de0:	4f 4d       	sbci	r20, 0xDF	; 223
    2de2:	31 41       	sbci	r19, 0x11	; 17
    2de4:	31 20       	and	r3, r1
    2de6:	37 00       	.word	0x0037	; ????
    2de8:	01 87       	std	Z+9, r16	; 0x09
    2dea:	03 43       	sbci	r16, 0x33	; 51
    2dec:	4f 4d       	sbci	r20, 0xDF	; 223
    2dee:	31 41       	sbci	r19, 0x11	; 17
    2df0:	30 20       	and	r3, r0
    2df2:	36 00       	.word	0x0036	; ????
    2df4:	01 88       	ldd	r0, Z+17	; 0x11
    2df6:	03 43       	sbci	r16, 0x33	; 51
    2df8:	4f 4d       	sbci	r20, 0xDF	; 223
    2dfa:	31 42       	sbci	r19, 0x21	; 33
    2dfc:	31 20       	and	r3, r1
    2dfe:	35 00       	.word	0x0035	; ????
    2e00:	01 89       	ldd	r16, Z+17	; 0x11
    2e02:	03 43       	sbci	r16, 0x33	; 51
    2e04:	4f 4d       	sbci	r20, 0xDF	; 223
    2e06:	31 42       	sbci	r19, 0x21	; 33
    2e08:	30 20       	and	r3, r0
    2e0a:	34 00       	.word	0x0034	; ????
    2e0c:	01 8a       	std	Z+17, r0	; 0x11
    2e0e:	03 46       	sbci	r16, 0x63	; 99
    2e10:	4f 43       	sbci	r20, 0x3F	; 63
    2e12:	31 41       	sbci	r19, 0x11	; 17
    2e14:	20 33       	cpi	r18, 0x30	; 48
    2e16:	00 01       	movw	r0, r0
    2e18:	8b 03       	fmulsu	r16, r19
    2e1a:	46 4f       	sbci	r20, 0xF6	; 246
    2e1c:	43 31       	cpi	r20, 0x13	; 19
    2e1e:	42 20       	and	r4, r2
    2e20:	32 00       	.word	0x0032	; ????
    2e22:	01 8c       	ldd	r0, Z+25	; 0x19
    2e24:	03 57       	subi	r16, 0x73	; 115
    2e26:	47 4d       	sbci	r20, 0xD7	; 215
    2e28:	31 31       	cpi	r19, 0x11	; 17
    2e2a:	20 31       	cpi	r18, 0x10	; 16
    2e2c:	00 01       	movw	r0, r0
    2e2e:	8d 03       	fmulsu	r16, r21
    2e30:	57 47       	sbci	r21, 0x77	; 119
    2e32:	4d 31       	cpi	r20, 0x1D	; 29
    2e34:	30 20       	and	r3, r0
    2e36:	30 00       	.word	0x0030	; ????
    2e38:	01 90       	ld	r0, Z+
    2e3a:	03 49       	sbci	r16, 0x93	; 147
    2e3c:	43 4e       	sbci	r20, 0xE3	; 227
    2e3e:	43 31       	cpi	r20, 0x13	; 19
    2e40:	20 37       	cpi	r18, 0x70	; 112
    2e42:	00 01       	movw	r0, r0
    2e44:	91 03       	fmuls	r17, r17
    2e46:	49 43       	sbci	r20, 0x39	; 57
    2e48:	45 53       	subi	r20, 0x35	; 53
    2e4a:	31 20       	and	r3, r1
    2e4c:	36 00       	.word	0x0036	; ????
    2e4e:	01 93       	st	Z+, r16
    2e50:	03 57       	subi	r16, 0x73	; 115
    2e52:	47 4d       	sbci	r20, 0xD7	; 215
    2e54:	31 33       	cpi	r19, 0x31	; 49
    2e56:	20 34       	cpi	r18, 0x40	; 64
    2e58:	00 01       	movw	r0, r0
    2e5a:	94 03       	fmuls	r17, r20
    2e5c:	57 47       	sbci	r21, 0x77	; 119
    2e5e:	4d 31       	cpi	r20, 0x1D	; 29
    2e60:	32 20       	and	r3, r2
    2e62:	33 00       	.word	0x0033	; ????
    2e64:	01 95       	neg	r16
    2e66:	03 43       	sbci	r16, 0x33	; 51
    2e68:	53 31       	cpi	r21, 0x13	; 19
    2e6a:	32 20       	and	r3, r2
    2e6c:	32 00       	.word	0x0032	; ????
    2e6e:	01 96       	adiw	r24, 0x01	; 1
    2e70:	03 43       	sbci	r16, 0x33	; 51
    2e72:	53 31       	cpi	r21, 0x13	; 19
    2e74:	31 20       	and	r3, r1
    2e76:	31 00       	.word	0x0031	; ????
    2e78:	01 97       	sbiw	r24, 0x01	; 1
    2e7a:	03 43       	sbci	r16, 0x33	; 51
    2e7c:	53 31       	cpi	r21, 0x13	; 19
    2e7e:	30 20       	and	r3, r0
    2e80:	30 00       	.word	0x0030	; ????
    2e82:	01 9b       	sbis	0x00, 1	; 0
    2e84:	03 57       	subi	r16, 0x73	; 115
    2e86:	44 54       	subi	r20, 0x44	; 68
    2e88:	4f 45       	sbci	r20, 0x5F	; 95
    2e8a:	20 34       	cpi	r18, 0x40	; 64
    2e8c:	00 01       	movw	r0, r0
    2e8e:	9c 03       	fmulsu	r17, r20
    2e90:	57 44       	sbci	r21, 0x47	; 71
    2e92:	45 20       	and	r4, r5
    2e94:	33 00       	.word	0x0033	; ????
    2e96:	01 9d       	mul	r16, r1
    2e98:	03 57       	subi	r16, 0x73	; 115
    2e9a:	44 50       	subi	r20, 0x04	; 4
    2e9c:	32 20       	and	r3, r2
    2e9e:	32 00       	.word	0x0032	; ????
    2ea0:	01 9e       	mul	r0, r17
    2ea2:	03 57       	subi	r16, 0x73	; 115
    2ea4:	44 50       	subi	r20, 0x04	; 4
    2ea6:	31 20       	and	r3, r1
    2ea8:	31 00       	.word	0x0031	; ????
    2eaa:	01 9f       	mul	r16, r17
    2eac:	03 57       	subi	r16, 0x73	; 115
    2eae:	44 50       	subi	r20, 0x04	; 4
    2eb0:	30 20       	and	r3, r0
    2eb2:	30 00       	.word	0x0030	; ????
    2eb4:	01 a3       	std	Z+33, r16	; 0x21
    2eb6:	03 50       	subi	r16, 0x03	; 3
    2eb8:	41 37       	cpi	r20, 0x71	; 113
    2eba:	20 37       	cpi	r18, 0x70	; 112
    2ebc:	00 01       	movw	r0, r0
    2ebe:	a4 03       	fmuls	r18, r20
    2ec0:	50 41       	sbci	r21, 0x10	; 16
    2ec2:	36 20       	and	r3, r6
    2ec4:	36 00       	.word	0x0036	; ????
    2ec6:	01 a5       	ldd	r16, Z+41	; 0x29
    2ec8:	03 50       	subi	r16, 0x03	; 3
    2eca:	41 35       	cpi	r20, 0x51	; 81
    2ecc:	20 35       	cpi	r18, 0x50	; 80
    2ece:	00 01       	movw	r0, r0
    2ed0:	a6 03       	fmuls	r18, r22
    2ed2:	50 41       	sbci	r21, 0x10	; 16
    2ed4:	34 20       	and	r3, r4
    2ed6:	34 00       	.word	0x0034	; ????
    2ed8:	01 a7       	std	Z+41, r16	; 0x29
    2eda:	03 50       	subi	r16, 0x03	; 3
    2edc:	41 33       	cpi	r20, 0x31	; 49
    2ede:	20 33       	cpi	r18, 0x30	; 48
    2ee0:	00 01       	movw	r0, r0
    2ee2:	a8 03       	fmulsu	r18, r16
    2ee4:	50 41       	sbci	r21, 0x10	; 16
    2ee6:	32 20       	and	r3, r2
    2ee8:	32 00       	.word	0x0032	; ????
    2eea:	01 a9       	ldd	r16, Z+49	; 0x31
    2eec:	03 50       	subi	r16, 0x03	; 3
    2eee:	41 31       	cpi	r20, 0x11	; 17
    2ef0:	20 31       	cpi	r18, 0x10	; 16
    2ef2:	00 01       	movw	r0, r0
    2ef4:	aa 03       	fmulsu	r18, r18
    2ef6:	50 41       	sbci	r21, 0x10	; 16
    2ef8:	30 20       	and	r3, r0
    2efa:	30 00       	.word	0x0030	; ????
    2efc:	01 ad       	ldd	r16, Z+57	; 0x39
    2efe:	03 44       	sbci	r16, 0x43	; 67
    2f00:	44 41       	sbci	r20, 0x14	; 20
    2f02:	37 20       	and	r3, r7
    2f04:	37 00       	.word	0x0037	; ????
    2f06:	01 ae       	std	Z+57, r0	; 0x39
    2f08:	03 44       	sbci	r16, 0x43	; 67
    2f0a:	44 41       	sbci	r20, 0x14	; 20
    2f0c:	36 20       	and	r3, r6
    2f0e:	36 00       	.word	0x0036	; ????
    2f10:	01 af       	std	Z+57, r16	; 0x39
    2f12:	03 44       	sbci	r16, 0x43	; 67
    2f14:	44 41       	sbci	r20, 0x14	; 20
    2f16:	35 20       	and	r3, r5
    2f18:	35 00       	.word	0x0035	; ????
    2f1a:	01 b0       	in	r0, 0x01	; 1
    2f1c:	03 44       	sbci	r16, 0x43	; 67
    2f1e:	44 41       	sbci	r20, 0x14	; 20
    2f20:	34 20       	and	r3, r4
    2f22:	34 00       	.word	0x0034	; ????
    2f24:	01 b1       	in	r16, 0x01	; 1
    2f26:	03 44       	sbci	r16, 0x43	; 67
    2f28:	44 41       	sbci	r20, 0x14	; 20
    2f2a:	33 20       	and	r3, r3
    2f2c:	33 00       	.word	0x0033	; ????
    2f2e:	01 b2       	in	r0, 0x11	; 17
    2f30:	03 44       	sbci	r16, 0x43	; 67
    2f32:	44 41       	sbci	r20, 0x14	; 20
    2f34:	32 20       	and	r3, r2
    2f36:	32 00       	.word	0x0032	; ????
    2f38:	01 b3       	in	r16, 0x11	; 17
    2f3a:	03 44       	sbci	r16, 0x43	; 67
    2f3c:	44 41       	sbci	r20, 0x14	; 20
    2f3e:	31 20       	and	r3, r1
    2f40:	31 00       	.word	0x0031	; ????
    2f42:	01 b4       	in	r0, 0x21	; 33
    2f44:	03 44       	sbci	r16, 0x43	; 67
    2f46:	44 41       	sbci	r20, 0x14	; 20
    2f48:	30 20       	and	r3, r0
    2f4a:	30 00       	.word	0x0030	; ????
    2f4c:	01 b7       	in	r16, 0x31	; 49
    2f4e:	03 50       	subi	r16, 0x03	; 3
    2f50:	49 4e       	sbci	r20, 0xE9	; 233
    2f52:	41 37       	cpi	r20, 0x71	; 113
    2f54:	20 37       	cpi	r18, 0x70	; 112
    2f56:	00 01       	movw	r0, r0
    2f58:	b8 03       	fmulsu	r19, r16
    2f5a:	50 49       	sbci	r21, 0x90	; 144
    2f5c:	4e 41       	sbci	r20, 0x1E	; 30
    2f5e:	36 20       	and	r3, r6
    2f60:	36 00       	.word	0x0036	; ????
    2f62:	01 b9       	out	0x01, r16	; 1
    2f64:	03 50       	subi	r16, 0x03	; 3
    2f66:	49 4e       	sbci	r20, 0xE9	; 233
    2f68:	41 35       	cpi	r20, 0x51	; 81
    2f6a:	20 35       	cpi	r18, 0x50	; 80
    2f6c:	00 01       	movw	r0, r0
    2f6e:	ba 03       	fmulsu	r19, r18
    2f70:	50 49       	sbci	r21, 0x90	; 144
    2f72:	4e 41       	sbci	r20, 0x1E	; 30
    2f74:	34 20       	and	r3, r4
    2f76:	34 00       	.word	0x0034	; ????
    2f78:	01 bb       	out	0x11, r16	; 17
    2f7a:	03 50       	subi	r16, 0x03	; 3
    2f7c:	49 4e       	sbci	r20, 0xE9	; 233
    2f7e:	41 33       	cpi	r20, 0x31	; 49
    2f80:	20 33       	cpi	r18, 0x30	; 48
    2f82:	00 01       	movw	r0, r0
    2f84:	bc 03       	fmulsu	r19, r20
    2f86:	50 49       	sbci	r21, 0x90	; 144
    2f88:	4e 41       	sbci	r20, 0x1E	; 30
    2f8a:	32 20       	and	r3, r2
    2f8c:	32 00       	.word	0x0032	; ????
    2f8e:	01 bd       	out	0x21, r16	; 33
    2f90:	03 50       	subi	r16, 0x03	; 3
    2f92:	49 4e       	sbci	r20, 0xE9	; 233
    2f94:	41 31       	cpi	r20, 0x11	; 17
    2f96:	20 31       	cpi	r18, 0x10	; 16
    2f98:	00 01       	movw	r0, r0
    2f9a:	be 03       	fmulsu	r19, r22
    2f9c:	50 49       	sbci	r21, 0x90	; 144
    2f9e:	4e 41       	sbci	r20, 0x1E	; 30
    2fa0:	30 20       	and	r3, r0
    2fa2:	30 00       	.word	0x0030	; ????
    2fa4:	01 cc       	rjmp	.-2046   	; 0x27a8 <__data_load_end+0x1ad4>
    2fa6:	03 50       	subi	r16, 0x03	; 3
    2fa8:	42 37       	cpi	r20, 0x72	; 114
    2faa:	20 37       	cpi	r18, 0x70	; 112
    2fac:	00 01       	movw	r0, r0
    2fae:	cd 03       	fmulsu	r20, r21
    2fb0:	50 42       	sbci	r21, 0x20	; 32
    2fb2:	36 20       	and	r3, r6
    2fb4:	36 00       	.word	0x0036	; ????
    2fb6:	01 ce       	rjmp	.-1022   	; 0x2bba <__data_load_end+0x1ee6>
    2fb8:	03 50       	subi	r16, 0x03	; 3
    2fba:	42 35       	cpi	r20, 0x52	; 82
    2fbc:	20 35       	cpi	r18, 0x50	; 80
    2fbe:	00 01       	movw	r0, r0
    2fc0:	cf 03       	fmulsu	r20, r23
    2fc2:	50 42       	sbci	r21, 0x20	; 32
    2fc4:	34 20       	and	r3, r4
    2fc6:	34 00       	.word	0x0034	; ????
    2fc8:	01 d0       	rcall	.+2      	; 0x2fcc <__data_load_end+0x22f8>
    2fca:	03 50       	subi	r16, 0x03	; 3
    2fcc:	42 33       	cpi	r20, 0x32	; 50
    2fce:	20 33       	cpi	r18, 0x30	; 48
    2fd0:	00 01       	movw	r0, r0
    2fd2:	d1 03       	fmuls	r21, r17
    2fd4:	50 42       	sbci	r21, 0x20	; 32
    2fd6:	32 20       	and	r3, r2
    2fd8:	32 00       	.word	0x0032	; ????
    2fda:	01 d2       	rcall	.+1026   	; 0x33de <__data_load_end+0x270a>
    2fdc:	03 50       	subi	r16, 0x03	; 3
    2fde:	42 31       	cpi	r20, 0x12	; 18
    2fe0:	20 31       	cpi	r18, 0x10	; 16
    2fe2:	00 01       	movw	r0, r0
    2fe4:	d3 03       	fmuls	r21, r19
    2fe6:	50 42       	sbci	r21, 0x20	; 32
    2fe8:	30 20       	and	r3, r0
    2fea:	30 00       	.word	0x0030	; ????
    2fec:	01 d6       	rcall	.+3074   	; 0x3bf0 <__data_load_end+0x2f1c>
    2fee:	03 44       	sbci	r16, 0x43	; 67
    2ff0:	44 42       	sbci	r20, 0x24	; 36
    2ff2:	37 20       	and	r3, r7
    2ff4:	37 00       	.word	0x0037	; ????
    2ff6:	01 d7       	rcall	.+3586   	; 0x3dfa <__data_load_end+0x3126>
    2ff8:	03 44       	sbci	r16, 0x43	; 67
    2ffa:	44 42       	sbci	r20, 0x24	; 36
    2ffc:	36 20       	and	r3, r6
    2ffe:	36 00       	.word	0x0036	; ????
    3000:	01 d8       	rcall	.-4094   	; 0x2004 <__data_load_end+0x1330>
    3002:	03 44       	sbci	r16, 0x43	; 67
    3004:	44 42       	sbci	r20, 0x24	; 36
    3006:	35 20       	and	r3, r5
    3008:	35 00       	.word	0x0035	; ????
    300a:	01 d9       	rcall	.-3582   	; 0x220e <__data_load_end+0x153a>
    300c:	03 44       	sbci	r16, 0x43	; 67
    300e:	44 42       	sbci	r20, 0x24	; 36
    3010:	34 20       	and	r3, r4
    3012:	34 00       	.word	0x0034	; ????
    3014:	01 da       	rcall	.-3070   	; 0x2418 <__data_load_end+0x1744>
    3016:	03 44       	sbci	r16, 0x43	; 67
    3018:	44 42       	sbci	r20, 0x24	; 36
    301a:	33 20       	and	r3, r3
    301c:	33 00       	.word	0x0033	; ????
    301e:	01 db       	rcall	.-2558   	; 0x2622 <__data_load_end+0x194e>
    3020:	03 44       	sbci	r16, 0x43	; 67
    3022:	44 42       	sbci	r20, 0x24	; 36
    3024:	32 20       	and	r3, r2
    3026:	32 00       	.word	0x0032	; ????
    3028:	01 dc       	rcall	.-2046   	; 0x282c <__data_load_end+0x1b58>
    302a:	03 44       	sbci	r16, 0x43	; 67
    302c:	44 42       	sbci	r20, 0x24	; 36
    302e:	31 20       	and	r3, r1
    3030:	31 00       	.word	0x0031	; ????
    3032:	01 dd       	rcall	.-1534   	; 0x2a36 <__data_load_end+0x1d62>
    3034:	03 44       	sbci	r16, 0x43	; 67
    3036:	44 42       	sbci	r20, 0x24	; 36
    3038:	30 20       	and	r3, r0
    303a:	30 00       	.word	0x0030	; ????
    303c:	01 e0       	ldi	r16, 0x01	; 1
    303e:	03 50       	subi	r16, 0x03	; 3
    3040:	49 4e       	sbci	r20, 0xE9	; 233
    3042:	42 37       	cpi	r20, 0x72	; 114
    3044:	20 37       	cpi	r18, 0x70	; 112
    3046:	00 01       	movw	r0, r0
    3048:	e1 03       	fmuls	r22, r17
    304a:	50 49       	sbci	r21, 0x90	; 144
    304c:	4e 42       	sbci	r20, 0x2E	; 46
    304e:	36 20       	and	r3, r6
    3050:	36 00       	.word	0x0036	; ????
    3052:	01 e2       	ldi	r16, 0x21	; 33
    3054:	03 50       	subi	r16, 0x03	; 3
    3056:	49 4e       	sbci	r20, 0xE9	; 233
    3058:	42 35       	cpi	r20, 0x52	; 82
    305a:	20 35       	cpi	r18, 0x50	; 80
    305c:	00 01       	movw	r0, r0
    305e:	e3 03       	fmuls	r22, r19
    3060:	50 49       	sbci	r21, 0x90	; 144
    3062:	4e 42       	sbci	r20, 0x2E	; 46
    3064:	34 20       	and	r3, r4
    3066:	34 00       	.word	0x0034	; ????
    3068:	01 e4       	ldi	r16, 0x41	; 65
    306a:	03 50       	subi	r16, 0x03	; 3
    306c:	49 4e       	sbci	r20, 0xE9	; 233
    306e:	42 33       	cpi	r20, 0x32	; 50
    3070:	20 33       	cpi	r18, 0x30	; 48
    3072:	00 01       	movw	r0, r0
    3074:	e5 03       	fmuls	r22, r21
    3076:	50 49       	sbci	r21, 0x90	; 144
    3078:	4e 42       	sbci	r20, 0x2E	; 46
    307a:	32 20       	and	r3, r2
    307c:	32 00       	.word	0x0032	; ????
    307e:	01 e6       	ldi	r16, 0x61	; 97
    3080:	03 50       	subi	r16, 0x03	; 3
    3082:	49 4e       	sbci	r20, 0xE9	; 233
    3084:	42 31       	cpi	r20, 0x12	; 18
    3086:	20 31       	cpi	r18, 0x10	; 16
    3088:	00 01       	movw	r0, r0
    308a:	e7 03       	fmuls	r22, r23
    308c:	50 49       	sbci	r21, 0x90	; 144
    308e:	4e 42       	sbci	r20, 0x2E	; 46
    3090:	30 20       	and	r3, r0
    3092:	30 00       	.word	0x0030	; ????
    3094:	01 f0       	breq	.+0      	; 0x3096 <__data_load_end+0x23c2>
    3096:	03 50       	subi	r16, 0x03	; 3
    3098:	43 37       	cpi	r20, 0x73	; 115
    309a:	20 37       	cpi	r18, 0x70	; 112
    309c:	00 01       	movw	r0, r0
    309e:	f1 03       	fmuls	r23, r17
    30a0:	50 43       	sbci	r21, 0x30	; 48
    30a2:	36 20       	and	r3, r6
    30a4:	36 00       	.word	0x0036	; ????
    30a6:	01 f2       	breq	.-128    	; 0x3028 <__data_load_end+0x2354>
    30a8:	03 50       	subi	r16, 0x03	; 3
    30aa:	43 35       	cpi	r20, 0x53	; 83
    30ac:	20 35       	cpi	r18, 0x50	; 80
    30ae:	00 01       	movw	r0, r0
    30b0:	f3 03       	fmuls	r23, r19
    30b2:	50 43       	sbci	r21, 0x30	; 48
    30b4:	34 20       	and	r3, r4
    30b6:	34 00       	.word	0x0034	; ????
    30b8:	01 f4       	brne	.+0      	; 0x30ba <__data_load_end+0x23e6>
    30ba:	03 50       	subi	r16, 0x03	; 3
    30bc:	43 33       	cpi	r20, 0x33	; 51
    30be:	20 33       	cpi	r18, 0x30	; 48
    30c0:	00 01       	movw	r0, r0
    30c2:	f5 03       	fmuls	r23, r21
    30c4:	50 43       	sbci	r21, 0x30	; 48
    30c6:	32 20       	and	r3, r2
    30c8:	32 00       	.word	0x0032	; ????
    30ca:	01 f6       	brne	.-128    	; 0x304c <__data_load_end+0x2378>
    30cc:	03 50       	subi	r16, 0x03	; 3
    30ce:	43 31       	cpi	r20, 0x13	; 19
    30d0:	20 31       	cpi	r18, 0x10	; 16
    30d2:	00 01       	movw	r0, r0
    30d4:	f7 03       	fmuls	r23, r23
    30d6:	50 43       	sbci	r21, 0x30	; 48
    30d8:	30 20       	and	r3, r0
    30da:	30 00       	.word	0x0030	; ????
    30dc:	01 fa       	bst	r0, 1
    30de:	03 44       	sbci	r16, 0x43	; 67
    30e0:	44 43       	sbci	r20, 0x34	; 52
    30e2:	37 20       	and	r3, r7
    30e4:	37 00       	.word	0x0037	; ????
    30e6:	01 fb       	bst	r16, 1
    30e8:	03 44       	sbci	r16, 0x43	; 67
    30ea:	44 43       	sbci	r20, 0x34	; 52
    30ec:	36 20       	and	r3, r6
    30ee:	36 00       	.word	0x0036	; ????
    30f0:	01 fc       	sbrc	r0, 1
    30f2:	03 44       	sbci	r16, 0x43	; 67
    30f4:	44 43       	sbci	r20, 0x34	; 52
    30f6:	35 20       	and	r3, r5
    30f8:	35 00       	.word	0x0035	; ????
    30fa:	01 fd       	sbrc	r16, 1
    30fc:	03 44       	sbci	r16, 0x43	; 67
    30fe:	44 43       	sbci	r20, 0x34	; 52
    3100:	34 20       	and	r3, r4
    3102:	34 00       	.word	0x0034	; ????
    3104:	01 fe       	sbrs	r0, 1
    3106:	03 44       	sbci	r16, 0x43	; 67
    3108:	44 43       	sbci	r20, 0x34	; 52
    310a:	33 20       	and	r3, r3
    310c:	33 00       	.word	0x0033	; ????
    310e:	01 ff       	sbrs	r16, 1
    3110:	03 44       	sbci	r16, 0x43	; 67
    3112:	44 43       	sbci	r20, 0x34	; 52
    3114:	32 20       	and	r3, r2
    3116:	32 00       	.word	0x0032	; ????
    3118:	01 80       	ldd	r0, Z+1	; 0x01
    311a:	04 44       	sbci	r16, 0x44	; 68
    311c:	44 43       	sbci	r20, 0x34	; 52
    311e:	31 20       	and	r3, r1
    3120:	31 00       	.word	0x0031	; ????
    3122:	01 81       	ldd	r16, Z+1	; 0x01
    3124:	04 44       	sbci	r16, 0x44	; 68
    3126:	44 43       	sbci	r20, 0x34	; 52
    3128:	30 20       	and	r3, r0
    312a:	30 00       	.word	0x0030	; ????
    312c:	01 84       	ldd	r0, Z+9	; 0x09
    312e:	04 50       	subi	r16, 0x04	; 4
    3130:	49 4e       	sbci	r20, 0xE9	; 233
    3132:	43 37       	cpi	r20, 0x73	; 115
    3134:	20 37       	cpi	r18, 0x70	; 112
    3136:	00 01       	movw	r0, r0
    3138:	85 04       	cpc	r8, r5
    313a:	50 49       	sbci	r21, 0x90	; 144
    313c:	4e 43       	sbci	r20, 0x3E	; 62
    313e:	36 20       	and	r3, r6
    3140:	36 00       	.word	0x0036	; ????
    3142:	01 86       	std	Z+9, r0	; 0x09
    3144:	04 50       	subi	r16, 0x04	; 4
    3146:	49 4e       	sbci	r20, 0xE9	; 233
    3148:	43 35       	cpi	r20, 0x53	; 83
    314a:	20 35       	cpi	r18, 0x50	; 80
    314c:	00 01       	movw	r0, r0
    314e:	87 04       	cpc	r8, r7
    3150:	50 49       	sbci	r21, 0x90	; 144
    3152:	4e 43       	sbci	r20, 0x3E	; 62
    3154:	34 20       	and	r3, r4
    3156:	34 00       	.word	0x0034	; ????
    3158:	01 88       	ldd	r0, Z+17	; 0x11
    315a:	04 50       	subi	r16, 0x04	; 4
    315c:	49 4e       	sbci	r20, 0xE9	; 233
    315e:	43 33       	cpi	r20, 0x33	; 51
    3160:	20 33       	cpi	r18, 0x30	; 48
    3162:	00 01       	movw	r0, r0
    3164:	89 04       	cpc	r8, r9
    3166:	50 49       	sbci	r21, 0x90	; 144
    3168:	4e 43       	sbci	r20, 0x3E	; 62
    316a:	32 20       	and	r3, r2
    316c:	32 00       	.word	0x0032	; ????
    316e:	01 8a       	std	Z+17, r0	; 0x11
    3170:	04 50       	subi	r16, 0x04	; 4
    3172:	49 4e       	sbci	r20, 0xE9	; 233
    3174:	43 31       	cpi	r20, 0x13	; 19
    3176:	20 31       	cpi	r18, 0x10	; 16
    3178:	00 01       	movw	r0, r0
    317a:	8b 04       	cpc	r8, r11
    317c:	50 49       	sbci	r21, 0x90	; 144
    317e:	4e 43       	sbci	r20, 0x3E	; 62
    3180:	30 20       	and	r3, r0
    3182:	30 00       	.word	0x0030	; ????
    3184:	01 99       	sbic	0x00, 1	; 0
    3186:	04 50       	subi	r16, 0x04	; 4
    3188:	44 37       	cpi	r20, 0x74	; 116
    318a:	20 37       	cpi	r18, 0x70	; 112
    318c:	00 01       	movw	r0, r0
    318e:	9a 04       	cpc	r9, r10
    3190:	50 44       	sbci	r21, 0x40	; 64
    3192:	36 20       	and	r3, r6
    3194:	36 00       	.word	0x0036	; ????
    3196:	01 9b       	sbis	0x00, 1	; 0
    3198:	04 50       	subi	r16, 0x04	; 4
    319a:	44 35       	cpi	r20, 0x54	; 84
    319c:	20 35       	cpi	r18, 0x50	; 80
    319e:	00 01       	movw	r0, r0
    31a0:	9c 04       	cpc	r9, r12
    31a2:	50 44       	sbci	r21, 0x40	; 64
    31a4:	34 20       	and	r3, r4
    31a6:	34 00       	.word	0x0034	; ????
    31a8:	01 9d       	mul	r16, r1
    31aa:	04 50       	subi	r16, 0x04	; 4
    31ac:	44 33       	cpi	r20, 0x34	; 52
    31ae:	20 33       	cpi	r18, 0x30	; 48
    31b0:	00 01       	movw	r0, r0
    31b2:	9e 04       	cpc	r9, r14
    31b4:	50 44       	sbci	r21, 0x40	; 64
    31b6:	32 20       	and	r3, r2
    31b8:	32 00       	.word	0x0032	; ????
    31ba:	01 9f       	mul	r16, r17
    31bc:	04 50       	subi	r16, 0x04	; 4
    31be:	44 31       	cpi	r20, 0x14	; 20
    31c0:	20 31       	cpi	r18, 0x10	; 16
    31c2:	00 01       	movw	r0, r0
    31c4:	a0 04       	cpc	r10, r0
    31c6:	50 44       	sbci	r21, 0x40	; 64
    31c8:	30 20       	and	r3, r0
    31ca:	30 00       	.word	0x0030	; ????
    31cc:	01 a3       	std	Z+33, r16	; 0x21
    31ce:	04 44       	sbci	r16, 0x44	; 68
    31d0:	44 44       	sbci	r20, 0x44	; 68
    31d2:	37 20       	and	r3, r7
    31d4:	37 00       	.word	0x0037	; ????
    31d6:	01 a4       	ldd	r0, Z+41	; 0x29
    31d8:	04 44       	sbci	r16, 0x44	; 68
    31da:	44 44       	sbci	r20, 0x44	; 68
    31dc:	36 20       	and	r3, r6
    31de:	36 00       	.word	0x0036	; ????
    31e0:	01 a5       	ldd	r16, Z+41	; 0x29
    31e2:	04 44       	sbci	r16, 0x44	; 68
    31e4:	44 44       	sbci	r20, 0x44	; 68
    31e6:	35 20       	and	r3, r5
    31e8:	35 00       	.word	0x0035	; ????
    31ea:	01 a6       	std	Z+41, r0	; 0x29
    31ec:	04 44       	sbci	r16, 0x44	; 68
    31ee:	44 44       	sbci	r20, 0x44	; 68
    31f0:	34 20       	and	r3, r4
    31f2:	34 00       	.word	0x0034	; ????
    31f4:	01 a7       	std	Z+41, r16	; 0x29
    31f6:	04 44       	sbci	r16, 0x44	; 68
    31f8:	44 44       	sbci	r20, 0x44	; 68
    31fa:	33 20       	and	r3, r3
    31fc:	33 00       	.word	0x0033	; ????
    31fe:	01 a8       	ldd	r0, Z+49	; 0x31
    3200:	04 44       	sbci	r16, 0x44	; 68
    3202:	44 44       	sbci	r20, 0x44	; 68
    3204:	32 20       	and	r3, r2
    3206:	32 00       	.word	0x0032	; ????
    3208:	01 a9       	ldd	r16, Z+49	; 0x31
    320a:	04 44       	sbci	r16, 0x44	; 68
    320c:	44 44       	sbci	r20, 0x44	; 68
    320e:	31 20       	and	r3, r1
    3210:	31 00       	.word	0x0031	; ????
    3212:	01 aa       	std	Z+49, r0	; 0x31
    3214:	04 44       	sbci	r16, 0x44	; 68
    3216:	44 44       	sbci	r20, 0x44	; 68
    3218:	30 20       	and	r3, r0
    321a:	30 00       	.word	0x0030	; ????
    321c:	01 ad       	ldd	r16, Z+57	; 0x39
    321e:	04 50       	subi	r16, 0x04	; 4
    3220:	49 4e       	sbci	r20, 0xE9	; 233
    3222:	44 37       	cpi	r20, 0x74	; 116
    3224:	20 37       	cpi	r18, 0x70	; 112
    3226:	00 01       	movw	r0, r0
    3228:	ae 04       	cpc	r10, r14
    322a:	50 49       	sbci	r21, 0x90	; 144
    322c:	4e 44       	sbci	r20, 0x4E	; 78
    322e:	36 20       	and	r3, r6
    3230:	36 00       	.word	0x0036	; ????
    3232:	01 af       	std	Z+57, r16	; 0x39
    3234:	04 50       	subi	r16, 0x04	; 4
    3236:	49 4e       	sbci	r20, 0xE9	; 233
    3238:	44 35       	cpi	r20, 0x54	; 84
    323a:	20 35       	cpi	r18, 0x50	; 80
    323c:	00 01       	movw	r0, r0
    323e:	b0 04       	cpc	r11, r0
    3240:	50 49       	sbci	r21, 0x90	; 144
    3242:	4e 44       	sbci	r20, 0x4E	; 78
    3244:	34 20       	and	r3, r4
    3246:	34 00       	.word	0x0034	; ????
    3248:	01 b1       	in	r16, 0x01	; 1
    324a:	04 50       	subi	r16, 0x04	; 4
    324c:	49 4e       	sbci	r20, 0xE9	; 233
    324e:	44 33       	cpi	r20, 0x34	; 52
    3250:	20 33       	cpi	r18, 0x30	; 48
    3252:	00 01       	movw	r0, r0
    3254:	b2 04       	cpc	r11, r2
    3256:	50 49       	sbci	r21, 0x90	; 144
    3258:	4e 44       	sbci	r20, 0x4E	; 78
    325a:	32 20       	and	r3, r2
    325c:	32 00       	.word	0x0032	; ????
    325e:	01 b3       	in	r16, 0x11	; 17
    3260:	04 50       	subi	r16, 0x04	; 4
    3262:	49 4e       	sbci	r20, 0xE9	; 233
    3264:	44 31       	cpi	r20, 0x14	; 20
    3266:	20 31       	cpi	r18, 0x10	; 16
    3268:	00 01       	movw	r0, r0
    326a:	b4 04       	cpc	r11, r4
    326c:	50 49       	sbci	r21, 0x90	; 144
    326e:	4e 44       	sbci	r20, 0x4E	; 78
    3270:	30 20       	and	r3, r0
    3272:	30 00       	.word	0x0030	; ????
    3274:	01 b7       	in	r16, 0x31	; 49
    3276:	04 53       	subi	r16, 0x34	; 52
    3278:	50 49       	sbci	r21, 0x90	; 144
    327a:	46 20       	and	r4, r6
    327c:	37 00       	.word	0x0037	; ????
    327e:	01 b8       	out	0x01, r0	; 1
    3280:	04 57       	subi	r16, 0x74	; 116
    3282:	43 4f       	sbci	r20, 0xF3	; 243
    3284:	4c 20       	and	r4, r12
    3286:	36 00       	.word	0x0036	; ????
    3288:	01 ba       	out	0x11, r0	; 17
    328a:	04 53       	subi	r16, 0x34	; 52
    328c:	50 49       	sbci	r21, 0x90	; 144
    328e:	32 58       	subi	r19, 0x82	; 130
    3290:	20 30       	cpi	r18, 0x00	; 0
    3292:	00 01       	movw	r0, r0
    3294:	bd 04       	cpc	r11, r13
    3296:	53 50       	subi	r21, 0x03	; 3
    3298:	49 45       	sbci	r20, 0x59	; 89
    329a:	20 37       	cpi	r18, 0x70	; 112
    329c:	00 01       	movw	r0, r0
    329e:	be 04       	cpc	r11, r14
    32a0:	53 50       	subi	r21, 0x03	; 3
    32a2:	45 20       	and	r4, r5
    32a4:	36 00       	.word	0x0036	; ????
    32a6:	01 bf       	out	0x31, r16	; 49
    32a8:	04 44       	sbci	r16, 0x44	; 68
    32aa:	4f 52       	subi	r20, 0x2F	; 47
    32ac:	44 20       	and	r4, r4
    32ae:	35 00       	.word	0x0035	; ????
    32b0:	01 c0       	rjmp	.+2      	; 0x32b4 <__data_load_end+0x25e0>
    32b2:	04 4d       	sbci	r16, 0xD4	; 212
    32b4:	53 54       	subi	r21, 0x43	; 67
    32b6:	52 20       	and	r5, r2
    32b8:	34 00       	.word	0x0034	; ????
    32ba:	01 c1       	rjmp	.+514    	; 0x34be <__data_load_end+0x27ea>
    32bc:	04 43       	sbci	r16, 0x34	; 52
    32be:	50 4f       	sbci	r21, 0xF0	; 240
    32c0:	4c 20       	and	r4, r12
    32c2:	33 00       	.word	0x0033	; ????
    32c4:	01 c2       	rjmp	.+1026   	; 0x36c8 <__data_load_end+0x29f4>
    32c6:	04 43       	sbci	r16, 0x34	; 52
    32c8:	50 48       	sbci	r21, 0x80	; 128
    32ca:	41 20       	and	r4, r1
    32cc:	32 00       	.word	0x0032	; ????
    32ce:	01 c3       	rjmp	.+1538   	; 0x38d2 <__data_load_end+0x2bfe>
    32d0:	04 53       	subi	r16, 0x34	; 52
    32d2:	50 52       	subi	r21, 0x20	; 32
    32d4:	31 20       	and	r3, r1
    32d6:	31 00       	.word	0x0031	; ????
    32d8:	01 c4       	rjmp	.+2050   	; 0x3adc <__data_load_end+0x2e08>
    32da:	04 53       	subi	r16, 0x34	; 52
    32dc:	50 52       	subi	r21, 0x20	; 32
    32de:	30 20       	and	r3, r0
    32e0:	30 00       	.word	0x0030	; ????
    32e2:	01 c7       	rjmp	.+3586   	; 0x40e6 <__data_load_end+0x3412>
    32e4:	04 52       	subi	r16, 0x24	; 36
    32e6:	58 43       	sbci	r21, 0x38	; 56
    32e8:	20 37       	cpi	r18, 0x70	; 112
    32ea:	00 01       	movw	r0, r0
    32ec:	c8 04       	cpc	r12, r8
    32ee:	54 58       	subi	r21, 0x84	; 132
    32f0:	43 20       	and	r4, r3
    32f2:	36 00       	.word	0x0036	; ????
    32f4:	01 c9       	rjmp	.-3582   	; 0x24f8 <__data_load_end+0x1824>
    32f6:	04 55       	subi	r16, 0x54	; 84
    32f8:	44 52       	subi	r20, 0x24	; 36
    32fa:	45 20       	and	r4, r5
    32fc:	35 00       	.word	0x0035	; ????
    32fe:	01 ca       	rjmp	.-3070   	; 0x2702 <__data_load_end+0x1a2e>
    3300:	04 46       	sbci	r16, 0x64	; 100
    3302:	45 20       	and	r4, r5
    3304:	34 00       	.word	0x0034	; ????
    3306:	01 cb       	rjmp	.-2558   	; 0x290a <__data_load_end+0x1c36>
    3308:	04 44       	sbci	r16, 0x44	; 68
    330a:	4f 52       	subi	r20, 0x2F	; 47
    330c:	20 33       	cpi	r18, 0x30	; 48
    330e:	00 01       	movw	r0, r0
    3310:	cc 04       	cpc	r12, r12
    3312:	50 45       	sbci	r21, 0x50	; 80
    3314:	20 32       	cpi	r18, 0x20	; 32
    3316:	00 01       	movw	r0, r0
    3318:	cd 04       	cpc	r12, r13
    331a:	55 32       	cpi	r21, 0x25	; 37
    331c:	58 20       	and	r5, r8
    331e:	31 00       	.word	0x0031	; ????
    3320:	01 ce       	rjmp	.-1022   	; 0x2f24 <__data_load_end+0x2250>
    3322:	04 4d       	sbci	r16, 0xD4	; 212
    3324:	50 43       	sbci	r21, 0x30	; 48
    3326:	4d 20       	and	r4, r13
    3328:	30 00       	.word	0x0030	; ????
    332a:	01 d1       	rcall	.+514    	; 0x352e <__data_load_end+0x285a>
    332c:	04 52       	subi	r16, 0x24	; 36
    332e:	58 43       	sbci	r21, 0x38	; 56
    3330:	49 45       	sbci	r20, 0x59	; 89
    3332:	20 37       	cpi	r18, 0x70	; 112
    3334:	00 01       	movw	r0, r0
    3336:	d2 04       	cpc	r13, r2
    3338:	54 58       	subi	r21, 0x84	; 132
    333a:	43 49       	sbci	r20, 0x93	; 147
    333c:	45 20       	and	r4, r5
    333e:	36 00       	.word	0x0036	; ????
    3340:	01 d3       	rcall	.+1538   	; 0x3944 <__data_load_end+0x2c70>
    3342:	04 55       	subi	r16, 0x54	; 84
    3344:	44 52       	subi	r20, 0x24	; 36
    3346:	49 45       	sbci	r20, 0x59	; 89
    3348:	20 35       	cpi	r18, 0x50	; 80
    334a:	00 01       	movw	r0, r0
    334c:	d4 04       	cpc	r13, r4
    334e:	52 58       	subi	r21, 0x82	; 130
    3350:	45 4e       	sbci	r20, 0xE5	; 229
    3352:	20 34       	cpi	r18, 0x40	; 64
    3354:	00 01       	movw	r0, r0
    3356:	d5 04       	cpc	r13, r5
    3358:	54 58       	subi	r21, 0x84	; 132
    335a:	45 4e       	sbci	r20, 0xE5	; 229
    335c:	20 33       	cpi	r18, 0x30	; 48
    335e:	00 01       	movw	r0, r0
    3360:	d6 04       	cpc	r13, r6
    3362:	55 43       	sbci	r21, 0x35	; 53
    3364:	53 5a       	subi	r21, 0xA3	; 163
    3366:	32 20       	and	r3, r2
    3368:	32 00       	.word	0x0032	; ????
    336a:	01 d7       	rcall	.+3586   	; 0x416e <__data_load_end+0x349a>
    336c:	04 52       	subi	r16, 0x24	; 36
    336e:	58 42       	sbci	r21, 0x28	; 40
    3370:	38 20       	and	r3, r8
    3372:	31 00       	.word	0x0031	; ????
    3374:	01 d8       	rcall	.-4094   	; 0x2378 <__data_load_end+0x16a4>
    3376:	04 54       	subi	r16, 0x44	; 68
    3378:	58 42       	sbci	r21, 0x28	; 40
    337a:	38 20       	and	r3, r8
    337c:	30 00       	.word	0x0030	; ????
    337e:	01 db       	rcall	.-2558   	; 0x2982 <__data_load_end+0x1cae>
    3380:	04 55       	subi	r16, 0x54	; 84
    3382:	52 53       	subi	r21, 0x32	; 50
    3384:	45 4c       	sbci	r20, 0xC5	; 197
    3386:	20 37       	cpi	r18, 0x70	; 112
    3388:	00 01       	movw	r0, r0
    338a:	dc 04       	cpc	r13, r12
    338c:	55 4d       	sbci	r21, 0xD5	; 213
    338e:	53 45       	sbci	r21, 0x53	; 83
    3390:	4c 20       	and	r4, r12
    3392:	36 00       	.word	0x0036	; ????
    3394:	01 dd       	rcall	.-1534   	; 0x2d98 <__data_load_end+0x20c4>
    3396:	04 55       	subi	r16, 0x54	; 84
    3398:	50 4d       	sbci	r21, 0xD0	; 208
    339a:	31 20       	and	r3, r1
    339c:	35 00       	.word	0x0035	; ????
    339e:	01 de       	rcall	.-1022   	; 0x2fa2 <__data_load_end+0x22ce>
    33a0:	04 55       	subi	r16, 0x54	; 84
    33a2:	50 4d       	sbci	r21, 0xD0	; 208
    33a4:	30 20       	and	r3, r0
    33a6:	34 00       	.word	0x0034	; ????
    33a8:	01 df       	rcall	.-510    	; 0x31ac <__data_load_end+0x24d8>
    33aa:	04 55       	subi	r16, 0x54	; 84
    33ac:	53 42       	sbci	r21, 0x23	; 35
    33ae:	53 20       	and	r5, r3
    33b0:	33 00       	.word	0x0033	; ????
    33b2:	01 e0       	ldi	r16, 0x01	; 1
    33b4:	04 55       	subi	r16, 0x54	; 84
    33b6:	43 53       	subi	r20, 0x33	; 51
    33b8:	5a 31       	cpi	r21, 0x1A	; 26
    33ba:	20 32       	cpi	r18, 0x20	; 32
    33bc:	00 01       	movw	r0, r0
    33be:	e1 04       	cpc	r14, r1
    33c0:	55 43       	sbci	r21, 0x35	; 53
    33c2:	53 5a       	subi	r21, 0xA3	; 163
    33c4:	30 20       	and	r3, r0
    33c6:	31 00       	.word	0x0031	; ????
    33c8:	01 e2       	ldi	r16, 0x21	; 33
    33ca:	04 55       	subi	r16, 0x54	; 84
    33cc:	43 50       	subi	r20, 0x03	; 3
    33ce:	4f 4c       	sbci	r20, 0xCF	; 207
    33d0:	20 30       	cpi	r18, 0x00	; 0
    33d2:	00 01       	movw	r0, r0
    33d4:	e5 04       	cpc	r14, r5
    33d6:	41 43       	sbci	r20, 0x31	; 49
    33d8:	44 20       	and	r4, r4
    33da:	37 00       	.word	0x0037	; ????
    33dc:	01 e6       	ldi	r16, 0x61	; 97
    33de:	04 41       	sbci	r16, 0x14	; 20
    33e0:	43 42       	sbci	r20, 0x23	; 35
    33e2:	47 20       	and	r4, r7
    33e4:	36 00       	.word	0x0036	; ????
    33e6:	01 e7       	ldi	r16, 0x71	; 113
    33e8:	04 41       	sbci	r16, 0x14	; 20
    33ea:	43 4f       	sbci	r20, 0xF3	; 243
    33ec:	20 35       	cpi	r18, 0x50	; 80
    33ee:	00 01       	movw	r0, r0
    33f0:	e8 04       	cpc	r14, r8
    33f2:	41 43       	sbci	r20, 0x31	; 49
    33f4:	49 20       	and	r4, r9
    33f6:	34 00       	.word	0x0034	; ????
    33f8:	01 e9       	ldi	r16, 0x91	; 145
    33fa:	04 41       	sbci	r16, 0x14	; 20
    33fc:	43 49       	sbci	r20, 0x93	; 147
    33fe:	45 20       	and	r4, r5
    3400:	33 00       	.word	0x0033	; ????
    3402:	01 ea       	ldi	r16, 0xA1	; 161
    3404:	04 41       	sbci	r16, 0x14	; 20
    3406:	43 49       	sbci	r20, 0x93	; 147
    3408:	43 20       	and	r4, r3
    340a:	32 00       	.word	0x0032	; ????
    340c:	01 eb       	ldi	r16, 0xB1	; 177
    340e:	04 41       	sbci	r16, 0x14	; 20
    3410:	43 49       	sbci	r20, 0x93	; 147
    3412:	53 31       	cpi	r21, 0x13	; 19
    3414:	20 31       	cpi	r18, 0x10	; 16
    3416:	00 01       	movw	r0, r0
    3418:	ec 04       	cpc	r14, r12
    341a:	41 43       	sbci	r20, 0x31	; 49
    341c:	49 53       	subi	r20, 0x39	; 57
    341e:	30 20       	and	r3, r0
    3420:	30 00       	.word	0x0030	; ????
    3422:	01 ef       	ldi	r16, 0xF1	; 241
    3424:	04 41       	sbci	r16, 0x14	; 20
    3426:	44 45       	sbci	r20, 0x54	; 84
    3428:	4e 20       	and	r4, r14
    342a:	37 00       	.word	0x0037	; ????
    342c:	01 f0       	breq	.+0      	; 0x342e <__data_load_end+0x275a>
    342e:	04 41       	sbci	r16, 0x14	; 20
    3430:	44 53       	subi	r20, 0x34	; 52
    3432:	43 20       	and	r4, r3
    3434:	36 00       	.word	0x0036	; ????
    3436:	01 f1       	breq	.+64     	; 0x3478 <__data_load_end+0x27a4>
    3438:	04 41       	sbci	r16, 0x14	; 20
    343a:	44 41       	sbci	r20, 0x14	; 20
    343c:	54 45       	sbci	r21, 0x54	; 84
    343e:	20 35       	cpi	r18, 0x50	; 80
    3440:	00 01       	movw	r0, r0
    3442:	f2 04       	cpc	r15, r2
    3444:	41 44       	sbci	r20, 0x41	; 65
    3446:	49 46       	sbci	r20, 0x69	; 105
    3448:	20 34       	cpi	r18, 0x40	; 64
    344a:	00 01       	movw	r0, r0
    344c:	f3 04       	cpc	r15, r3
    344e:	41 44       	sbci	r20, 0x41	; 65
    3450:	49 45       	sbci	r20, 0x59	; 89
    3452:	20 33       	cpi	r18, 0x30	; 48
    3454:	00 01       	movw	r0, r0
    3456:	f4 04       	cpc	r15, r4
    3458:	41 44       	sbci	r20, 0x41	; 65
    345a:	50 53       	subi	r21, 0x30	; 48
    345c:	32 20       	and	r3, r2
    345e:	32 00       	.word	0x0032	; ????
    3460:	01 f5       	brne	.+64     	; 0x34a2 <__data_load_end+0x27ce>
    3462:	04 41       	sbci	r16, 0x14	; 20
    3464:	44 50       	subi	r20, 0x04	; 4
    3466:	53 31       	cpi	r21, 0x13	; 19
    3468:	20 31       	cpi	r18, 0x10	; 16
    346a:	00 01       	movw	r0, r0
    346c:	f6 04       	cpc	r15, r6
    346e:	41 44       	sbci	r20, 0x41	; 65
    3470:	50 53       	subi	r21, 0x30	; 48
    3472:	30 20       	and	r3, r0
    3474:	30 00       	.word	0x0030	; ????
    3476:	01 f9       	bld	r16, 1
    3478:	04 52       	subi	r16, 0x24	; 36
    347a:	45 46       	sbci	r20, 0x65	; 101
    347c:	53 31       	cpi	r21, 0x13	; 19
    347e:	20 37       	cpi	r18, 0x70	; 112
    3480:	00 01       	movw	r0, r0
    3482:	fa 04       	cpc	r15, r10
    3484:	52 45       	sbci	r21, 0x52	; 82
    3486:	46 53       	subi	r20, 0x36	; 54
    3488:	30 20       	and	r3, r0
    348a:	36 00       	.word	0x0036	; ????
    348c:	01 fb       	bst	r16, 1
    348e:	04 41       	sbci	r16, 0x14	; 20
    3490:	44 4c       	sbci	r20, 0xC4	; 196
    3492:	41 52       	subi	r20, 0x21	; 33
    3494:	20 35       	cpi	r18, 0x50	; 80
    3496:	00 01       	movw	r0, r0
    3498:	fc 04       	cpc	r15, r12
    349a:	4d 55       	subi	r20, 0x5D	; 93
    349c:	58 34       	cpi	r21, 0x48	; 72
    349e:	20 34       	cpi	r18, 0x40	; 64
    34a0:	00 01       	movw	r0, r0
    34a2:	fd 04       	cpc	r15, r13
    34a4:	4d 55       	subi	r20, 0x5D	; 93
    34a6:	58 33       	cpi	r21, 0x38	; 56
    34a8:	20 33       	cpi	r18, 0x30	; 48
    34aa:	00 01       	movw	r0, r0
    34ac:	fe 04       	cpc	r15, r14
    34ae:	4d 55       	subi	r20, 0x5D	; 93
    34b0:	58 32       	cpi	r21, 0x28	; 40
    34b2:	20 32       	cpi	r18, 0x20	; 32
    34b4:	00 01       	movw	r0, r0
    34b6:	ff 04       	cpc	r15, r15
    34b8:	4d 55       	subi	r20, 0x5D	; 93
    34ba:	58 31       	cpi	r21, 0x18	; 24
    34bc:	20 31       	cpi	r18, 0x10	; 16
    34be:	00 01       	movw	r0, r0
    34c0:	80 05       	cpc	r24, r0
    34c2:	4d 55       	subi	r20, 0x5D	; 93
    34c4:	58 30       	cpi	r21, 0x08	; 8
    34c6:	20 30       	cpi	r18, 0x00	; 0
    34c8:	00 01       	movw	r0, r0
    34ca:	83 05       	cpc	r24, r3
    34cc:	45 45       	sbci	r20, 0x55	; 85
    34ce:	52 49       	sbci	r21, 0x92	; 146
    34d0:	45 20       	and	r4, r5
    34d2:	33 00       	.word	0x0033	; ????
    34d4:	01 84       	ldd	r0, Z+9	; 0x09
    34d6:	05 45       	sbci	r16, 0x55	; 85
    34d8:	45 4d       	sbci	r20, 0xD5	; 213
    34da:	57 45       	sbci	r21, 0x57	; 87
    34dc:	20 32       	cpi	r18, 0x20	; 32
    34de:	00 01       	movw	r0, r0
    34e0:	85 05       	cpc	r24, r5
    34e2:	45 45       	sbci	r20, 0x55	; 85
    34e4:	57 45       	sbci	r21, 0x57	; 87
    34e6:	20 31       	cpi	r18, 0x10	; 16
    34e8:	00 01       	movw	r0, r0
    34ea:	86 05       	cpc	r24, r6
    34ec:	45 45       	sbci	r20, 0x55	; 85
    34ee:	52 45       	sbci	r21, 0x52	; 82
    34f0:	20 30       	cpi	r18, 0x00	; 0
    34f2:	00 01       	movw	r0, r0
    34f4:	89 05       	cpc	r24, r9
    34f6:	53 50       	subi	r21, 0x03	; 3
    34f8:	4d 5f       	subi	r20, 0xFD	; 253
    34fa:	50 41       	sbci	r21, 0x10	; 16
    34fc:	47 45       	sbci	r20, 0x57	; 87
    34fe:	53 49       	sbci	r21, 0x93	; 147
    3500:	5a 45       	sbci	r21, 0x5A	; 90
    3502:	20 31       	cpi	r18, 0x10	; 16
    3504:	32 38       	cpi	r19, 0x82	; 130
    3506:	00 01       	movw	r0, r0
    3508:	8a 05       	cpc	r24, r10
    350a:	52 41       	sbci	r21, 0x12	; 18
    350c:	4d 45       	sbci	r20, 0x5D	; 93
    350e:	4e 44       	sbci	r20, 0x4E	; 78
    3510:	20 30       	cpi	r18, 0x00	; 0
    3512:	78 38       	cpi	r23, 0x88	; 136
    3514:	35 46       	sbci	r19, 0x65	; 101
    3516:	00 01       	movw	r0, r0
    3518:	8b 05       	cpc	r24, r11
    351a:	58 52       	subi	r21, 0x28	; 40
    351c:	41 4d       	sbci	r20, 0xD1	; 209
    351e:	45 4e       	sbci	r20, 0xE5	; 229
    3520:	44 20       	and	r4, r4
    3522:	52 41       	sbci	r21, 0x12	; 18
    3524:	4d 45       	sbci	r20, 0x5D	; 93
    3526:	4e 44       	sbci	r20, 0x4E	; 78
    3528:	00 01       	movw	r0, r0
    352a:	8c 05       	cpc	r24, r12
    352c:	45 32       	cpi	r20, 0x25	; 37
    352e:	45 4e       	sbci	r20, 0xE5	; 229
    3530:	44 20       	and	r4, r4
    3532:	30 78       	andi	r19, 0x80	; 128
    3534:	33 46       	sbci	r19, 0x63	; 99
    3536:	46 00       	.word	0x0046	; ????
    3538:	01 8d       	ldd	r16, Z+25	; 0x19
    353a:	05 45       	sbci	r16, 0x55	; 85
    353c:	32 50       	subi	r19, 0x02	; 2
    353e:	41 47       	sbci	r20, 0x71	; 113
    3540:	45 53       	subi	r20, 0x35	; 53
    3542:	49 5a       	subi	r20, 0xA9	; 169
    3544:	45 20       	and	r4, r5
    3546:	34 00       	.word	0x0034	; ????
    3548:	01 8e       	std	Z+25, r0	; 0x19
    354a:	05 46       	sbci	r16, 0x65	; 101
    354c:	4c 41       	sbci	r20, 0x1C	; 28
    354e:	53 48       	sbci	r21, 0x83	; 131
    3550:	45 4e       	sbci	r20, 0xE5	; 229
    3552:	44 20       	and	r4, r4
    3554:	30 78       	andi	r19, 0x80	; 128
    3556:	37 46       	sbci	r19, 0x67	; 103
    3558:	46 46       	sbci	r20, 0x66	; 102
    355a:	00 01       	movw	r0, r0
    355c:	93 05       	cpc	r25, r3
    355e:	46 55       	subi	r20, 0x56	; 86
    3560:	53 45       	sbci	r21, 0x53	; 83
    3562:	5f 4d       	sbci	r21, 0xDF	; 223
    3564:	45 4d       	sbci	r20, 0xD5	; 213
    3566:	4f 52       	subi	r20, 0x2F	; 47
    3568:	59 5f       	subi	r21, 0xF9	; 249
    356a:	53 49       	sbci	r21, 0x93	; 147
    356c:	5a 45       	sbci	r21, 0x5A	; 90
    356e:	20 32       	cpi	r18, 0x20	; 32
    3570:	00 01       	movw	r0, r0
    3572:	96 05       	cpc	r25, r6
    3574:	46 55       	subi	r20, 0x56	; 86
    3576:	53 45       	sbci	r21, 0x53	; 83
    3578:	5f 43       	sbci	r21, 0x3F	; 63
    357a:	4b 53       	subi	r20, 0x3B	; 59
    357c:	45 4c       	sbci	r20, 0xC5	; 197
    357e:	30 20       	and	r3, r0
    3580:	28 75       	andi	r18, 0x58	; 88
    3582:	6e 73       	andi	r22, 0x3E	; 62
    3584:	69 67       	ori	r22, 0x79	; 121
    3586:	6e 65       	ori	r22, 0x5E	; 94
    3588:	64 20       	and	r6, r4
    358a:	63 68       	ori	r22, 0x83	; 131
    358c:	61 72       	andi	r22, 0x21	; 33
    358e:	29 7e       	andi	r18, 0xE9	; 233
    3590:	5f 42       	sbci	r21, 0x2F	; 47
    3592:	56 28       	or	r5, r6
    3594:	30 29       	or	r19, r0
    3596:	00 01       	movw	r0, r0
    3598:	97 05       	cpc	r25, r7
    359a:	46 55       	subi	r20, 0x56	; 86
    359c:	53 45       	sbci	r21, 0x53	; 83
    359e:	5f 43       	sbci	r21, 0x3F	; 63
    35a0:	4b 53       	subi	r20, 0x3B	; 59
    35a2:	45 4c       	sbci	r20, 0xC5	; 197
    35a4:	31 20       	and	r3, r1
    35a6:	28 75       	andi	r18, 0x58	; 88
    35a8:	6e 73       	andi	r22, 0x3E	; 62
    35aa:	69 67       	ori	r22, 0x79	; 121
    35ac:	6e 65       	ori	r22, 0x5E	; 94
    35ae:	64 20       	and	r6, r4
    35b0:	63 68       	ori	r22, 0x83	; 131
    35b2:	61 72       	andi	r22, 0x21	; 33
    35b4:	29 7e       	andi	r18, 0xE9	; 233
    35b6:	5f 42       	sbci	r21, 0x2F	; 47
    35b8:	56 28       	or	r5, r6
    35ba:	31 29       	or	r19, r1
    35bc:	00 01       	movw	r0, r0
    35be:	98 05       	cpc	r25, r8
    35c0:	46 55       	subi	r20, 0x56	; 86
    35c2:	53 45       	sbci	r21, 0x53	; 83
    35c4:	5f 43       	sbci	r21, 0x3F	; 63
    35c6:	4b 53       	subi	r20, 0x3B	; 59
    35c8:	45 4c       	sbci	r20, 0xC5	; 197
    35ca:	32 20       	and	r3, r2
    35cc:	28 75       	andi	r18, 0x58	; 88
    35ce:	6e 73       	andi	r22, 0x3E	; 62
    35d0:	69 67       	ori	r22, 0x79	; 121
    35d2:	6e 65       	ori	r22, 0x5E	; 94
    35d4:	64 20       	and	r6, r4
    35d6:	63 68       	ori	r22, 0x83	; 131
    35d8:	61 72       	andi	r22, 0x21	; 33
    35da:	29 7e       	andi	r18, 0xE9	; 233
    35dc:	5f 42       	sbci	r21, 0x2F	; 47
    35de:	56 28       	or	r5, r6
    35e0:	32 29       	or	r19, r2
    35e2:	00 01       	movw	r0, r0
    35e4:	99 05       	cpc	r25, r9
    35e6:	46 55       	subi	r20, 0x56	; 86
    35e8:	53 45       	sbci	r21, 0x53	; 83
    35ea:	5f 43       	sbci	r21, 0x3F	; 63
    35ec:	4b 53       	subi	r20, 0x3B	; 59
    35ee:	45 4c       	sbci	r20, 0xC5	; 197
    35f0:	33 20       	and	r3, r3
    35f2:	28 75       	andi	r18, 0x58	; 88
    35f4:	6e 73       	andi	r22, 0x3E	; 62
    35f6:	69 67       	ori	r22, 0x79	; 121
    35f8:	6e 65       	ori	r22, 0x5E	; 94
    35fa:	64 20       	and	r6, r4
    35fc:	63 68       	ori	r22, 0x83	; 131
    35fe:	61 72       	andi	r22, 0x21	; 33
    3600:	29 7e       	andi	r18, 0xE9	; 233
    3602:	5f 42       	sbci	r21, 0x2F	; 47
    3604:	56 28       	or	r5, r6
    3606:	33 29       	or	r19, r3
    3608:	00 01       	movw	r0, r0
    360a:	9a 05       	cpc	r25, r10
    360c:	46 55       	subi	r20, 0x56	; 86
    360e:	53 45       	sbci	r21, 0x53	; 83
    3610:	5f 53       	subi	r21, 0x3F	; 63
    3612:	55 54       	subi	r21, 0x45	; 69
    3614:	30 20       	and	r3, r0
    3616:	28 75       	andi	r18, 0x58	; 88
    3618:	6e 73       	andi	r22, 0x3E	; 62
    361a:	69 67       	ori	r22, 0x79	; 121
    361c:	6e 65       	ori	r22, 0x5E	; 94
    361e:	64 20       	and	r6, r4
    3620:	63 68       	ori	r22, 0x83	; 131
    3622:	61 72       	andi	r22, 0x21	; 33
    3624:	29 7e       	andi	r18, 0xE9	; 233
    3626:	5f 42       	sbci	r21, 0x2F	; 47
    3628:	56 28       	or	r5, r6
    362a:	34 29       	or	r19, r4
    362c:	00 01       	movw	r0, r0
    362e:	9b 05       	cpc	r25, r11
    3630:	46 55       	subi	r20, 0x56	; 86
    3632:	53 45       	sbci	r21, 0x53	; 83
    3634:	5f 53       	subi	r21, 0x3F	; 63
    3636:	55 54       	subi	r21, 0x45	; 69
    3638:	31 20       	and	r3, r1
    363a:	28 75       	andi	r18, 0x58	; 88
    363c:	6e 73       	andi	r22, 0x3E	; 62
    363e:	69 67       	ori	r22, 0x79	; 121
    3640:	6e 65       	ori	r22, 0x5E	; 94
    3642:	64 20       	and	r6, r4
    3644:	63 68       	ori	r22, 0x83	; 131
    3646:	61 72       	andi	r22, 0x21	; 33
    3648:	29 7e       	andi	r18, 0xE9	; 233
    364a:	5f 42       	sbci	r21, 0x2F	; 47
    364c:	56 28       	or	r5, r6
    364e:	35 29       	or	r19, r5
    3650:	00 01       	movw	r0, r0
    3652:	9c 05       	cpc	r25, r12
    3654:	46 55       	subi	r20, 0x56	; 86
    3656:	53 45       	sbci	r21, 0x53	; 83
    3658:	5f 42       	sbci	r21, 0x2F	; 47
    365a:	4f 44       	sbci	r20, 0x4F	; 79
    365c:	45 4e       	sbci	r20, 0xE5	; 229
    365e:	20 28       	or	r2, r0
    3660:	75 6e       	ori	r23, 0xE5	; 229
    3662:	73 69       	ori	r23, 0x93	; 147
    3664:	67 6e       	ori	r22, 0xE7	; 231
    3666:	65 64       	ori	r22, 0x45	; 69
    3668:	20 63       	ori	r18, 0x30	; 48
    366a:	68 61       	ori	r22, 0x18	; 24
    366c:	72 29       	or	r23, r2
    366e:	7e 5f       	subi	r23, 0xFE	; 254
    3670:	42 56       	subi	r20, 0x62	; 98
    3672:	28 36       	cpi	r18, 0x68	; 104
    3674:	29 00       	.word	0x0029	; ????
    3676:	01 9d       	mul	r16, r1
    3678:	05 46       	sbci	r16, 0x65	; 101
    367a:	55 53       	subi	r21, 0x35	; 53
    367c:	45 5f       	subi	r20, 0xF5	; 245
    367e:	42 4f       	sbci	r20, 0xF2	; 242
    3680:	44 4c       	sbci	r20, 0xC4	; 196
    3682:	45 56       	subi	r20, 0x65	; 101
    3684:	45 4c       	sbci	r20, 0xC5	; 197
    3686:	20 28       	or	r2, r0
    3688:	75 6e       	ori	r23, 0xE5	; 229
    368a:	73 69       	ori	r23, 0x93	; 147
    368c:	67 6e       	ori	r22, 0xE7	; 231
    368e:	65 64       	ori	r22, 0x45	; 69
    3690:	20 63       	ori	r18, 0x30	; 48
    3692:	68 61       	ori	r22, 0x18	; 24
    3694:	72 29       	or	r23, r2
    3696:	7e 5f       	subi	r23, 0xFE	; 254
    3698:	42 56       	subi	r20, 0x62	; 98
    369a:	28 37       	cpi	r18, 0x78	; 120
    369c:	29 00       	.word	0x0029	; ????
    369e:	01 9e       	mul	r0, r17
    36a0:	05 4c       	sbci	r16, 0xC5	; 197
    36a2:	46 55       	subi	r20, 0x56	; 86
    36a4:	53 45       	sbci	r21, 0x53	; 83
    36a6:	5f 44       	sbci	r21, 0x4F	; 79
    36a8:	45 46       	sbci	r20, 0x65	; 101
    36aa:	41 55       	subi	r20, 0x51	; 81
    36ac:	4c 54       	subi	r20, 0x4C	; 76
    36ae:	20 28       	or	r2, r0
    36b0:	46 55       	subi	r20, 0x56	; 86
    36b2:	53 45       	sbci	r21, 0x53	; 83
    36b4:	5f 43       	sbci	r21, 0x3F	; 63
    36b6:	4b 53       	subi	r20, 0x3B	; 59
    36b8:	45 4c       	sbci	r20, 0xC5	; 197
    36ba:	31 20       	and	r3, r1
    36bc:	26 20       	and	r2, r6
    36be:	46 55       	subi	r20, 0x56	; 86
    36c0:	53 45       	sbci	r21, 0x53	; 83
    36c2:	5f 43       	sbci	r21, 0x3F	; 63
    36c4:	4b 53       	subi	r20, 0x3B	; 59
    36c6:	45 4c       	sbci	r20, 0xC5	; 197
    36c8:	32 20       	and	r3, r2
    36ca:	26 20       	and	r2, r6
    36cc:	46 55       	subi	r20, 0x56	; 86
    36ce:	53 45       	sbci	r21, 0x53	; 83
    36d0:	5f 43       	sbci	r21, 0x3F	; 63
    36d2:	4b 53       	subi	r20, 0x3B	; 59
    36d4:	45 4c       	sbci	r20, 0xC5	; 197
    36d6:	33 20       	and	r3, r3
    36d8:	26 20       	and	r2, r6
    36da:	46 55       	subi	r20, 0x56	; 86
    36dc:	53 45       	sbci	r21, 0x53	; 83
    36de:	5f 53       	subi	r21, 0x3F	; 63
    36e0:	55 54       	subi	r21, 0x45	; 69
    36e2:	30 29       	or	r19, r0
    36e4:	00 01       	movw	r0, r0
    36e6:	a1 05       	cpc	r26, r1
    36e8:	46 55       	subi	r20, 0x56	; 86
    36ea:	53 45       	sbci	r21, 0x53	; 83
    36ec:	5f 42       	sbci	r21, 0x2F	; 47
    36ee:	4f 4f       	sbci	r20, 0xFF	; 255
    36f0:	54 52       	subi	r21, 0x24	; 36
    36f2:	53 54       	subi	r21, 0x43	; 67
    36f4:	20 28       	or	r2, r0
    36f6:	75 6e       	ori	r23, 0xE5	; 229
    36f8:	73 69       	ori	r23, 0x93	; 147
    36fa:	67 6e       	ori	r22, 0xE7	; 231
    36fc:	65 64       	ori	r22, 0x45	; 69
    36fe:	20 63       	ori	r18, 0x30	; 48
    3700:	68 61       	ori	r22, 0x18	; 24
    3702:	72 29       	or	r23, r2
    3704:	7e 5f       	subi	r23, 0xFE	; 254
    3706:	42 56       	subi	r20, 0x62	; 98
    3708:	28 30       	cpi	r18, 0x08	; 8
    370a:	29 00       	.word	0x0029	; ????
    370c:	01 a2       	std	Z+33, r0	; 0x21
    370e:	05 46       	sbci	r16, 0x65	; 101
    3710:	55 53       	subi	r21, 0x35	; 53
    3712:	45 5f       	subi	r20, 0xF5	; 245
    3714:	42 4f       	sbci	r20, 0xF2	; 242
    3716:	4f 54       	subi	r20, 0x4F	; 79
    3718:	53 5a       	subi	r21, 0xA3	; 163
    371a:	30 20       	and	r3, r0
    371c:	28 75       	andi	r18, 0x58	; 88
    371e:	6e 73       	andi	r22, 0x3E	; 62
    3720:	69 67       	ori	r22, 0x79	; 121
    3722:	6e 65       	ori	r22, 0x5E	; 94
    3724:	64 20       	and	r6, r4
    3726:	63 68       	ori	r22, 0x83	; 131
    3728:	61 72       	andi	r22, 0x21	; 33
    372a:	29 7e       	andi	r18, 0xE9	; 233
    372c:	5f 42       	sbci	r21, 0x2F	; 47
    372e:	56 28       	or	r5, r6
    3730:	31 29       	or	r19, r1
    3732:	00 01       	movw	r0, r0
    3734:	a3 05       	cpc	r26, r3
    3736:	46 55       	subi	r20, 0x56	; 86
    3738:	53 45       	sbci	r21, 0x53	; 83
    373a:	5f 42       	sbci	r21, 0x2F	; 47
    373c:	4f 4f       	sbci	r20, 0xFF	; 255
    373e:	54 53       	subi	r21, 0x34	; 52
    3740:	5a 31       	cpi	r21, 0x1A	; 26
    3742:	20 28       	or	r2, r0
    3744:	75 6e       	ori	r23, 0xE5	; 229
    3746:	73 69       	ori	r23, 0x93	; 147
    3748:	67 6e       	ori	r22, 0xE7	; 231
    374a:	65 64       	ori	r22, 0x45	; 69
    374c:	20 63       	ori	r18, 0x30	; 48
    374e:	68 61       	ori	r22, 0x18	; 24
    3750:	72 29       	or	r23, r2
    3752:	7e 5f       	subi	r23, 0xFE	; 254
    3754:	42 56       	subi	r20, 0x62	; 98
    3756:	28 32       	cpi	r18, 0x28	; 40
    3758:	29 00       	.word	0x0029	; ????
    375a:	01 a4       	ldd	r0, Z+41	; 0x29
    375c:	05 46       	sbci	r16, 0x65	; 101
    375e:	55 53       	subi	r21, 0x35	; 53
    3760:	45 5f       	subi	r20, 0xF5	; 245
    3762:	45 45       	sbci	r20, 0x55	; 85
    3764:	53 41       	sbci	r21, 0x13	; 19
    3766:	56 45       	sbci	r21, 0x56	; 86
    3768:	20 28       	or	r2, r0
    376a:	75 6e       	ori	r23, 0xE5	; 229
    376c:	73 69       	ori	r23, 0x93	; 147
    376e:	67 6e       	ori	r22, 0xE7	; 231
    3770:	65 64       	ori	r22, 0x45	; 69
    3772:	20 63       	ori	r18, 0x30	; 48
    3774:	68 61       	ori	r22, 0x18	; 24
    3776:	72 29       	or	r23, r2
    3778:	7e 5f       	subi	r23, 0xFE	; 254
    377a:	42 56       	subi	r20, 0x62	; 98
    377c:	28 33       	cpi	r18, 0x38	; 56
    377e:	29 00       	.word	0x0029	; ????
    3780:	01 a5       	ldd	r16, Z+41	; 0x29
    3782:	05 46       	sbci	r16, 0x65	; 101
    3784:	55 53       	subi	r21, 0x35	; 53
    3786:	45 5f       	subi	r20, 0xF5	; 245
    3788:	43 4b       	sbci	r20, 0xB3	; 179
    378a:	4f 50       	subi	r20, 0x0F	; 15
    378c:	54 20       	and	r5, r4
    378e:	28 75       	andi	r18, 0x58	; 88
    3790:	6e 73       	andi	r22, 0x3E	; 62
    3792:	69 67       	ori	r22, 0x79	; 121
    3794:	6e 65       	ori	r22, 0x5E	; 94
    3796:	64 20       	and	r6, r4
    3798:	63 68       	ori	r22, 0x83	; 131
    379a:	61 72       	andi	r22, 0x21	; 33
    379c:	29 7e       	andi	r18, 0xE9	; 233
    379e:	5f 42       	sbci	r21, 0x2F	; 47
    37a0:	56 28       	or	r5, r6
    37a2:	34 29       	or	r19, r4
    37a4:	00 01       	movw	r0, r0
    37a6:	a6 05       	cpc	r26, r6
    37a8:	46 55       	subi	r20, 0x56	; 86
    37aa:	53 45       	sbci	r21, 0x53	; 83
    37ac:	5f 53       	subi	r21, 0x3F	; 63
    37ae:	50 49       	sbci	r21, 0x90	; 144
    37b0:	45 4e       	sbci	r20, 0xE5	; 229
    37b2:	20 28       	or	r2, r0
    37b4:	75 6e       	ori	r23, 0xE5	; 229
    37b6:	73 69       	ori	r23, 0x93	; 147
    37b8:	67 6e       	ori	r22, 0xE7	; 231
    37ba:	65 64       	ori	r22, 0x45	; 69
    37bc:	20 63       	ori	r18, 0x30	; 48
    37be:	68 61       	ori	r22, 0x18	; 24
    37c0:	72 29       	or	r23, r2
    37c2:	7e 5f       	subi	r23, 0xFE	; 254
    37c4:	42 56       	subi	r20, 0x62	; 98
    37c6:	28 35       	cpi	r18, 0x58	; 88
    37c8:	29 00       	.word	0x0029	; ????
    37ca:	01 a7       	std	Z+41, r16	; 0x29
    37cc:	05 46       	sbci	r16, 0x65	; 101
    37ce:	55 53       	subi	r21, 0x35	; 53
    37d0:	45 5f       	subi	r20, 0xF5	; 245
    37d2:	4a 54       	subi	r20, 0x4A	; 74
    37d4:	41 47       	sbci	r20, 0x71	; 113
    37d6:	45 4e       	sbci	r20, 0xE5	; 229
    37d8:	20 28       	or	r2, r0
    37da:	75 6e       	ori	r23, 0xE5	; 229
    37dc:	73 69       	ori	r23, 0x93	; 147
    37de:	67 6e       	ori	r22, 0xE7	; 231
    37e0:	65 64       	ori	r22, 0x45	; 69
    37e2:	20 63       	ori	r18, 0x30	; 48
    37e4:	68 61       	ori	r22, 0x18	; 24
    37e6:	72 29       	or	r23, r2
    37e8:	7e 5f       	subi	r23, 0xFE	; 254
    37ea:	42 56       	subi	r20, 0x62	; 98
    37ec:	28 36       	cpi	r18, 0x68	; 104
    37ee:	29 00       	.word	0x0029	; ????
    37f0:	01 a8       	ldd	r0, Z+49	; 0x31
    37f2:	05 46       	sbci	r16, 0x65	; 101
    37f4:	55 53       	subi	r21, 0x35	; 53
    37f6:	45 5f       	subi	r20, 0xF5	; 245
    37f8:	4f 43       	sbci	r20, 0x3F	; 63
    37fa:	44 45       	sbci	r20, 0x54	; 84
    37fc:	4e 20       	and	r4, r14
    37fe:	28 75       	andi	r18, 0x58	; 88
    3800:	6e 73       	andi	r22, 0x3E	; 62
    3802:	69 67       	ori	r22, 0x79	; 121
    3804:	6e 65       	ori	r22, 0x5E	; 94
    3806:	64 20       	and	r6, r4
    3808:	63 68       	ori	r22, 0x83	; 131
    380a:	61 72       	andi	r22, 0x21	; 33
    380c:	29 7e       	andi	r18, 0xE9	; 233
    380e:	5f 42       	sbci	r21, 0x2F	; 47
    3810:	56 28       	or	r5, r6
    3812:	37 29       	or	r19, r7
    3814:	00 01       	movw	r0, r0
    3816:	a9 05       	cpc	r26, r9
    3818:	48 46       	sbci	r20, 0x68	; 104
    381a:	55 53       	subi	r21, 0x35	; 53
    381c:	45 5f       	subi	r20, 0xF5	; 245
    381e:	44 45       	sbci	r20, 0x54	; 84
    3820:	46 41       	sbci	r20, 0x16	; 22
    3822:	55 4c       	sbci	r21, 0xC5	; 197
    3824:	54 20       	and	r5, r4
    3826:	28 46       	sbci	r18, 0x68	; 104
    3828:	55 53       	subi	r21, 0x35	; 53
    382a:	45 5f       	subi	r20, 0xF5	; 245
    382c:	42 4f       	sbci	r20, 0xF2	; 242
    382e:	4f 54       	subi	r20, 0x4F	; 79
    3830:	53 5a       	subi	r21, 0xA3	; 163
    3832:	30 20       	and	r3, r0
    3834:	26 20       	and	r2, r6
    3836:	46 55       	subi	r20, 0x56	; 86
    3838:	53 45       	sbci	r21, 0x53	; 83
    383a:	5f 42       	sbci	r21, 0x2F	; 47
    383c:	4f 4f       	sbci	r20, 0xFF	; 255
    383e:	54 53       	subi	r21, 0x34	; 52
    3840:	5a 31       	cpi	r21, 0x1A	; 26
    3842:	20 26       	eor	r2, r16
    3844:	20 46       	sbci	r18, 0x60	; 96
    3846:	55 53       	subi	r21, 0x35	; 53
    3848:	45 5f       	subi	r20, 0xF5	; 245
    384a:	53 50       	subi	r21, 0x03	; 3
    384c:	49 45       	sbci	r20, 0x59	; 89
    384e:	4e 20       	and	r4, r14
    3850:	26 20       	and	r2, r6
    3852:	46 55       	subi	r20, 0x56	; 86
    3854:	53 45       	sbci	r21, 0x53	; 83
    3856:	5f 4a       	sbci	r21, 0xAF	; 175
    3858:	54 41       	sbci	r21, 0x14	; 20
    385a:	47 45       	sbci	r20, 0x57	; 87
    385c:	4e 29       	or	r20, r14
    385e:	00 01       	movw	r0, r0
    3860:	ad 05       	cpc	r26, r13
    3862:	5f 5f       	subi	r21, 0xFF	; 255
    3864:	4c 4f       	sbci	r20, 0xFC	; 252
    3866:	43 4b       	sbci	r20, 0xB3	; 179
    3868:	5f 42       	sbci	r21, 0x2F	; 47
    386a:	49 54       	subi	r20, 0x49	; 73
    386c:	53 5f       	subi	r21, 0xF3	; 243
    386e:	45 58       	subi	r20, 0x85	; 133
    3870:	49 53       	subi	r20, 0x39	; 57
    3872:	54 20       	and	r5, r4
    3874:	00 01       	movw	r0, r0
    3876:	ae 05       	cpc	r26, r14
    3878:	5f 5f       	subi	r21, 0xFF	; 255
    387a:	42 4f       	sbci	r20, 0xF2	; 242
    387c:	4f 54       	subi	r20, 0x4F	; 79
    387e:	5f 4c       	sbci	r21, 0xCF	; 207
    3880:	4f 43       	sbci	r20, 0x3F	; 63
    3882:	4b 5f       	subi	r20, 0xFB	; 251
    3884:	42 49       	sbci	r20, 0x92	; 146
    3886:	54 53       	subi	r21, 0x34	; 52
    3888:	5f 30       	cpi	r21, 0x0F	; 15
    388a:	5f 45       	sbci	r21, 0x5F	; 95
    388c:	58 49       	sbci	r21, 0x98	; 152
    388e:	53 54       	subi	r21, 0x43	; 67
    3890:	20 00       	.word	0x0020	; ????
    3892:	01 af       	std	Z+57, r16	; 0x39
    3894:	05 5f       	subi	r16, 0xF5	; 245
    3896:	5f 42       	sbci	r21, 0x2F	; 47
    3898:	4f 4f       	sbci	r20, 0xFF	; 255
    389a:	54 5f       	subi	r21, 0xF4	; 244
    389c:	4c 4f       	sbci	r20, 0xFC	; 252
    389e:	43 4b       	sbci	r20, 0xB3	; 179
    38a0:	5f 42       	sbci	r21, 0x2F	; 47
    38a2:	49 54       	subi	r20, 0x49	; 73
    38a4:	53 5f       	subi	r21, 0xF3	; 243
    38a6:	31 5f       	subi	r19, 0xF1	; 241
    38a8:	45 58       	subi	r20, 0x85	; 133
    38aa:	49 53       	subi	r20, 0x39	; 57
    38ac:	54 20       	and	r5, r4
    38ae:	00 01       	movw	r0, r0
    38b0:	b3 05       	cpc	r27, r3
    38b2:	53 49       	sbci	r21, 0x93	; 147
    38b4:	47 4e       	sbci	r20, 0xE7	; 231
    38b6:	41 54       	subi	r20, 0x41	; 65
    38b8:	55 52       	subi	r21, 0x25	; 37
    38ba:	45 5f       	subi	r20, 0xF5	; 245
    38bc:	30 20       	and	r3, r0
    38be:	30 78       	andi	r19, 0x80	; 128
    38c0:	31 45       	sbci	r19, 0x51	; 81
    38c2:	00 01       	movw	r0, r0
    38c4:	b4 05       	cpc	r27, r4
    38c6:	53 49       	sbci	r21, 0x93	; 147
    38c8:	47 4e       	sbci	r20, 0xE7	; 231
    38ca:	41 54       	subi	r20, 0x41	; 65
    38cc:	55 52       	subi	r21, 0x25	; 37
    38ce:	45 5f       	subi	r20, 0xF5	; 245
    38d0:	31 20       	and	r3, r1
    38d2:	30 78       	andi	r19, 0x80	; 128
    38d4:	39 35       	cpi	r19, 0x59	; 89
    38d6:	00 01       	movw	r0, r0
    38d8:	b5 05       	cpc	r27, r5
    38da:	53 49       	sbci	r21, 0x93	; 147
    38dc:	47 4e       	sbci	r20, 0xE7	; 231
    38de:	41 54       	subi	r20, 0x41	; 65
    38e0:	55 52       	subi	r21, 0x25	; 37
    38e2:	45 5f       	subi	r20, 0xF5	; 245
    38e4:	32 20       	and	r3, r2
    38e6:	30 78       	andi	r19, 0x80	; 128
    38e8:	30 32       	cpi	r19, 0x20	; 32
    38ea:	00 04       	cpc	r0, r0
    38ec:	03 98       	cbi	0x00, 3	; 0
    38ee:	03 09       	sbc	r16, r3
    38f0:	01 22       	and	r0, r17
    38f2:	5f 41       	sbci	r21, 0x1F	; 31
    38f4:	56 52       	subi	r21, 0x26	; 38
    38f6:	5f 50       	subi	r21, 0x0F	; 15
    38f8:	4f 52       	subi	r20, 0x2F	; 47
    38fa:	54 50       	subi	r21, 0x04	; 4
    38fc:	49 4e       	sbci	r20, 0xE9	; 233
    38fe:	53 5f       	subi	r21, 0xF3	; 243
    3900:	48 5f       	subi	r20, 0xF8	; 248
    3902:	20 31       	cpi	r18, 0x10	; 16
    3904:	00 01       	movw	r0, r0
    3906:	2d 50       	subi	r18, 0x0D	; 13
    3908:	4f 52       	subi	r20, 0x2F	; 47
    390a:	54 37       	cpi	r21, 0x74	; 116
    390c:	20 37       	cpi	r18, 0x70	; 112
    390e:	00 01       	movw	r0, r0
    3910:	2e 50       	subi	r18, 0x0E	; 14
    3912:	4f 52       	subi	r20, 0x2F	; 47
    3914:	54 36       	cpi	r21, 0x64	; 100
    3916:	20 36       	cpi	r18, 0x60	; 96
    3918:	00 01       	movw	r0, r0
    391a:	2f 50       	subi	r18, 0x0F	; 15
    391c:	4f 52       	subi	r20, 0x2F	; 47
    391e:	54 35       	cpi	r21, 0x54	; 84
    3920:	20 35       	cpi	r18, 0x50	; 80
    3922:	00 01       	movw	r0, r0
    3924:	30 50       	subi	r19, 0x00	; 0
    3926:	4f 52       	subi	r20, 0x2F	; 47
    3928:	54 34       	cpi	r21, 0x44	; 68
    392a:	20 34       	cpi	r18, 0x40	; 64
    392c:	00 01       	movw	r0, r0
    392e:	31 50       	subi	r19, 0x01	; 1
    3930:	4f 52       	subi	r20, 0x2F	; 47
    3932:	54 33       	cpi	r21, 0x34	; 52
    3934:	20 33       	cpi	r18, 0x30	; 48
    3936:	00 01       	movw	r0, r0
    3938:	32 50       	subi	r19, 0x02	; 2
    393a:	4f 52       	subi	r20, 0x2F	; 47
    393c:	54 32       	cpi	r21, 0x24	; 36
    393e:	20 32       	cpi	r18, 0x20	; 32
    3940:	00 01       	movw	r0, r0
    3942:	33 50       	subi	r19, 0x03	; 3
    3944:	4f 52       	subi	r20, 0x2F	; 47
    3946:	54 31       	cpi	r21, 0x14	; 20
    3948:	20 31       	cpi	r18, 0x10	; 16
    394a:	00 01       	movw	r0, r0
    394c:	34 50       	subi	r19, 0x04	; 4
    394e:	4f 52       	subi	r20, 0x2F	; 47
    3950:	54 30       	cpi	r21, 0x04	; 4
    3952:	20 30       	cpi	r18, 0x00	; 0
    3954:	00 01       	movw	r0, r0
    3956:	37 44       	sbci	r19, 0x47	; 71
    3958:	44 37       	cpi	r20, 0x74	; 116
    395a:	20 37       	cpi	r18, 0x70	; 112
    395c:	00 01       	movw	r0, r0
    395e:	38 44       	sbci	r19, 0x48	; 72
    3960:	44 36       	cpi	r20, 0x64	; 100
    3962:	20 36       	cpi	r18, 0x60	; 96
    3964:	00 01       	movw	r0, r0
    3966:	39 44       	sbci	r19, 0x49	; 73
    3968:	44 35       	cpi	r20, 0x54	; 84
    396a:	20 35       	cpi	r18, 0x50	; 80
    396c:	00 01       	movw	r0, r0
    396e:	3a 44       	sbci	r19, 0x4A	; 74
    3970:	44 34       	cpi	r20, 0x44	; 68
    3972:	20 34       	cpi	r18, 0x40	; 64
    3974:	00 01       	movw	r0, r0
    3976:	3b 44       	sbci	r19, 0x4B	; 75
    3978:	44 33       	cpi	r20, 0x34	; 52
    397a:	20 33       	cpi	r18, 0x30	; 48
    397c:	00 01       	movw	r0, r0
    397e:	3c 44       	sbci	r19, 0x4C	; 76
    3980:	44 32       	cpi	r20, 0x24	; 36
    3982:	20 32       	cpi	r18, 0x20	; 32
    3984:	00 01       	movw	r0, r0
    3986:	3d 44       	sbci	r19, 0x4D	; 77
    3988:	44 31       	cpi	r20, 0x14	; 20
    398a:	20 31       	cpi	r18, 0x10	; 16
    398c:	00 01       	movw	r0, r0
    398e:	3e 44       	sbci	r19, 0x4E	; 78
    3990:	44 30       	cpi	r20, 0x04	; 4
    3992:	20 30       	cpi	r18, 0x00	; 0
    3994:	00 01       	movw	r0, r0
    3996:	41 50       	subi	r20, 0x01	; 1
    3998:	49 4e       	sbci	r20, 0xE9	; 233
    399a:	37 20       	and	r3, r7
    399c:	37 00       	.word	0x0037	; ????
    399e:	01 42       	sbci	r16, 0x21	; 33
    39a0:	50 49       	sbci	r21, 0x90	; 144
    39a2:	4e 36       	cpi	r20, 0x6E	; 110
    39a4:	20 36       	cpi	r18, 0x60	; 96
    39a6:	00 01       	movw	r0, r0
    39a8:	43 50       	subi	r20, 0x03	; 3
    39aa:	49 4e       	sbci	r20, 0xE9	; 233
    39ac:	35 20       	and	r3, r5
    39ae:	35 00       	.word	0x0035	; ????
    39b0:	01 44       	sbci	r16, 0x41	; 65
    39b2:	50 49       	sbci	r21, 0x90	; 144
    39b4:	4e 34       	cpi	r20, 0x4E	; 78
    39b6:	20 34       	cpi	r18, 0x40	; 64
    39b8:	00 01       	movw	r0, r0
    39ba:	45 50       	subi	r20, 0x05	; 5
    39bc:	49 4e       	sbci	r20, 0xE9	; 233
    39be:	33 20       	and	r3, r3
    39c0:	33 00       	.word	0x0033	; ????
    39c2:	01 46       	sbci	r16, 0x61	; 97
    39c4:	50 49       	sbci	r21, 0x90	; 144
    39c6:	4e 32       	cpi	r20, 0x2E	; 46
    39c8:	20 32       	cpi	r18, 0x20	; 32
    39ca:	00 01       	movw	r0, r0
    39cc:	47 50       	subi	r20, 0x07	; 7
    39ce:	49 4e       	sbci	r20, 0xE9	; 233
    39d0:	31 20       	and	r3, r1
    39d2:	31 00       	.word	0x0031	; ????
    39d4:	01 48       	sbci	r16, 0x81	; 129
    39d6:	50 49       	sbci	r21, 0x90	; 144
    39d8:	4e 30       	cpi	r20, 0x0E	; 14
    39da:	20 30       	cpi	r18, 0x00	; 0
    39dc:	00 01       	movw	r0, r0
    39de:	4f 50       	subi	r20, 0x0F	; 15
    39e0:	4f 52       	subi	r20, 0x2F	; 47
    39e2:	54 41       	sbci	r21, 0x14	; 20
    39e4:	30 20       	and	r3, r0
    39e6:	50 41       	sbci	r21, 0x10	; 16
    39e8:	30 00       	.word	0x0030	; ????
    39ea:	01 54       	subi	r16, 0x41	; 65
    39ec:	50 4f       	sbci	r21, 0xF0	; 240
    39ee:	52 54       	subi	r21, 0x42	; 66
    39f0:	41 31       	cpi	r20, 0x11	; 17
    39f2:	20 50       	subi	r18, 0x00	; 0
    39f4:	41 31       	cpi	r20, 0x11	; 17
    39f6:	00 01       	movw	r0, r0
    39f8:	59 50       	subi	r21, 0x09	; 9
    39fa:	4f 52       	subi	r20, 0x2F	; 47
    39fc:	54 41       	sbci	r21, 0x14	; 20
    39fe:	32 20       	and	r3, r2
    3a00:	50 41       	sbci	r21, 0x10	; 16
    3a02:	32 00       	.word	0x0032	; ????
    3a04:	01 5e       	subi	r16, 0xE1	; 225
    3a06:	50 4f       	sbci	r21, 0xF0	; 240
    3a08:	52 54       	subi	r21, 0x42	; 66
    3a0a:	41 33       	cpi	r20, 0x31	; 49
    3a0c:	20 50       	subi	r18, 0x00	; 0
    3a0e:	41 33       	cpi	r20, 0x31	; 49
    3a10:	00 01       	movw	r0, r0
    3a12:	63 50       	subi	r22, 0x03	; 3
    3a14:	4f 52       	subi	r20, 0x2F	; 47
    3a16:	54 41       	sbci	r21, 0x14	; 20
    3a18:	34 20       	and	r3, r4
    3a1a:	50 41       	sbci	r21, 0x10	; 16
    3a1c:	34 00       	.word	0x0034	; ????
    3a1e:	01 68       	ori	r16, 0x81	; 129
    3a20:	50 4f       	sbci	r21, 0xF0	; 240
    3a22:	52 54       	subi	r21, 0x42	; 66
    3a24:	41 35       	cpi	r20, 0x51	; 81
    3a26:	20 50       	subi	r18, 0x00	; 0
    3a28:	41 35       	cpi	r20, 0x51	; 81
    3a2a:	00 01       	movw	r0, r0
    3a2c:	6d 50       	subi	r22, 0x0D	; 13
    3a2e:	4f 52       	subi	r20, 0x2F	; 47
    3a30:	54 41       	sbci	r21, 0x14	; 20
    3a32:	36 20       	and	r3, r6
    3a34:	50 41       	sbci	r21, 0x10	; 16
    3a36:	36 00       	.word	0x0036	; ????
    3a38:	01 72       	andi	r16, 0x21	; 33
    3a3a:	50 4f       	sbci	r21, 0xF0	; 240
    3a3c:	52 54       	subi	r21, 0x42	; 66
    3a3e:	41 37       	cpi	r20, 0x71	; 113
    3a40:	20 50       	subi	r18, 0x00	; 0
    3a42:	41 37       	cpi	r20, 0x71	; 113
    3a44:	00 01       	movw	r0, r0
    3a46:	7a 50       	subi	r23, 0x0A	; 10
    3a48:	4f 52       	subi	r20, 0x2F	; 47
    3a4a:	54 42       	sbci	r21, 0x24	; 36
    3a4c:	30 20       	and	r3, r0
    3a4e:	50 42       	sbci	r21, 0x20	; 32
    3a50:	30 00       	.word	0x0030	; ????
    3a52:	01 7f       	andi	r16, 0xF1	; 241
    3a54:	50 4f       	sbci	r21, 0xF0	; 240
    3a56:	52 54       	subi	r21, 0x42	; 66
    3a58:	42 31       	cpi	r20, 0x12	; 18
    3a5a:	20 50       	subi	r18, 0x00	; 0
    3a5c:	42 31       	cpi	r20, 0x12	; 18
    3a5e:	00 01       	movw	r0, r0
    3a60:	84 01       	movw	r16, r8
    3a62:	50 4f       	sbci	r21, 0xF0	; 240
    3a64:	52 54       	subi	r21, 0x42	; 66
    3a66:	42 32       	cpi	r20, 0x22	; 34
    3a68:	20 50       	subi	r18, 0x00	; 0
    3a6a:	42 32       	cpi	r20, 0x22	; 34
    3a6c:	00 01       	movw	r0, r0
    3a6e:	89 01       	movw	r16, r18
    3a70:	50 4f       	sbci	r21, 0xF0	; 240
    3a72:	52 54       	subi	r21, 0x42	; 66
    3a74:	42 33       	cpi	r20, 0x32	; 50
    3a76:	20 50       	subi	r18, 0x00	; 0
    3a78:	42 33       	cpi	r20, 0x32	; 50
    3a7a:	00 01       	movw	r0, r0
    3a7c:	8e 01       	movw	r16, r28
    3a7e:	50 4f       	sbci	r21, 0xF0	; 240
    3a80:	52 54       	subi	r21, 0x42	; 66
    3a82:	42 34       	cpi	r20, 0x42	; 66
    3a84:	20 50       	subi	r18, 0x00	; 0
    3a86:	42 34       	cpi	r20, 0x42	; 66
    3a88:	00 01       	movw	r0, r0
    3a8a:	93 01       	movw	r18, r6
    3a8c:	50 4f       	sbci	r21, 0xF0	; 240
    3a8e:	52 54       	subi	r21, 0x42	; 66
    3a90:	42 35       	cpi	r20, 0x52	; 82
    3a92:	20 50       	subi	r18, 0x00	; 0
    3a94:	42 35       	cpi	r20, 0x52	; 82
    3a96:	00 01       	movw	r0, r0
    3a98:	98 01       	movw	r18, r16
    3a9a:	50 4f       	sbci	r21, 0xF0	; 240
    3a9c:	52 54       	subi	r21, 0x42	; 66
    3a9e:	42 36       	cpi	r20, 0x62	; 98
    3aa0:	20 50       	subi	r18, 0x00	; 0
    3aa2:	42 36       	cpi	r20, 0x62	; 98
    3aa4:	00 01       	movw	r0, r0
    3aa6:	9d 01       	movw	r18, r26
    3aa8:	50 4f       	sbci	r21, 0xF0	; 240
    3aaa:	52 54       	subi	r21, 0x42	; 66
    3aac:	42 37       	cpi	r20, 0x72	; 114
    3aae:	20 50       	subi	r18, 0x00	; 0
    3ab0:	42 37       	cpi	r20, 0x72	; 114
    3ab2:	00 01       	movw	r0, r0
    3ab4:	a5 01       	movw	r20, r10
    3ab6:	50 4f       	sbci	r21, 0xF0	; 240
    3ab8:	52 54       	subi	r21, 0x42	; 66
    3aba:	43 30       	cpi	r20, 0x03	; 3
    3abc:	20 50       	subi	r18, 0x00	; 0
    3abe:	43 30       	cpi	r20, 0x03	; 3
    3ac0:	00 01       	movw	r0, r0
    3ac2:	aa 01       	movw	r20, r20
    3ac4:	50 4f       	sbci	r21, 0xF0	; 240
    3ac6:	52 54       	subi	r21, 0x42	; 66
    3ac8:	43 31       	cpi	r20, 0x13	; 19
    3aca:	20 50       	subi	r18, 0x00	; 0
    3acc:	43 31       	cpi	r20, 0x13	; 19
    3ace:	00 01       	movw	r0, r0
    3ad0:	af 01       	movw	r20, r30
    3ad2:	50 4f       	sbci	r21, 0xF0	; 240
    3ad4:	52 54       	subi	r21, 0x42	; 66
    3ad6:	43 32       	cpi	r20, 0x23	; 35
    3ad8:	20 50       	subi	r18, 0x00	; 0
    3ada:	43 32       	cpi	r20, 0x23	; 35
    3adc:	00 01       	movw	r0, r0
    3ade:	b4 01       	movw	r22, r8
    3ae0:	50 4f       	sbci	r21, 0xF0	; 240
    3ae2:	52 54       	subi	r21, 0x42	; 66
    3ae4:	43 33       	cpi	r20, 0x33	; 51
    3ae6:	20 50       	subi	r18, 0x00	; 0
    3ae8:	43 33       	cpi	r20, 0x33	; 51
    3aea:	00 01       	movw	r0, r0
    3aec:	b9 01       	movw	r22, r18
    3aee:	50 4f       	sbci	r21, 0xF0	; 240
    3af0:	52 54       	subi	r21, 0x42	; 66
    3af2:	43 34       	cpi	r20, 0x43	; 67
    3af4:	20 50       	subi	r18, 0x00	; 0
    3af6:	43 34       	cpi	r20, 0x43	; 67
    3af8:	00 01       	movw	r0, r0
    3afa:	be 01       	movw	r22, r28
    3afc:	50 4f       	sbci	r21, 0xF0	; 240
    3afe:	52 54       	subi	r21, 0x42	; 66
    3b00:	43 35       	cpi	r20, 0x53	; 83
    3b02:	20 50       	subi	r18, 0x00	; 0
    3b04:	43 35       	cpi	r20, 0x53	; 83
    3b06:	00 01       	movw	r0, r0
    3b08:	c3 01       	movw	r24, r6
    3b0a:	50 4f       	sbci	r21, 0xF0	; 240
    3b0c:	52 54       	subi	r21, 0x42	; 66
    3b0e:	43 36       	cpi	r20, 0x63	; 99
    3b10:	20 50       	subi	r18, 0x00	; 0
    3b12:	43 36       	cpi	r20, 0x63	; 99
    3b14:	00 01       	movw	r0, r0
    3b16:	c8 01       	movw	r24, r16
    3b18:	50 4f       	sbci	r21, 0xF0	; 240
    3b1a:	52 54       	subi	r21, 0x42	; 66
    3b1c:	43 37       	cpi	r20, 0x73	; 115
    3b1e:	20 50       	subi	r18, 0x00	; 0
    3b20:	43 37       	cpi	r20, 0x73	; 115
    3b22:	00 01       	movw	r0, r0
    3b24:	d0 01       	movw	r26, r0
    3b26:	50 4f       	sbci	r21, 0xF0	; 240
    3b28:	52 54       	subi	r21, 0x42	; 66
    3b2a:	44 30       	cpi	r20, 0x04	; 4
    3b2c:	20 50       	subi	r18, 0x00	; 0
    3b2e:	44 30       	cpi	r20, 0x04	; 4
    3b30:	00 01       	movw	r0, r0
    3b32:	d5 01       	movw	r26, r10
    3b34:	50 4f       	sbci	r21, 0xF0	; 240
    3b36:	52 54       	subi	r21, 0x42	; 66
    3b38:	44 31       	cpi	r20, 0x14	; 20
    3b3a:	20 50       	subi	r18, 0x00	; 0
    3b3c:	44 31       	cpi	r20, 0x14	; 20
    3b3e:	00 01       	movw	r0, r0
    3b40:	da 01       	movw	r26, r20
    3b42:	50 4f       	sbci	r21, 0xF0	; 240
    3b44:	52 54       	subi	r21, 0x42	; 66
    3b46:	44 32       	cpi	r20, 0x24	; 36
    3b48:	20 50       	subi	r18, 0x00	; 0
    3b4a:	44 32       	cpi	r20, 0x24	; 36
    3b4c:	00 01       	movw	r0, r0
    3b4e:	df 01       	movw	r26, r30
    3b50:	50 4f       	sbci	r21, 0xF0	; 240
    3b52:	52 54       	subi	r21, 0x42	; 66
    3b54:	44 33       	cpi	r20, 0x34	; 52
    3b56:	20 50       	subi	r18, 0x00	; 0
    3b58:	44 33       	cpi	r20, 0x34	; 52
    3b5a:	00 01       	movw	r0, r0
    3b5c:	e4 01       	movw	r28, r8
    3b5e:	50 4f       	sbci	r21, 0xF0	; 240
    3b60:	52 54       	subi	r21, 0x42	; 66
    3b62:	44 34       	cpi	r20, 0x44	; 68
    3b64:	20 50       	subi	r18, 0x00	; 0
    3b66:	44 34       	cpi	r20, 0x44	; 68
    3b68:	00 01       	movw	r0, r0
    3b6a:	e9 01       	movw	r28, r18
    3b6c:	50 4f       	sbci	r21, 0xF0	; 240
    3b6e:	52 54       	subi	r21, 0x42	; 66
    3b70:	44 35       	cpi	r20, 0x54	; 84
    3b72:	20 50       	subi	r18, 0x00	; 0
    3b74:	44 35       	cpi	r20, 0x54	; 84
    3b76:	00 01       	movw	r0, r0
    3b78:	ee 01       	movw	r28, r28
    3b7a:	50 4f       	sbci	r21, 0xF0	; 240
    3b7c:	52 54       	subi	r21, 0x42	; 66
    3b7e:	44 36       	cpi	r20, 0x64	; 100
    3b80:	20 50       	subi	r18, 0x00	; 0
    3b82:	44 36       	cpi	r20, 0x64	; 100
    3b84:	00 01       	movw	r0, r0
    3b86:	f3 01       	movw	r30, r6
    3b88:	50 4f       	sbci	r21, 0xF0	; 240
    3b8a:	52 54       	subi	r21, 0x42	; 66
    3b8c:	44 37       	cpi	r20, 0x74	; 116
    3b8e:	20 50       	subi	r18, 0x00	; 0
    3b90:	44 37       	cpi	r20, 0x74	; 116
    3b92:	00 04       	cpc	r0, r0
    3b94:	03 9a       	sbi	0x00, 3	; 0
    3b96:	03 0a       	sbc	r0, r19
    3b98:	01 23       	and	r16, r17
    3b9a:	5f 41       	sbci	r21, 0x1F	; 31
    3b9c:	56 52       	subi	r21, 0x26	; 38
    3b9e:	5f 43       	sbci	r21, 0x3F	; 63
    3ba0:	4f 4d       	sbci	r20, 0xDF	; 223
    3ba2:	4d 4f       	sbci	r20, 0xFD	; 253
    3ba4:	4e 5f       	subi	r20, 0xFE	; 254
    3ba6:	48 20       	and	r4, r8
    3ba8:	00 01       	movw	r0, r0
    3baa:	51 53       	subi	r21, 0x31	; 49
    3bac:	50 4c       	sbci	r21, 0xC0	; 192
    3bae:	20 5f       	subi	r18, 0xF0	; 240
    3bb0:	53 46       	sbci	r21, 0x63	; 99
    3bb2:	52 5f       	subi	r21, 0xF2	; 242
    3bb4:	49 4f       	sbci	r20, 0xF9	; 249
    3bb6:	38 28       	or	r3, r8
    3bb8:	30 78       	andi	r19, 0x80	; 128
    3bba:	33 44       	sbci	r19, 0x43	; 67
    3bbc:	29 00       	.word	0x0029	; ????
    3bbe:	01 59       	subi	r16, 0x91	; 145
    3bc0:	53 50       	subi	r21, 0x03	; 3
    3bc2:	20 5f       	subi	r18, 0xF0	; 240
    3bc4:	53 46       	sbci	r21, 0x63	; 99
    3bc6:	52 5f       	subi	r21, 0xF2	; 242
    3bc8:	49 4f       	sbci	r20, 0xF9	; 249
    3bca:	31 36       	cpi	r19, 0x61	; 97
    3bcc:	28 30       	cpi	r18, 0x08	; 8
    3bce:	78 33       	cpi	r23, 0x38	; 56
    3bd0:	44 29       	or	r20, r4
    3bd2:	00 01       	movw	r0, r0
    3bd4:	5c 53       	subi	r21, 0x3C	; 60
    3bd6:	50 48       	sbci	r21, 0x80	; 128
    3bd8:	20 5f       	subi	r18, 0xF0	; 240
    3bda:	53 46       	sbci	r21, 0x63	; 99
    3bdc:	52 5f       	subi	r21, 0xF2	; 242
    3bde:	49 4f       	sbci	r20, 0xF9	; 249
    3be0:	38 28       	or	r3, r8
    3be2:	30 78       	andi	r19, 0x80	; 128
    3be4:	33 45       	sbci	r19, 0x53	; 83
    3be6:	29 00       	.word	0x0029	; ????
    3be8:	01 67       	ori	r16, 0x71	; 113
    3bea:	53 52       	subi	r21, 0x23	; 35
    3bec:	45 47       	sbci	r20, 0x75	; 117
    3bee:	20 5f       	subi	r18, 0xF0	; 240
    3bf0:	53 46       	sbci	r21, 0x63	; 99
    3bf2:	52 5f       	subi	r21, 0xF2	; 242
    3bf4:	49 4f       	sbci	r20, 0xF9	; 249
    3bf6:	38 28       	or	r3, r8
    3bf8:	30 78       	andi	r19, 0x80	; 128
    3bfa:	33 46       	sbci	r19, 0x63	; 99
    3bfc:	29 00       	.word	0x0029	; ????
    3bfe:	01 6e       	ori	r16, 0xE1	; 225
    3c00:	53 52       	subi	r21, 0x23	; 35
    3c02:	45 47       	sbci	r20, 0x75	; 117
    3c04:	5f 43       	sbci	r21, 0x3F	; 63
    3c06:	20 28       	or	r2, r0
    3c08:	30 29       	or	r19, r0
    3c0a:	00 01       	movw	r0, r0
    3c0c:	71 53       	subi	r23, 0x31	; 49
    3c0e:	52 45       	sbci	r21, 0x52	; 82
    3c10:	47 5f       	subi	r20, 0xF7	; 247
    3c12:	5a 20       	and	r5, r10
    3c14:	28 31       	cpi	r18, 0x18	; 24
    3c16:	29 00       	.word	0x0029	; ????
    3c18:	01 74       	andi	r16, 0x41	; 65
    3c1a:	53 52       	subi	r21, 0x23	; 35
    3c1c:	45 47       	sbci	r20, 0x75	; 117
    3c1e:	5f 4e       	sbci	r21, 0xEF	; 239
    3c20:	20 28       	or	r2, r0
    3c22:	32 29       	or	r19, r2
    3c24:	00 01       	movw	r0, r0
    3c26:	77 53       	subi	r23, 0x37	; 55
    3c28:	52 45       	sbci	r21, 0x52	; 82
    3c2a:	47 5f       	subi	r20, 0xF7	; 247
    3c2c:	56 20       	and	r5, r6
    3c2e:	28 33       	cpi	r18, 0x38	; 56
    3c30:	29 00       	.word	0x0029	; ????
    3c32:	01 7a       	andi	r16, 0xA1	; 161
    3c34:	53 52       	subi	r21, 0x23	; 35
    3c36:	45 47       	sbci	r20, 0x75	; 117
    3c38:	5f 53       	subi	r21, 0x3F	; 63
    3c3a:	20 28       	or	r2, r0
    3c3c:	34 29       	or	r19, r4
    3c3e:	00 01       	movw	r0, r0
    3c40:	7d 53       	subi	r23, 0x3D	; 61
    3c42:	52 45       	sbci	r21, 0x52	; 82
    3c44:	47 5f       	subi	r20, 0xF7	; 247
    3c46:	48 20       	and	r4, r8
    3c48:	28 35       	cpi	r18, 0x58	; 88
    3c4a:	29 00       	.word	0x0029	; ????
    3c4c:	01 80       	ldd	r0, Z+1	; 0x01
    3c4e:	01 53       	subi	r16, 0x31	; 49
    3c50:	52 45       	sbci	r21, 0x52	; 82
    3c52:	47 5f       	subi	r20, 0xF7	; 247
    3c54:	54 20       	and	r5, r4
    3c56:	28 36       	cpi	r18, 0x68	; 104
    3c58:	29 00       	.word	0x0029	; ????
    3c5a:	01 83       	std	Z+1, r16	; 0x01
    3c5c:	01 53       	subi	r16, 0x31	; 49
    3c5e:	52 45       	sbci	r21, 0x52	; 82
    3c60:	47 5f       	subi	r20, 0xF7	; 247
    3c62:	49 20       	and	r4, r9
    3c64:	28 37       	cpi	r18, 0x78	; 120
    3c66:	29 00       	.word	0x0029	; ????
    3c68:	01 cb       	rjmp	.-2558   	; 0x326c <__data_load_end+0x2598>
    3c6a:	01 58       	subi	r16, 0x81	; 129
    3c6c:	4c 20       	and	r4, r12
    3c6e:	72 32       	cpi	r23, 0x22	; 34
    3c70:	36 00       	.word	0x0036	; ????
    3c72:	01 cc       	rjmp	.-2046   	; 0x3476 <__data_load_end+0x27a2>
    3c74:	01 58       	subi	r16, 0x81	; 129
    3c76:	48 20       	and	r4, r8
    3c78:	72 32       	cpi	r23, 0x22	; 34
    3c7a:	37 00       	.word	0x0037	; ????
    3c7c:	01 cd       	rjmp	.-1534   	; 0x3680 <__data_load_end+0x29ac>
    3c7e:	01 59       	subi	r16, 0x91	; 145
    3c80:	4c 20       	and	r4, r12
    3c82:	72 32       	cpi	r23, 0x22	; 34
    3c84:	38 00       	.word	0x0038	; ????
    3c86:	01 ce       	rjmp	.-1022   	; 0x388a <__data_load_end+0x2bb6>
    3c88:	01 59       	subi	r16, 0x91	; 145
    3c8a:	48 20       	and	r4, r8
    3c8c:	72 32       	cpi	r23, 0x22	; 34
    3c8e:	39 00       	.word	0x0039	; ????
    3c90:	01 d0       	rcall	.+2      	; 0x3c94 <__data_load_end+0x2fc0>
    3c92:	01 5a       	subi	r16, 0xA1	; 161
    3c94:	4c 20       	and	r4, r12
    3c96:	72 33       	cpi	r23, 0x32	; 50
    3c98:	30 00       	.word	0x0030	; ????
    3c9a:	01 d1       	rcall	.+514    	; 0x3e9e <__data_load_end+0x31ca>
    3c9c:	01 5a       	subi	r16, 0xA1	; 161
    3c9e:	48 20       	and	r4, r8
    3ca0:	72 33       	cpi	r23, 0x32	; 50
    3ca2:	31 00       	.word	0x0031	; ????
    3ca4:	01 d6       	rcall	.+3074   	; 0x48a8 <__data_load_end+0x3bd4>
    3ca6:	01 41       	sbci	r16, 0x11	; 17
    3ca8:	56 52       	subi	r21, 0x26	; 38
    3caa:	5f 53       	subi	r21, 0x3F	; 63
    3cac:	54 41       	sbci	r21, 0x14	; 20
    3cae:	54 55       	subi	r21, 0x54	; 84
    3cb0:	53 5f       	subi	r21, 0xF3	; 243
    3cb2:	52 45       	sbci	r21, 0x52	; 82
    3cb4:	47 20       	and	r4, r7
    3cb6:	53 52       	subi	r21, 0x23	; 35
    3cb8:	45 47       	sbci	r20, 0x75	; 117
    3cba:	00 01       	movw	r0, r0
    3cbc:	da 01       	movw	r26, r20
    3cbe:	41 56       	subi	r20, 0x61	; 97
    3cc0:	52 5f       	subi	r21, 0xF2	; 242
    3cc2:	53 54       	subi	r21, 0x43	; 67
    3cc4:	41 54       	subi	r20, 0x41	; 65
    3cc6:	55 53       	subi	r21, 0x35	; 53
    3cc8:	5f 41       	sbci	r21, 0x1F	; 31
    3cca:	44 44       	sbci	r20, 0x44	; 68
    3ccc:	52 20       	and	r5, r2
    3cce:	5f 53       	subi	r21, 0x3F	; 63
    3cd0:	46 52       	subi	r20, 0x26	; 38
    3cd2:	5f 49       	sbci	r21, 0x9F	; 159
    3cd4:	4f 5f       	subi	r20, 0xFF	; 255
    3cd6:	41 44       	sbci	r20, 0x41	; 65
    3cd8:	44 52       	subi	r20, 0x24	; 36
    3cda:	28 53       	subi	r18, 0x38	; 56
    3cdc:	52 45       	sbci	r21, 0x52	; 82
    3cde:	47 29       	or	r20, r7
    3ce0:	00 01       	movw	r0, r0
    3ce2:	e0 01       	movw	r28, r0
    3ce4:	41 56       	subi	r20, 0x61	; 97
    3ce6:	52 5f       	subi	r21, 0xF2	; 242
    3ce8:	53 54       	subi	r21, 0x43	; 67
    3cea:	41 43       	sbci	r20, 0x31	; 49
    3cec:	4b 5f       	subi	r20, 0xFB	; 251
    3cee:	50 4f       	sbci	r21, 0xF0	; 240
    3cf0:	49 4e       	sbci	r20, 0xE9	; 233
    3cf2:	54 45       	sbci	r21, 0x54	; 84
    3cf4:	52 5f       	subi	r21, 0xF2	; 242
    3cf6:	52 45       	sbci	r21, 0x52	; 82
    3cf8:	47 20       	and	r4, r7
    3cfa:	53 50       	subi	r21, 0x03	; 3
    3cfc:	00 01       	movw	r0, r0
    3cfe:	e4 01       	movw	r28, r8
    3d00:	41 56       	subi	r20, 0x61	; 97
    3d02:	52 5f       	subi	r21, 0xF2	; 242
    3d04:	53 54       	subi	r21, 0x43	; 67
    3d06:	41 43       	sbci	r20, 0x31	; 49
    3d08:	4b 5f       	subi	r20, 0xFB	; 251
    3d0a:	50 4f       	sbci	r21, 0xF0	; 240
    3d0c:	49 4e       	sbci	r20, 0xE9	; 233
    3d0e:	54 45       	sbci	r21, 0x54	; 84
    3d10:	52 5f       	subi	r21, 0xF2	; 242
    3d12:	41 44       	sbci	r20, 0x41	; 65
    3d14:	44 52       	subi	r20, 0x24	; 36
    3d16:	20 5f       	subi	r18, 0xF0	; 240
    3d18:	53 46       	sbci	r21, 0x63	; 99
    3d1a:	52 5f       	subi	r21, 0xF2	; 242
    3d1c:	49 4f       	sbci	r20, 0xF9	; 249
    3d1e:	5f 41       	sbci	r21, 0x1F	; 31
    3d20:	44 44       	sbci	r20, 0x44	; 68
    3d22:	52 28       	or	r5, r2
    3d24:	53 50       	subi	r21, 0x03	; 3
    3d26:	29 00       	.word	0x0029	; ????
    3d28:	01 ea       	ldi	r16, 0xA1	; 161
    3d2a:	01 5f       	subi	r16, 0xF1	; 241
    3d2c:	48 41       	sbci	r20, 0x18	; 24
    3d2e:	56 45       	sbci	r21, 0x56	; 86
    3d30:	5f 41       	sbci	r21, 0x1F	; 31
    3d32:	56 52       	subi	r21, 0x26	; 38
    3d34:	5f 53       	subi	r21, 0x3F	; 63
    3d36:	54 41       	sbci	r21, 0x14	; 20
    3d38:	43 4b       	sbci	r20, 0xB3	; 179
    3d3a:	5f 50       	subi	r21, 0x0F	; 15
    3d3c:	4f 49       	sbci	r20, 0x9F	; 159
    3d3e:	4e 54       	subi	r20, 0x4E	; 78
    3d40:	45 52       	subi	r20, 0x25	; 37
    3d42:	5f 48       	sbci	r21, 0x8F	; 143
    3d44:	49 20       	and	r4, r9
    3d46:	31 00       	.word	0x0031	; ????
    3d48:	01 eb       	ldi	r16, 0xB1	; 177
    3d4a:	01 41       	sbci	r16, 0x11	; 17
    3d4c:	56 52       	subi	r21, 0x26	; 38
    3d4e:	5f 53       	subi	r21, 0x3F	; 63
    3d50:	54 41       	sbci	r21, 0x14	; 20
    3d52:	43 4b       	sbci	r20, 0xB3	; 179
    3d54:	5f 50       	subi	r21, 0x0F	; 15
    3d56:	4f 49       	sbci	r20, 0x9F	; 159
    3d58:	4e 54       	subi	r20, 0x4E	; 78
    3d5a:	45 52       	subi	r20, 0x25	; 37
    3d5c:	5f 48       	sbci	r21, 0x8F	; 143
    3d5e:	49 5f       	subi	r20, 0xF9	; 249
    3d60:	52 45       	sbci	r21, 0x52	; 82
    3d62:	47 20       	and	r4, r7
    3d64:	53 50       	subi	r21, 0x03	; 3
    3d66:	48 00       	.word	0x0048	; ????
    3d68:	01 ef       	ldi	r16, 0xF1	; 241
    3d6a:	01 41       	sbci	r16, 0x11	; 17
    3d6c:	56 52       	subi	r21, 0x26	; 38
    3d6e:	5f 53       	subi	r21, 0x3F	; 63
    3d70:	54 41       	sbci	r21, 0x14	; 20
    3d72:	43 4b       	sbci	r20, 0xB3	; 179
    3d74:	5f 50       	subi	r21, 0x0F	; 15
    3d76:	4f 49       	sbci	r20, 0x9F	; 159
    3d78:	4e 54       	subi	r20, 0x4E	; 78
    3d7a:	45 52       	subi	r20, 0x25	; 37
    3d7c:	5f 48       	sbci	r21, 0x8F	; 143
    3d7e:	49 5f       	subi	r20, 0xF9	; 249
    3d80:	41 44       	sbci	r20, 0x41	; 65
    3d82:	44 52       	subi	r20, 0x24	; 36
    3d84:	20 5f       	subi	r18, 0xF0	; 240
    3d86:	53 46       	sbci	r21, 0x63	; 99
    3d88:	52 5f       	subi	r21, 0xF2	; 242
    3d8a:	49 4f       	sbci	r20, 0xF9	; 249
    3d8c:	5f 41       	sbci	r21, 0x1F	; 31
    3d8e:	44 44       	sbci	r20, 0x44	; 68
    3d90:	52 28       	or	r5, r2
    3d92:	53 50       	subi	r21, 0x03	; 3
    3d94:	48 29       	or	r20, r8
    3d96:	00 01       	movw	r0, r0
    3d98:	f5 01       	movw	r30, r10
    3d9a:	41 56       	subi	r20, 0x61	; 97
    3d9c:	52 5f       	subi	r21, 0xF2	; 242
    3d9e:	53 54       	subi	r21, 0x43	; 67
    3da0:	41 43       	sbci	r20, 0x31	; 49
    3da2:	4b 5f       	subi	r20, 0xFB	; 251
    3da4:	50 4f       	sbci	r21, 0xF0	; 240
    3da6:	49 4e       	sbci	r20, 0xE9	; 233
    3da8:	54 45       	sbci	r21, 0x54	; 84
    3daa:	52 5f       	subi	r21, 0xF2	; 242
    3dac:	4c 4f       	sbci	r20, 0xFC	; 252
    3dae:	5f 52       	subi	r21, 0x2F	; 47
    3db0:	45 47       	sbci	r20, 0x75	; 117
    3db2:	20 53       	subi	r18, 0x30	; 48
    3db4:	50 4c       	sbci	r21, 0xC0	; 192
    3db6:	00 01       	movw	r0, r0
    3db8:	f9 01       	movw	r30, r18
    3dba:	41 56       	subi	r20, 0x61	; 97
    3dbc:	52 5f       	subi	r21, 0xF2	; 242
    3dbe:	53 54       	subi	r21, 0x43	; 67
    3dc0:	41 43       	sbci	r20, 0x31	; 49
    3dc2:	4b 5f       	subi	r20, 0xFB	; 251
    3dc4:	50 4f       	sbci	r21, 0xF0	; 240
    3dc6:	49 4e       	sbci	r20, 0xE9	; 233
    3dc8:	54 45       	sbci	r21, 0x54	; 84
    3dca:	52 5f       	subi	r21, 0xF2	; 242
    3dcc:	4c 4f       	sbci	r20, 0xFC	; 252
    3dce:	5f 41       	sbci	r21, 0x1F	; 31
    3dd0:	44 44       	sbci	r20, 0x44	; 68
    3dd2:	52 20       	and	r5, r2
    3dd4:	5f 53       	subi	r21, 0x3F	; 63
    3dd6:	46 52       	subi	r20, 0x26	; 38
    3dd8:	5f 49       	sbci	r21, 0x9F	; 159
    3dda:	4f 5f       	subi	r20, 0xFF	; 255
    3ddc:	41 44       	sbci	r20, 0x41	; 65
    3dde:	44 52       	subi	r20, 0x24	; 36
    3de0:	28 53       	subi	r18, 0x38	; 56
    3de2:	50 4c       	sbci	r21, 0xC0	; 192
    3de4:	29 00       	.word	0x0029	; ????
    3de6:	04 03       	mulsu	r16, r20
    3de8:	9c 03       	fmulsu	r17, r20
    3dea:	0b 01       	movw	r0, r22
    3dec:	36 5f       	subi	r19, 0xF6	; 246
    3dee:	41 56       	subi	r20, 0x61	; 97
    3df0:	52 5f       	subi	r21, 0xF2	; 242
    3df2:	56 45       	sbci	r21, 0x56	; 86
    3df4:	52 53       	subi	r21, 0x32	; 50
    3df6:	49 4f       	sbci	r20, 0xF9	; 249
    3df8:	4e 5f       	subi	r20, 0xFE	; 254
    3dfa:	48 5f       	subi	r20, 0xF8	; 248
    3dfc:	20 00       	.word	0x0020	; ????
    3dfe:	01 3a       	cpi	r16, 0xA1	; 161
    3e00:	5f 5f       	subi	r21, 0xFF	; 255
    3e02:	41 56       	subi	r20, 0x61	; 97
    3e04:	52 5f       	subi	r21, 0xF2	; 242
    3e06:	4c 49       	sbci	r20, 0x9C	; 156
    3e08:	42 43       	sbci	r20, 0x32	; 50
    3e0a:	5f 56       	subi	r21, 0x6F	; 111
    3e0c:	45 52       	subi	r20, 0x25	; 37
    3e0e:	53 49       	sbci	r21, 0x93	; 147
    3e10:	4f 4e       	sbci	r20, 0xEF	; 239
    3e12:	5f 53       	subi	r21, 0x3F	; 63
    3e14:	54 52       	subi	r21, 0x24	; 36
    3e16:	49 4e       	sbci	r20, 0xE9	; 233
    3e18:	47 5f       	subi	r20, 0xF7	; 247
    3e1a:	5f 20       	and	r5, r15
    3e1c:	22 31       	cpi	r18, 0x12	; 18
    3e1e:	2e 36       	cpi	r18, 0x6E	; 110
    3e20:	2e 37       	cpi	r18, 0x7E	; 126
    3e22:	22 00       	.word	0x0022	; ????
    3e24:	01 44       	sbci	r16, 0x41	; 65
    3e26:	5f 5f       	subi	r21, 0xFF	; 255
    3e28:	41 56       	subi	r20, 0x61	; 97
    3e2a:	52 5f       	subi	r21, 0xF2	; 242
    3e2c:	4c 49       	sbci	r20, 0x9C	; 156
    3e2e:	42 43       	sbci	r20, 0x32	; 50
    3e30:	5f 56       	subi	r21, 0x6F	; 111
    3e32:	45 52       	subi	r20, 0x25	; 37
    3e34:	53 49       	sbci	r21, 0x93	; 147
    3e36:	4f 4e       	sbci	r20, 0xEF	; 239
    3e38:	5f 5f       	subi	r21, 0xFF	; 255
    3e3a:	20 31       	cpi	r18, 0x10	; 16
    3e3c:	30 36       	cpi	r19, 0x60	; 96
    3e3e:	30 37       	cpi	r19, 0x70	; 112
    3e40:	55 4c       	sbci	r21, 0xC5	; 197
    3e42:	00 01       	movw	r0, r0
    3e44:	48 5f       	subi	r20, 0xF8	; 248
    3e46:	5f 41       	sbci	r21, 0x1F	; 31
    3e48:	56 52       	subi	r21, 0x26	; 38
    3e4a:	5f 4c       	sbci	r21, 0xCF	; 207
    3e4c:	49 42       	sbci	r20, 0x29	; 41
    3e4e:	43 5f       	subi	r20, 0xF3	; 243
    3e50:	44 41       	sbci	r20, 0x14	; 20
    3e52:	54 45       	sbci	r21, 0x54	; 84
    3e54:	5f 53       	subi	r21, 0x3F	; 63
    3e56:	54 52       	subi	r21, 0x24	; 36
    3e58:	49 4e       	sbci	r20, 0xE9	; 233
    3e5a:	47 5f       	subi	r20, 0xF7	; 247
    3e5c:	5f 20       	and	r5, r15
    3e5e:	22 32       	cpi	r18, 0x22	; 34
    3e60:	30 30       	cpi	r19, 0x00	; 0
    3e62:	39 30       	cpi	r19, 0x09	; 9
    3e64:	37 30       	cpi	r19, 0x07	; 7
    3e66:	32 22       	and	r3, r18
    3e68:	00 01       	movw	r0, r0
    3e6a:	4c 5f       	subi	r20, 0xFC	; 252
    3e6c:	5f 41       	sbci	r21, 0x1F	; 31
    3e6e:	56 52       	subi	r21, 0x26	; 38
    3e70:	5f 4c       	sbci	r21, 0xCF	; 207
    3e72:	49 42       	sbci	r20, 0x29	; 41
    3e74:	43 5f       	subi	r20, 0xF3	; 243
    3e76:	44 41       	sbci	r20, 0x14	; 20
    3e78:	54 45       	sbci	r21, 0x54	; 84
    3e7a:	5f 20       	and	r5, r15
    3e7c:	32 30       	cpi	r19, 0x02	; 2
    3e7e:	30 39       	cpi	r19, 0x90	; 144
    3e80:	30 37       	cpi	r19, 0x70	; 112
    3e82:	30 32       	cpi	r19, 0x20	; 32
    3e84:	55 4c       	sbci	r21, 0xC5	; 197
    3e86:	00 01       	movw	r0, r0
    3e88:	50 5f       	subi	r21, 0xF0	; 240
    3e8a:	5f 41       	sbci	r21, 0x1F	; 31
    3e8c:	56 52       	subi	r21, 0x26	; 38
    3e8e:	5f 4c       	sbci	r21, 0xCF	; 207
    3e90:	49 42       	sbci	r20, 0x29	; 41
    3e92:	43 5f       	subi	r20, 0xF3	; 243
    3e94:	4d 41       	sbci	r20, 0x1D	; 29
    3e96:	4a 4f       	sbci	r20, 0xFA	; 250
    3e98:	52 5f       	subi	r21, 0xF2	; 242
    3e9a:	5f 20       	and	r5, r15
    3e9c:	31 00       	.word	0x0031	; ????
    3e9e:	01 54       	subi	r16, 0x41	; 65
    3ea0:	5f 5f       	subi	r21, 0xFF	; 255
    3ea2:	41 56       	subi	r20, 0x61	; 97
    3ea4:	52 5f       	subi	r21, 0xF2	; 242
    3ea6:	4c 49       	sbci	r20, 0x9C	; 156
    3ea8:	42 43       	sbci	r20, 0x32	; 50
    3eaa:	5f 4d       	sbci	r21, 0xDF	; 223
    3eac:	49 4e       	sbci	r20, 0xE9	; 233
    3eae:	4f 52       	subi	r20, 0x2F	; 47
    3eb0:	5f 5f       	subi	r21, 0xFF	; 255
    3eb2:	20 36       	cpi	r18, 0x60	; 96
    3eb4:	00 01       	movw	r0, r0
    3eb6:	58 5f       	subi	r21, 0xF8	; 248
    3eb8:	5f 41       	sbci	r21, 0x1F	; 31
    3eba:	56 52       	subi	r21, 0x26	; 38
    3ebc:	5f 4c       	sbci	r21, 0xCF	; 207
    3ebe:	49 42       	sbci	r20, 0x29	; 41
    3ec0:	43 5f       	subi	r20, 0xF3	; 243
    3ec2:	52 45       	sbci	r21, 0x52	; 82
    3ec4:	56 49       	sbci	r21, 0x96	; 150
    3ec6:	53 49       	sbci	r21, 0x93	; 147
    3ec8:	4f 4e       	sbci	r20, 0xEF	; 239
    3eca:	5f 5f       	subi	r21, 0xFF	; 255
    3ecc:	20 37       	cpi	r18, 0x70	; 112
    3ece:	00 04       	cpc	r0, r0
    3ed0:	03 9f       	mul	r16, r19
    3ed2:	03 0c       	add	r0, r3
    3ed4:	01 24       	eor	r0, r1
    3ed6:	5f 41       	sbci	r21, 0x1F	; 31
    3ed8:	56 52       	subi	r21, 0x26	; 38
    3eda:	5f 46       	sbci	r21, 0x6F	; 111
    3edc:	55 53       	subi	r21, 0x35	; 53
    3ede:	45 5f       	subi	r20, 0xF5	; 245
    3ee0:	48 5f       	subi	r20, 0xF8	; 248
    3ee2:	20 31       	cpi	r18, 0x10	; 16
    3ee4:	00 01       	movw	r0, r0
    3ee6:	e2 01       	movw	r28, r4
    3ee8:	46 55       	subi	r20, 0x56	; 86
    3eea:	53 45       	sbci	r21, 0x53	; 83
    3eec:	4d 45       	sbci	r20, 0x5D	; 93
    3eee:	4d 20       	and	r4, r13
    3ef0:	5f 5f       	subi	r21, 0xFF	; 255
    3ef2:	61 74       	andi	r22, 0x41	; 65
    3ef4:	74 72       	andi	r23, 0x24	; 36
    3ef6:	69 62       	ori	r22, 0x29	; 41
    3ef8:	75 74       	andi	r23, 0x45	; 69
    3efa:	65 5f       	subi	r22, 0xF5	; 245
    3efc:	5f 28       	or	r5, r15
    3efe:	28 73       	andi	r18, 0x38	; 56
    3f00:	65 63       	ori	r22, 0x35	; 53
    3f02:	74 69       	ori	r23, 0x94	; 148
    3f04:	6f 6e       	ori	r22, 0xEF	; 239
    3f06:	20 28       	or	r2, r0
    3f08:	22 2e       	mov	r2, r18
    3f0a:	66 75       	andi	r22, 0x56	; 86
    3f0c:	73 65       	ori	r23, 0x53	; 83
    3f0e:	22 29       	or	r18, r2
    3f10:	29 29       	or	r18, r9
    3f12:	00 01       	movw	r0, r0
    3f14:	88 02       	muls	r24, r24
    3f16:	46 55       	subi	r20, 0x56	; 86
    3f18:	53 45       	sbci	r21, 0x53	; 83
    3f1a:	53 20       	and	r5, r3
    3f1c:	5f 5f       	subi	r21, 0xFF	; 255
    3f1e:	66 75       	andi	r22, 0x56	; 86
    3f20:	73 65       	ori	r23, 0x53	; 83
    3f22:	5f 74       	andi	r21, 0x4F	; 79
    3f24:	20 5f       	subi	r18, 0xF0	; 240
    3f26:	5f 66       	ori	r21, 0x6F	; 111
    3f28:	75 73       	andi	r23, 0x35	; 53
    3f2a:	65 20       	and	r6, r5
    3f2c:	46 55       	subi	r20, 0x56	; 86
    3f2e:	53 45       	sbci	r21, 0x53	; 83
    3f30:	4d 45       	sbci	r20, 0x5D	; 93
    3f32:	4d 00       	.word	0x004d	; ????
    3f34:	04 03       	mulsu	r16, r20
    3f36:	a2 03       	fmuls	r18, r18
    3f38:	0d 01       	movw	r0, r26
    3f3a:	24 5f       	subi	r18, 0xF4	; 244
    3f3c:	41 56       	subi	r20, 0x61	; 97
    3f3e:	52 5f       	subi	r21, 0xF2	; 242
    3f40:	4c 4f       	sbci	r20, 0xFC	; 252
    3f42:	43 4b       	sbci	r20, 0xB3	; 179
    3f44:	5f 48       	sbci	r21, 0x8F	; 143
    3f46:	5f 20       	and	r5, r15
    3f48:	31 00       	.word	0x0031	; ????
    3f4a:	01 be       	out	0x31, r0	; 49
    3f4c:	01 4c       	sbci	r16, 0xC1	; 193
    3f4e:	4f 43       	sbci	r20, 0x3F	; 63
    3f50:	4b 4d       	sbci	r20, 0xDB	; 219
    3f52:	45 4d       	sbci	r20, 0xD5	; 213
    3f54:	20 5f       	subi	r18, 0xF0	; 240
    3f56:	5f 61       	ori	r21, 0x1F	; 31
    3f58:	74 74       	andi	r23, 0x44	; 68
    3f5a:	72 69       	ori	r23, 0x92	; 146
    3f5c:	62 75       	andi	r22, 0x52	; 82
    3f5e:	74 65       	ori	r23, 0x54	; 84
    3f60:	5f 5f       	subi	r21, 0xFF	; 255
    3f62:	28 28       	or	r2, r8
    3f64:	73 65       	ori	r23, 0x53	; 83
    3f66:	63 74       	andi	r22, 0x43	; 67
    3f68:	69 6f       	ori	r22, 0xF9	; 249
    3f6a:	6e 20       	and	r6, r14
    3f6c:	28 22       	and	r2, r24
    3f6e:	2e 6c       	ori	r18, 0xCE	; 206
    3f70:	6f 63       	ori	r22, 0x3F	; 63
    3f72:	6b 22       	and	r6, r27
    3f74:	29 29       	or	r18, r9
    3f76:	29 00       	.word	0x0029	; ????
    3f78:	01 c2       	rjmp	.+1026   	; 0x437c <__data_load_end+0x36a8>
    3f7a:	01 4c       	sbci	r16, 0xC1	; 193
    3f7c:	4f 43       	sbci	r20, 0x3F	; 63
    3f7e:	4b 42       	sbci	r20, 0x2B	; 43
    3f80:	49 54       	subi	r20, 0x49	; 73
    3f82:	53 20       	and	r5, r3
    3f84:	75 6e       	ori	r23, 0xE5	; 229
    3f86:	73 69       	ori	r23, 0x93	; 147
    3f88:	67 6e       	ori	r22, 0xE7	; 231
    3f8a:	65 64       	ori	r22, 0x45	; 69
    3f8c:	20 63       	ori	r18, 0x30	; 48
    3f8e:	68 61       	ori	r22, 0x18	; 24
    3f90:	72 20       	and	r7, r2
    3f92:	5f 5f       	subi	r21, 0xFF	; 255
    3f94:	6c 6f       	ori	r22, 0xFC	; 252
    3f96:	63 6b       	ori	r22, 0xB3	; 179
    3f98:	20 4c       	sbci	r18, 0xC0	; 192
    3f9a:	4f 43       	sbci	r20, 0x3F	; 63
    3f9c:	4b 4d       	sbci	r20, 0xDB	; 219
    3f9e:	45 4d       	sbci	r20, 0xD5	; 213
    3fa0:	00 01       	movw	r0, r0
    3fa2:	ca 01       	movw	r24, r20
    3fa4:	4c 42       	sbci	r20, 0x2C	; 44
    3fa6:	5f 4d       	sbci	r21, 0xDF	; 223
    3fa8:	4f 44       	sbci	r20, 0x4F	; 79
    3faa:	45 5f       	subi	r20, 0xF5	; 245
    3fac:	31 20       	and	r3, r1
    3fae:	28 30       	cpi	r18, 0x08	; 8
    3fb0:	78 46       	sbci	r23, 0x68	; 104
    3fb2:	46 29       	or	r20, r6
    3fb4:	00 01       	movw	r0, r0
    3fb6:	cb 01       	movw	r24, r22
    3fb8:	4c 42       	sbci	r20, 0x2C	; 44
    3fba:	5f 4d       	sbci	r21, 0xDF	; 223
    3fbc:	4f 44       	sbci	r20, 0x4F	; 79
    3fbe:	45 5f       	subi	r20, 0xF5	; 245
    3fc0:	32 20       	and	r3, r2
    3fc2:	28 30       	cpi	r18, 0x08	; 8
    3fc4:	78 46       	sbci	r23, 0x68	; 104
    3fc6:	45 29       	or	r20, r5
    3fc8:	00 01       	movw	r0, r0
    3fca:	cc 01       	movw	r24, r24
    3fcc:	4c 42       	sbci	r20, 0x2C	; 44
    3fce:	5f 4d       	sbci	r21, 0xDF	; 223
    3fd0:	4f 44       	sbci	r20, 0x4F	; 79
    3fd2:	45 5f       	subi	r20, 0xF5	; 245
    3fd4:	33 20       	and	r3, r3
    3fd6:	28 30       	cpi	r18, 0x08	; 8
    3fd8:	78 46       	sbci	r23, 0x68	; 104
    3fda:	43 29       	or	r20, r3
    3fdc:	00 01       	movw	r0, r0
    3fde:	d0 01       	movw	r26, r0
    3fe0:	42 4c       	sbci	r20, 0xC2	; 194
    3fe2:	42 30       	cpi	r20, 0x02	; 2
    3fe4:	5f 4d       	sbci	r21, 0xDF	; 223
    3fe6:	4f 44       	sbci	r20, 0x4F	; 79
    3fe8:	45 5f       	subi	r20, 0xF5	; 245
    3fea:	31 20       	and	r3, r1
    3fec:	28 30       	cpi	r18, 0x08	; 8
    3fee:	78 46       	sbci	r23, 0x68	; 104
    3ff0:	46 29       	or	r20, r6
    3ff2:	00 01       	movw	r0, r0
    3ff4:	d1 01       	movw	r26, r2
    3ff6:	42 4c       	sbci	r20, 0xC2	; 194
    3ff8:	42 30       	cpi	r20, 0x02	; 2
    3ffa:	5f 4d       	sbci	r21, 0xDF	; 223
    3ffc:	4f 44       	sbci	r20, 0x4F	; 79
    3ffe:	45 5f       	subi	r20, 0xF5	; 245
    4000:	32 20       	and	r3, r2
    4002:	28 30       	cpi	r18, 0x08	; 8
    4004:	78 46       	sbci	r23, 0x68	; 104
    4006:	42 29       	or	r20, r2
    4008:	00 01       	movw	r0, r0
    400a:	d2 01       	movw	r26, r4
    400c:	42 4c       	sbci	r20, 0xC2	; 194
    400e:	42 30       	cpi	r20, 0x02	; 2
    4010:	5f 4d       	sbci	r21, 0xDF	; 223
    4012:	4f 44       	sbci	r20, 0x4F	; 79
    4014:	45 5f       	subi	r20, 0xF5	; 245
    4016:	33 20       	and	r3, r3
    4018:	28 30       	cpi	r18, 0x08	; 8
    401a:	78 46       	sbci	r23, 0x68	; 104
    401c:	33 29       	or	r19, r3
    401e:	00 01       	movw	r0, r0
    4020:	d3 01       	movw	r26, r6
    4022:	42 4c       	sbci	r20, 0xC2	; 194
    4024:	42 30       	cpi	r20, 0x02	; 2
    4026:	5f 4d       	sbci	r21, 0xDF	; 223
    4028:	4f 44       	sbci	r20, 0x4F	; 79
    402a:	45 5f       	subi	r20, 0xF5	; 245
    402c:	34 20       	and	r3, r4
    402e:	28 30       	cpi	r18, 0x08	; 8
    4030:	78 46       	sbci	r23, 0x68	; 104
    4032:	37 29       	or	r19, r7
    4034:	00 01       	movw	r0, r0
    4036:	d7 01       	movw	r26, r14
    4038:	42 4c       	sbci	r20, 0xC2	; 194
    403a:	42 31       	cpi	r20, 0x12	; 18
    403c:	5f 4d       	sbci	r21, 0xDF	; 223
    403e:	4f 44       	sbci	r20, 0x4F	; 79
    4040:	45 5f       	subi	r20, 0xF5	; 245
    4042:	31 20       	and	r3, r1
    4044:	28 30       	cpi	r18, 0x08	; 8
    4046:	78 46       	sbci	r23, 0x68	; 104
    4048:	46 29       	or	r20, r6
    404a:	00 01       	movw	r0, r0
    404c:	d8 01       	movw	r26, r16
    404e:	42 4c       	sbci	r20, 0xC2	; 194
    4050:	42 31       	cpi	r20, 0x12	; 18
    4052:	5f 4d       	sbci	r21, 0xDF	; 223
    4054:	4f 44       	sbci	r20, 0x4F	; 79
    4056:	45 5f       	subi	r20, 0xF5	; 245
    4058:	32 20       	and	r3, r2
    405a:	28 30       	cpi	r18, 0x08	; 8
    405c:	78 45       	sbci	r23, 0x58	; 88
    405e:	46 29       	or	r20, r6
    4060:	00 01       	movw	r0, r0
    4062:	d9 01       	movw	r26, r18
    4064:	42 4c       	sbci	r20, 0xC2	; 194
    4066:	42 31       	cpi	r20, 0x12	; 18
    4068:	5f 4d       	sbci	r21, 0xDF	; 223
    406a:	4f 44       	sbci	r20, 0x4F	; 79
    406c:	45 5f       	subi	r20, 0xF5	; 245
    406e:	33 20       	and	r3, r3
    4070:	28 30       	cpi	r18, 0x08	; 8
    4072:	78 43       	sbci	r23, 0x38	; 56
    4074:	46 29       	or	r20, r6
    4076:	00 01       	movw	r0, r0
    4078:	da 01       	movw	r26, r20
    407a:	42 4c       	sbci	r20, 0xC2	; 194
    407c:	42 31       	cpi	r20, 0x12	; 18
    407e:	5f 4d       	sbci	r21, 0xDF	; 223
    4080:	4f 44       	sbci	r20, 0x4F	; 79
    4082:	45 5f       	subi	r20, 0xF5	; 245
    4084:	34 20       	and	r3, r4
    4086:	28 30       	cpi	r18, 0x08	; 8
    4088:	78 44       	sbci	r23, 0x48	; 72
    408a:	46 29       	or	r20, r6
    408c:	00 01       	movw	r0, r0
    408e:	ed 01       	movw	r28, r26
    4090:	4c 4f       	sbci	r20, 0xFC	; 252
    4092:	43 4b       	sbci	r20, 0xB3	; 179
    4094:	42 49       	sbci	r20, 0x92	; 146
    4096:	54 53       	subi	r21, 0x34	; 52
    4098:	5f 44       	sbci	r21, 0x4F	; 79
    409a:	45 46       	sbci	r20, 0x65	; 101
    409c:	41 55       	subi	r20, 0x51	; 81
    409e:	4c 54       	subi	r20, 0x4C	; 76
    40a0:	20 28       	or	r2, r0
    40a2:	30 78       	andi	r19, 0x80	; 128
    40a4:	46 46       	sbci	r20, 0x66	; 102
    40a6:	29 00       	.word	0x0029	; ????
    40a8:	04 04       	cpc	r0, r4
    40aa:	03 0e       	add	r0, r19
    40ac:	0e 01       	movw	r0, r28
    40ae:	24 5f       	subi	r18, 0xF4	; 244
    40b0:	41 56       	subi	r20, 0x61	; 97
    40b2:	52 5f       	subi	r21, 0xF2	; 242
    40b4:	49 4e       	sbci	r20, 0xE9	; 233
    40b6:	54 45       	sbci	r21, 0x54	; 84
    40b8:	52 52       	subi	r21, 0x22	; 34
    40ba:	55 50       	subi	r21, 0x05	; 5
    40bc:	54 5f       	subi	r21, 0xF4	; 244
    40be:	48 5f       	subi	r20, 0xF8	; 248
    40c0:	20 00       	.word	0x0020	; ????
    40c2:	01 2a       	or	r0, r17
    40c4:	5f 5f       	subi	r21, 0xFF	; 255
    40c6:	53 54       	subi	r21, 0x43	; 67
    40c8:	52 49       	sbci	r21, 0x92	; 146
    40ca:	4e 47       	sbci	r20, 0x7E	; 126
    40cc:	49 46       	sbci	r20, 0x69	; 105
    40ce:	59 28       	or	r5, r9
    40d0:	78 29       	or	r23, r8
    40d2:	20 23       	and	r18, r16
    40d4:	78 00       	.word	0x0078	; ????
    40d6:	01 44       	sbci	r16, 0x41	; 65
    40d8:	73 65       	ori	r23, 0x53	; 83
    40da:	69 28       	or	r6, r9
    40dc:	29 20       	and	r2, r9
    40de:	5f 5f       	subi	r21, 0xFF	; 255
    40e0:	61 73       	andi	r22, 0x31	; 49
    40e2:	6d 5f       	subi	r22, 0xFD	; 253
    40e4:	5f 20       	and	r5, r15
    40e6:	5f 5f       	subi	r21, 0xFF	; 255
    40e8:	76 6f       	ori	r23, 0xF6	; 246
    40ea:	6c 61       	ori	r22, 0x1C	; 28
    40ec:	74 69       	ori	r23, 0x94	; 148
    40ee:	6c 65       	ori	r22, 0x5C	; 92
    40f0:	5f 5f       	subi	r21, 0xFF	; 255
    40f2:	20 28       	or	r2, r0
    40f4:	22 73       	andi	r18, 0x32	; 50
    40f6:	65 69       	ori	r22, 0x95	; 149
    40f8:	22 20       	and	r2, r2
    40fa:	3a 3a       	cpi	r19, 0xAA	; 170
    40fc:	29 00       	.word	0x0029	; ????
    40fe:	01 52       	subi	r16, 0x21	; 33
    4100:	63 6c       	ori	r22, 0xC3	; 195
    4102:	69 28       	or	r6, r9
    4104:	29 20       	and	r2, r9
    4106:	5f 5f       	subi	r21, 0xFF	; 255
    4108:	61 73       	andi	r22, 0x31	; 49
    410a:	6d 5f       	subi	r22, 0xFD	; 253
    410c:	5f 20       	and	r5, r15
    410e:	5f 5f       	subi	r21, 0xFF	; 255
    4110:	76 6f       	ori	r23, 0xF6	; 246
    4112:	6c 61       	ori	r22, 0x1C	; 28
    4114:	74 69       	ori	r23, 0x94	; 148
    4116:	6c 65       	ori	r22, 0x5C	; 92
    4118:	5f 5f       	subi	r21, 0xFF	; 255
    411a:	20 28       	or	r2, r0
    411c:	22 63       	ori	r18, 0x32	; 50
    411e:	6c 69       	ori	r22, 0x9C	; 156
    4120:	22 20       	and	r2, r2
    4122:	3a 3a       	cpi	r19, 0xAA	; 170
    4124:	29 00       	.word	0x0029	; ????
    4126:	01 72       	andi	r16, 0x21	; 33
    4128:	5f 5f       	subi	r21, 0xFF	; 255
    412a:	49 4e       	sbci	r20, 0xE9	; 233
    412c:	54 52       	subi	r21, 0x24	; 36
    412e:	5f 41       	sbci	r21, 0x1F	; 31
    4130:	54 54       	subi	r21, 0x44	; 68
    4132:	52 53       	subi	r21, 0x32	; 50
    4134:	20 75       	andi	r18, 0x50	; 80
    4136:	73 65       	ori	r23, 0x53	; 83
    4138:	64 2c       	mov	r6, r4
    413a:	20 65       	ori	r18, 0x50	; 80
    413c:	78 74       	andi	r23, 0x48	; 72
    413e:	65 72       	andi	r22, 0x25	; 37
    4140:	6e 61       	ori	r22, 0x1E	; 30
    4142:	6c 6c       	ori	r22, 0xCC	; 204
    4144:	79 5f       	subi	r23, 0xF9	; 249
    4146:	76 69       	ori	r23, 0x96	; 150
    4148:	73 69       	ori	r23, 0x93	; 147
    414a:	62 6c       	ori	r22, 0xC2	; 194
    414c:	65 00       	.word	0x0065	; ????
    414e:	01 7c       	andi	r16, 0xC1	; 193
    4150:	49 53       	subi	r20, 0x39	; 57
    4152:	52 28       	or	r5, r2
    4154:	76 65       	ori	r23, 0x56	; 86
    4156:	63 74       	andi	r22, 0x43	; 67
    4158:	6f 72       	andi	r22, 0x2F	; 47
    415a:	2c 2e       	mov	r2, r28
    415c:	2e 2e       	mov	r2, r30
    415e:	29 20       	and	r2, r9
    4160:	76 6f       	ori	r23, 0xF6	; 246
    4162:	69 64       	ori	r22, 0x49	; 73
    4164:	20 76       	andi	r18, 0x60	; 96
    4166:	65 63       	ori	r22, 0x35	; 53
    4168:	74 6f       	ori	r23, 0xF4	; 244
    416a:	72 20       	and	r7, r2
    416c:	28 76       	andi	r18, 0x68	; 104
    416e:	6f 69       	ori	r22, 0x9F	; 159
    4170:	64 29       	or	r22, r4
    4172:	20 5f       	subi	r18, 0xF0	; 240
    4174:	5f 61       	ori	r21, 0x1F	; 31
    4176:	74 74       	andi	r23, 0x44	; 68
    4178:	72 69       	ori	r23, 0x92	; 146
    417a:	62 75       	andi	r22, 0x52	; 82
    417c:	74 65       	ori	r23, 0x54	; 84
    417e:	5f 5f       	subi	r21, 0xFF	; 255
    4180:	20 28       	or	r2, r0
    4182:	28 73       	andi	r18, 0x38	; 56
    4184:	69 67       	ori	r22, 0x79	; 121
    4186:	6e 61       	ori	r22, 0x1E	; 30
    4188:	6c 2c       	mov	r6, r12
    418a:	5f 5f       	subi	r21, 0xFF	; 255
    418c:	49 4e       	sbci	r20, 0xE9	; 233
    418e:	54 52       	subi	r21, 0x24	; 36
    4190:	5f 41       	sbci	r21, 0x1F	; 31
    4192:	54 54       	subi	r21, 0x44	; 68
    4194:	52 53       	subi	r21, 0x32	; 50
    4196:	29 29       	or	r18, r9
    4198:	20 5f       	subi	r18, 0xF0	; 240
    419a:	5f 56       	subi	r21, 0x6F	; 111
    419c:	41 5f       	subi	r20, 0xF1	; 241
    419e:	41 52       	subi	r20, 0x21	; 33
    41a0:	47 53       	subi	r20, 0x37	; 55
    41a2:	5f 5f       	subi	r21, 0xFF	; 255
    41a4:	3b 20       	and	r3, r11
    41a6:	76 6f       	ori	r23, 0xF6	; 246
    41a8:	69 64       	ori	r22, 0x49	; 73
    41aa:	20 76       	andi	r18, 0x60	; 96
    41ac:	65 63       	ori	r22, 0x35	; 53
    41ae:	74 6f       	ori	r23, 0xF4	; 244
    41b0:	72 20       	and	r7, r2
    41b2:	28 76       	andi	r18, 0x68	; 104
    41b4:	6f 69       	ori	r22, 0x9F	; 159
    41b6:	64 29       	or	r22, r4
    41b8:	00 01       	movw	r0, r0
    41ba:	97 01       	movw	r18, r14
    41bc:	53 49       	sbci	r21, 0x93	; 147
    41be:	47 4e       	sbci	r20, 0xE7	; 231
    41c0:	41 4c       	sbci	r20, 0xC1	; 193
    41c2:	28 76       	andi	r18, 0x68	; 104
    41c4:	65 63       	ori	r22, 0x35	; 53
    41c6:	74 6f       	ori	r23, 0xF4	; 244
    41c8:	72 29       	or	r23, r2
    41ca:	20 76       	andi	r18, 0x60	; 96
    41cc:	6f 69       	ori	r22, 0x9F	; 159
    41ce:	64 20       	and	r6, r4
    41d0:	76 65       	ori	r23, 0x56	; 86
    41d2:	63 74       	andi	r22, 0x43	; 67
    41d4:	6f 72       	andi	r22, 0x2F	; 47
    41d6:	20 28       	or	r2, r0
    41d8:	76 6f       	ori	r23, 0xF6	; 246
    41da:	69 64       	ori	r22, 0x49	; 73
    41dc:	29 20       	and	r2, r9
    41de:	5f 5f       	subi	r21, 0xFF	; 255
    41e0:	61 74       	andi	r22, 0x41	; 65
    41e2:	74 72       	andi	r23, 0x24	; 36
    41e4:	69 62       	ori	r22, 0x29	; 41
    41e6:	75 74       	andi	r23, 0x45	; 69
    41e8:	65 5f       	subi	r22, 0xF5	; 245
    41ea:	5f 20       	and	r5, r15
    41ec:	28 28       	or	r2, r8
    41ee:	73 69       	ori	r23, 0x93	; 147
    41f0:	67 6e       	ori	r22, 0xE7	; 231
    41f2:	61 6c       	ori	r22, 0xC1	; 193
    41f4:	2c 20       	and	r2, r12
    41f6:	5f 5f       	subi	r21, 0xFF	; 255
    41f8:	49 4e       	sbci	r20, 0xE9	; 233
    41fa:	54 52       	subi	r21, 0x24	; 36
    41fc:	5f 41       	sbci	r21, 0x1F	; 31
    41fe:	54 54       	subi	r21, 0x44	; 68
    4200:	52 53       	subi	r21, 0x32	; 50
    4202:	29 29       	or	r18, r9
    4204:	3b 20       	and	r3, r11
    4206:	76 6f       	ori	r23, 0xF6	; 246
    4208:	69 64       	ori	r22, 0x49	; 73
    420a:	20 76       	andi	r18, 0x60	; 96
    420c:	65 63       	ori	r22, 0x35	; 53
    420e:	74 6f       	ori	r23, 0xF4	; 244
    4210:	72 20       	and	r7, r2
    4212:	28 76       	andi	r18, 0x68	; 104
    4214:	6f 69       	ori	r22, 0x9F	; 159
    4216:	64 29       	or	r22, r4
    4218:	00 01       	movw	r0, r0
    421a:	b1 01       	movw	r22, r2
    421c:	45 4d       	sbci	r20, 0xD5	; 213
    421e:	50 54       	subi	r21, 0x40	; 64
    4220:	59 5f       	subi	r21, 0xF9	; 249
    4222:	49 4e       	sbci	r20, 0xE9	; 233
    4224:	54 45       	sbci	r21, 0x54	; 84
    4226:	52 52       	subi	r21, 0x22	; 34
    4228:	55 50       	subi	r21, 0x05	; 5
    422a:	54 28       	or	r5, r4
    422c:	76 65       	ori	r23, 0x56	; 86
    422e:	63 74       	andi	r22, 0x43	; 67
    4230:	6f 72       	andi	r22, 0x2F	; 47
    4232:	29 20       	and	r2, r9
    4234:	76 6f       	ori	r23, 0xF6	; 246
    4236:	69 64       	ori	r22, 0x49	; 73
    4238:	20 76       	andi	r18, 0x60	; 96
    423a:	65 63       	ori	r22, 0x35	; 53
    423c:	74 6f       	ori	r23, 0xF4	; 244
    423e:	72 20       	and	r7, r2
    4240:	28 76       	andi	r18, 0x68	; 104
    4242:	6f 69       	ori	r22, 0x9F	; 159
    4244:	64 29       	or	r22, r4
    4246:	20 5f       	subi	r18, 0xF0	; 240
    4248:	5f 61       	ori	r21, 0x1F	; 31
    424a:	74 74       	andi	r23, 0x44	; 68
    424c:	72 69       	ori	r23, 0x92	; 146
    424e:	62 75       	andi	r22, 0x52	; 82
    4250:	74 65       	ori	r23, 0x54	; 84
    4252:	5f 5f       	subi	r21, 0xFF	; 255
    4254:	20 28       	or	r2, r0
    4256:	28 73       	andi	r18, 0x38	; 56
    4258:	69 67       	ori	r22, 0x79	; 121
    425a:	6e 61       	ori	r22, 0x1E	; 30
    425c:	6c 2c       	mov	r6, r12
    425e:	6e 61       	ori	r22, 0x1E	; 30
    4260:	6b 65       	ori	r22, 0x5B	; 91
    4262:	64 2c       	mov	r6, r4
    4264:	5f 5f       	subi	r21, 0xFF	; 255
    4266:	49 4e       	sbci	r20, 0xE9	; 233
    4268:	54 52       	subi	r21, 0x24	; 36
    426a:	5f 41       	sbci	r21, 0x1F	; 31
    426c:	54 54       	subi	r21, 0x44	; 68
    426e:	52 53       	subi	r21, 0x32	; 50
    4270:	29 29       	or	r18, r9
    4272:	3b 20       	and	r3, r11
    4274:	76 6f       	ori	r23, 0xF6	; 246
    4276:	69 64       	ori	r22, 0x49	; 73
    4278:	20 76       	andi	r18, 0x60	; 96
    427a:	65 63       	ori	r22, 0x35	; 53
    427c:	74 6f       	ori	r23, 0xF4	; 244
    427e:	72 20       	and	r7, r2
    4280:	28 76       	andi	r18, 0x68	; 104
    4282:	6f 69       	ori	r22, 0x9F	; 159
    4284:	64 29       	or	r22, r4
    4286:	20 7b       	andi	r18, 0xB0	; 176
    4288:	20 5f       	subi	r18, 0xF0	; 240
    428a:	5f 61       	ori	r21, 0x1F	; 31
    428c:	73 6d       	ori	r23, 0xD3	; 211
    428e:	5f 5f       	subi	r21, 0xFF	; 255
    4290:	20 5f       	subi	r18, 0xF0	; 240
    4292:	5f 76       	andi	r21, 0x6F	; 111
    4294:	6f 6c       	ori	r22, 0xCF	; 207
    4296:	61 74       	andi	r22, 0x41	; 65
    4298:	69 6c       	ori	r22, 0xC9	; 201
    429a:	65 5f       	subi	r22, 0xF5	; 245
    429c:	5f 20       	and	r5, r15
    429e:	28 22       	and	r2, r24
    42a0:	72 65       	ori	r23, 0x52	; 82
    42a2:	74 69       	ori	r23, 0x94	; 148
    42a4:	22 20       	and	r2, r2
    42a6:	3a 3a       	cpi	r19, 0xAA	; 170
    42a8:	29 3b       	cpi	r18, 0xB9	; 185
    42aa:	20 7d       	andi	r18, 0xD0	; 208
    42ac:	00 01       	movw	r0, r0
    42ae:	e5 01       	movw	r28, r10
    42b0:	49 53       	subi	r20, 0x39	; 57
    42b2:	52 5f       	subi	r21, 0xF2	; 242
    42b4:	41 4c       	sbci	r20, 0xC1	; 193
    42b6:	49 41       	sbci	r20, 0x19	; 25
    42b8:	53 28       	or	r5, r3
    42ba:	76 65       	ori	r23, 0x56	; 86
    42bc:	63 74       	andi	r22, 0x43	; 67
    42be:	6f 72       	andi	r22, 0x2F	; 47
    42c0:	2c 74       	andi	r18, 0x4C	; 76
    42c2:	67 74       	andi	r22, 0x47	; 71
    42c4:	29 20       	and	r2, r9
    42c6:	76 6f       	ori	r23, 0xF6	; 246
    42c8:	69 64       	ori	r22, 0x49	; 73
    42ca:	20 76       	andi	r18, 0x60	; 96
    42cc:	65 63       	ori	r22, 0x35	; 53
    42ce:	74 6f       	ori	r23, 0xF4	; 244
    42d0:	72 20       	and	r7, r2
    42d2:	28 76       	andi	r18, 0x68	; 104
    42d4:	6f 69       	ori	r22, 0x9F	; 159
    42d6:	64 29       	or	r22, r4
    42d8:	20 5f       	subi	r18, 0xF0	; 240
    42da:	5f 61       	ori	r21, 0x1F	; 31
    42dc:	74 74       	andi	r23, 0x44	; 68
    42de:	72 69       	ori	r23, 0x92	; 146
    42e0:	62 75       	andi	r22, 0x52	; 82
    42e2:	74 65       	ori	r23, 0x54	; 84
    42e4:	5f 5f       	subi	r21, 0xFF	; 255
    42e6:	28 28       	or	r2, r8
    42e8:	73 69       	ori	r23, 0x93	; 147
    42ea:	67 6e       	ori	r22, 0xE7	; 231
    42ec:	61 6c       	ori	r22, 0xC1	; 193
    42ee:	2c 20       	and	r2, r12
    42f0:	6e 61       	ori	r22, 0x1E	; 30
    42f2:	6b 65       	ori	r22, 0x5B	; 91
    42f4:	64 2c       	mov	r6, r4
    42f6:	20 5f       	subi	r18, 0xF0	; 240
    42f8:	5f 49       	sbci	r21, 0x9F	; 159
    42fa:	4e 54       	subi	r20, 0x4E	; 78
    42fc:	52 5f       	subi	r21, 0xF2	; 242
    42fe:	41 54       	subi	r20, 0x41	; 65
    4300:	54 52       	subi	r21, 0x24	; 36
    4302:	53 29       	or	r21, r3
    4304:	29 3b       	cpi	r18, 0xB9	; 185
    4306:	20 76       	andi	r18, 0x60	; 96
    4308:	6f 69       	ori	r22, 0x9F	; 159
    430a:	64 20       	and	r6, r4
    430c:	76 65       	ori	r23, 0x56	; 86
    430e:	63 74       	andi	r22, 0x43	; 67
    4310:	6f 72       	andi	r22, 0x2F	; 47
    4312:	20 28       	or	r2, r0
    4314:	76 6f       	ori	r23, 0xF6	; 246
    4316:	69 64       	ori	r22, 0x49	; 73
    4318:	29 20       	and	r2, r9
    431a:	7b 20       	and	r7, r11
    431c:	61 73       	andi	r22, 0x31	; 49
    431e:	6d 20       	and	r6, r13
    4320:	76 6f       	ori	r23, 0xF6	; 246
    4322:	6c 61       	ori	r22, 0x1C	; 28
    4324:	74 69       	ori	r23, 0x94	; 148
    4326:	6c 65       	ori	r22, 0x5C	; 92
    4328:	20 28       	or	r2, r0
    432a:	22 6a       	ori	r18, 0xA2	; 162
    432c:	6d 70       	andi	r22, 0x0D	; 13
    432e:	20 22       	and	r2, r16
    4330:	20 5f       	subi	r18, 0xF0	; 240
    4332:	5f 53       	subi	r21, 0x3F	; 63
    4334:	54 52       	subi	r21, 0x24	; 36
    4336:	49 4e       	sbci	r20, 0xE9	; 233
    4338:	47 49       	sbci	r20, 0x97	; 151
    433a:	46 59       	subi	r20, 0x96	; 150
    433c:	28 74       	andi	r18, 0x48	; 72
    433e:	67 74       	andi	r22, 0x47	; 71
    4340:	29 20       	and	r2, r9
    4342:	3a 3a       	cpi	r19, 0xAA	; 170
    4344:	29 3b       	cpi	r18, 0xB9	; 185
    4346:	20 7d       	andi	r18, 0xD0	; 208
    4348:	00 01       	movw	r0, r0
    434a:	80 02       	muls	r24, r16
    434c:	72 65       	ori	r23, 0x52	; 82
    434e:	74 69       	ori	r23, 0x94	; 148
    4350:	28 29       	or	r18, r8
    4352:	20 5f       	subi	r18, 0xF0	; 240
    4354:	5f 61       	ori	r21, 0x1F	; 31
    4356:	73 6d       	ori	r23, 0xD3	; 211
    4358:	5f 5f       	subi	r21, 0xFF	; 255
    435a:	20 5f       	subi	r18, 0xF0	; 240
    435c:	5f 76       	andi	r21, 0x6F	; 111
    435e:	6f 6c       	ori	r22, 0xCF	; 207
    4360:	61 74       	andi	r22, 0x41	; 65
    4362:	69 6c       	ori	r22, 0xC9	; 201
    4364:	65 5f       	subi	r22, 0xF5	; 245
    4366:	5f 20       	and	r5, r15
    4368:	28 22       	and	r2, r24
    436a:	72 65       	ori	r23, 0x52	; 82
    436c:	74 69       	ori	r23, 0x94	; 148
    436e:	22 20       	and	r2, r2
    4370:	3a 3a       	cpi	r19, 0xAA	; 170
    4372:	29 00       	.word	0x0029	; ????
    4374:	01 90       	ld	r0, Z+
    4376:	02 42       	sbci	r16, 0x22	; 34
    4378:	41 44       	sbci	r20, 0x41	; 65
    437a:	49 53       	subi	r20, 0x39	; 57
    437c:	52 5f       	subi	r21, 0xF2	; 242
    437e:	76 65       	ori	r23, 0x56	; 86
    4380:	63 74       	andi	r22, 0x43	; 67
    4382:	20 5f       	subi	r18, 0xF0	; 240
    4384:	5f 76       	andi	r21, 0x6F	; 111
    4386:	65 63       	ori	r22, 0x35	; 53
    4388:	74 6f       	ori	r23, 0xF4	; 244
    438a:	72 5f       	subi	r23, 0xF2	; 242
    438c:	64 65       	ori	r22, 0x54	; 84
    438e:	66 61       	ori	r22, 0x16	; 22
    4390:	75 6c       	ori	r23, 0xC5	; 197
    4392:	74 00       	.word	0x0074	; ????
    4394:	01 d0       	rcall	.+2      	; 0x4398 <__data_load_end+0x36c4>
    4396:	02 49       	sbci	r16, 0x92	; 146
    4398:	53 52       	subi	r21, 0x23	; 35
    439a:	5f 42       	sbci	r21, 0x2F	; 47
    439c:	4c 4f       	sbci	r20, 0xFC	; 252
    439e:	43 4b       	sbci	r20, 0xB3	; 179
    43a0:	20 00       	.word	0x0020	; ????
    43a2:	01 d1       	rcall	.+514    	; 0x45a6 <__data_load_end+0x38d2>
    43a4:	02 49       	sbci	r16, 0x92	; 146
    43a6:	53 52       	subi	r21, 0x23	; 35
    43a8:	5f 4e       	sbci	r21, 0xEF	; 239
    43aa:	4f 42       	sbci	r20, 0x2F	; 47
    43ac:	4c 4f       	sbci	r20, 0xFC	; 252
    43ae:	43 4b       	sbci	r20, 0xB3	; 179
    43b0:	20 5f       	subi	r18, 0xF0	; 240
    43b2:	5f 61       	ori	r21, 0x1F	; 31
    43b4:	74 74       	andi	r23, 0x44	; 68
    43b6:	72 69       	ori	r23, 0x92	; 146
    43b8:	62 75       	andi	r22, 0x52	; 82
    43ba:	74 65       	ori	r23, 0x54	; 84
    43bc:	5f 5f       	subi	r21, 0xFF	; 255
    43be:	28 28       	or	r2, r8
    43c0:	69 6e       	ori	r22, 0xE9	; 233
    43c2:	74 65       	ori	r23, 0x54	; 84
    43c4:	72 72       	andi	r23, 0x22	; 34
    43c6:	75 70       	andi	r23, 0x05	; 5
    43c8:	74 29       	or	r23, r4
    43ca:	29 00       	.word	0x0029	; ????
    43cc:	01 d2       	rcall	.+1026   	; 0x47d0 <__data_load_end+0x3afc>
    43ce:	02 49       	sbci	r16, 0x92	; 146
    43d0:	53 52       	subi	r21, 0x23	; 35
    43d2:	5f 4e       	sbci	r21, 0xEF	; 239
    43d4:	41 4b       	sbci	r20, 0xB1	; 177
    43d6:	45 44       	sbci	r20, 0x45	; 69
    43d8:	20 5f       	subi	r18, 0xF0	; 240
    43da:	5f 61       	ori	r21, 0x1F	; 31
    43dc:	74 74       	andi	r23, 0x44	; 68
    43de:	72 69       	ori	r23, 0x92	; 146
    43e0:	62 75       	andi	r22, 0x52	; 82
    43e2:	74 65       	ori	r23, 0x54	; 84
    43e4:	5f 5f       	subi	r21, 0xFF	; 255
    43e6:	28 28       	or	r2, r8
    43e8:	6e 61       	ori	r22, 0x1E	; 30
    43ea:	6b 65       	ori	r22, 0x5B	; 91
    43ec:	64 29       	or	r22, r4
    43ee:	29 00       	.word	0x0029	; ????
    43f0:	01 d3       	rcall	.+1538   	; 0x49f4 <__data_load_end+0x3d20>
    43f2:	02 49       	sbci	r16, 0x92	; 146
    43f4:	53 52       	subi	r21, 0x23	; 35
    43f6:	5f 41       	sbci	r21, 0x1F	; 31
    43f8:	4c 49       	sbci	r20, 0x9C	; 156
    43fa:	41 53       	subi	r20, 0x31	; 49
    43fc:	4f 46       	sbci	r20, 0x6F	; 111
    43fe:	28 76       	andi	r18, 0x68	; 104
    4400:	29 20       	and	r2, r9
    4402:	5f 5f       	subi	r21, 0xFF	; 255
    4404:	61 74       	andi	r22, 0x41	; 65
    4406:	74 72       	andi	r23, 0x24	; 36
    4408:	69 62       	ori	r22, 0x29	; 41
    440a:	75 74       	andi	r23, 0x45	; 69
    440c:	65 5f       	subi	r22, 0xF5	; 245
    440e:	5f 28       	or	r5, r15
    4410:	28 61       	ori	r18, 0x18	; 24
    4412:	6c 69       	ori	r22, 0x9C	; 156
    4414:	61 73       	andi	r22, 0x31	; 49
    4416:	28 5f       	subi	r18, 0xF8	; 248
    4418:	5f 53       	subi	r21, 0x3F	; 63
    441a:	54 52       	subi	r21, 0x24	; 36
    441c:	49 4e       	sbci	r20, 0xE9	; 233
    441e:	47 49       	sbci	r20, 0x97	; 151
    4420:	46 59       	subi	r20, 0x96	; 150
    4422:	28 76       	andi	r18, 0x68	; 104
    4424:	29 29       	or	r18, r9
    4426:	29 29       	or	r18, r9
    4428:	00 04       	cpc	r0, r0
    442a:	03 0f       	add	r16, r19
    442c:	0f 01       	movw	r0, r30
    442e:	09 55       	subi	r16, 0x59	; 89
    4430:	53 41       	sbci	r21, 0x13	; 19
    4432:	52 54       	subi	r21, 0x42	; 66
    4434:	5f 55       	subi	r21, 0x5F	; 95
    4436:	53 41       	sbci	r21, 0x13	; 19
    4438:	52 54       	subi	r21, 0x42	; 66
    443a:	5f 48       	sbci	r21, 0x8F	; 143
    443c:	5f 20       	and	r5, r15
    443e:	00 01       	movw	r0, r0
    4440:	0e 55       	subi	r16, 0x5E	; 94
    4442:	53 41       	sbci	r21, 0x13	; 19
    4444:	52 54       	subi	r21, 0x42	; 66
    4446:	5f 42       	sbci	r21, 0x2F	; 47
    4448:	41 55       	subi	r20, 0x51	; 81
    444a:	44 20       	and	r4, r4
    444c:	31 32       	cpi	r19, 0x21	; 33
    444e:	30 30       	cpi	r19, 0x00	; 0
    4450:	00 01       	movw	r0, r0
    4452:	0f 55       	subi	r16, 0x5F	; 95
    4454:	53 41       	sbci	r21, 0x13	; 19
    4456:	52 54       	subi	r21, 0x42	; 66
    4458:	5f 46       	sbci	r21, 0x6F	; 111
    445a:	4f 53       	subi	r20, 0x3F	; 63
    445c:	43 20       	and	r4, r3
    445e:	31 30       	cpi	r19, 0x01	; 1
    4460:	30 30       	cpi	r19, 0x00	; 0
    4462:	30 30       	cpi	r19, 0x00	; 0
    4464:	30 00       	.word	0x0030	; ????
    4466:	01 5e       	subi	r16, 0xE1	; 225
    4468:	55 42       	sbci	r21, 0x25	; 37
    446a:	52 52       	subi	r21, 0x22	; 34
    446c:	48 20       	and	r4, r8
    446e:	28 2a       	or	r2, r24
    4470:	28 76       	andi	r18, 0x68	; 104
    4472:	6f 6c       	ori	r22, 0xCF	; 207
    4474:	61 74       	andi	r22, 0x41	; 65
    4476:	69 6c       	ori	r22, 0xC9	; 201
    4478:	65 20       	and	r6, r5
    447a:	75 38       	cpi	r23, 0x85	; 133
    447c:	20 2a       	or	r2, r16
    447e:	29 28       	or	r2, r9
    4480:	30 78       	andi	r19, 0x80	; 128
    4482:	34 30       	cpi	r19, 0x04	; 4
    4484:	29 29       	or	r18, r9
    4486:	00 01       	movw	r0, r0
    4488:	5f 55       	subi	r21, 0x5F	; 95
    448a:	42 52       	subi	r20, 0x22	; 34
    448c:	52 4c       	sbci	r21, 0xC2	; 194
    448e:	20 28       	or	r2, r0
    4490:	2a 28       	or	r2, r10
    4492:	76 6f       	ori	r23, 0xF6	; 246
    4494:	6c 61       	ori	r22, 0x1C	; 28
    4496:	74 69       	ori	r23, 0x94	; 148
    4498:	6c 65       	ori	r22, 0x5C	; 92
    449a:	20 75       	andi	r18, 0x50	; 80
    449c:	38 20       	and	r3, r8
    449e:	2a 29       	or	r18, r10
    44a0:	28 30       	cpi	r18, 0x08	; 8
    44a2:	78 32       	cpi	r23, 0x28	; 40
    44a4:	39 29       	or	r19, r9
    44a6:	29 00       	.word	0x0029	; ????
    44a8:	01 60       	ori	r16, 0x01	; 1
    44aa:	55 43       	sbci	r21, 0x35	; 53
    44ac:	53 52       	subi	r21, 0x23	; 35
    44ae:	42 20       	and	r4, r2
    44b0:	28 2a       	or	r2, r24
    44b2:	28 76       	andi	r18, 0x68	; 104
    44b4:	6f 6c       	ori	r22, 0xCF	; 207
    44b6:	61 74       	andi	r22, 0x41	; 65
    44b8:	69 6c       	ori	r22, 0xC9	; 201
    44ba:	65 20       	and	r6, r5
    44bc:	75 38       	cpi	r23, 0x85	; 133
    44be:	20 2a       	or	r2, r16
    44c0:	29 28       	or	r2, r9
    44c2:	30 78       	andi	r19, 0x80	; 128
    44c4:	32 41       	sbci	r19, 0x12	; 18
    44c6:	29 29       	or	r18, r9
    44c8:	00 01       	movw	r0, r0
    44ca:	61 55       	subi	r22, 0x51	; 81
    44cc:	43 53       	subi	r20, 0x33	; 51
    44ce:	52 41       	sbci	r21, 0x12	; 18
    44d0:	20 28       	or	r2, r0
    44d2:	2a 28       	or	r2, r10
    44d4:	76 6f       	ori	r23, 0xF6	; 246
    44d6:	6c 61       	ori	r22, 0x1C	; 28
    44d8:	74 69       	ori	r23, 0x94	; 148
    44da:	6c 65       	ori	r22, 0x5C	; 92
    44dc:	20 75       	andi	r18, 0x50	; 80
    44de:	38 20       	and	r3, r8
    44e0:	2a 29       	or	r18, r10
    44e2:	28 30       	cpi	r18, 0x08	; 8
    44e4:	78 32       	cpi	r23, 0x28	; 40
    44e6:	42 29       	or	r20, r2
    44e8:	29 00       	.word	0x0029	; ????
    44ea:	01 62       	ori	r16, 0x21	; 33
    44ec:	55 43       	sbci	r21, 0x35	; 53
    44ee:	53 52       	subi	r21, 0x23	; 35
    44f0:	43 20       	and	r4, r3
    44f2:	28 2a       	or	r2, r24
    44f4:	28 76       	andi	r18, 0x68	; 104
    44f6:	6f 6c       	ori	r22, 0xCF	; 207
    44f8:	61 74       	andi	r22, 0x41	; 65
    44fa:	69 6c       	ori	r22, 0xC9	; 201
    44fc:	65 20       	and	r6, r5
    44fe:	75 38       	cpi	r23, 0x85	; 133
    4500:	20 2a       	or	r2, r16
    4502:	29 28       	or	r2, r9
    4504:	30 78       	andi	r19, 0x80	; 128
    4506:	34 30       	cpi	r19, 0x04	; 4
    4508:	29 29       	or	r18, r9
    450a:	00 01       	movw	r0, r0
    450c:	63 55       	subi	r22, 0x53	; 83
    450e:	44 52       	subi	r20, 0x24	; 36
    4510:	20 28       	or	r2, r0
    4512:	2a 28       	or	r2, r10
    4514:	76 6f       	ori	r23, 0xF6	; 246
    4516:	6c 61       	ori	r22, 0x1C	; 28
    4518:	74 69       	ori	r23, 0x94	; 148
    451a:	6c 65       	ori	r22, 0x5C	; 92
    451c:	20 75       	andi	r18, 0x50	; 80
    451e:	38 20       	and	r3, r8
    4520:	2a 29       	or	r18, r10
    4522:	28 30       	cpi	r18, 0x08	; 8
    4524:	78 32       	cpi	r23, 0x28	; 40
    4526:	43 29       	or	r20, r3
    4528:	29 00       	.word	0x0029	; ????
    452a:	01 64       	ori	r16, 0x41	; 65
    452c:	55 43       	sbci	r21, 0x35	; 53
    452e:	53 52       	subi	r21, 0x23	; 35
    4530:	42 20       	and	r4, r2
    4532:	28 2a       	or	r2, r24
    4534:	28 76       	andi	r18, 0x68	; 104
    4536:	6f 6c       	ori	r22, 0xCF	; 207
    4538:	61 74       	andi	r22, 0x41	; 65
    453a:	69 6c       	ori	r22, 0xC9	; 201
    453c:	65 20       	and	r6, r5
    453e:	75 38       	cpi	r23, 0x85	; 133
    4540:	20 2a       	or	r2, r16
    4542:	29 28       	or	r2, r9
    4544:	30 78       	andi	r19, 0x80	; 128
    4546:	32 41       	sbci	r19, 0x12	; 18
    4548:	29 29       	or	r18, r9
    454a:	00 01       	movw	r0, r0
    454c:	67 52       	subi	r22, 0x27	; 39
    454e:	58 43       	sbci	r21, 0x38	; 56
    4550:	20 37       	cpi	r18, 0x70	; 112
    4552:	00 01       	movw	r0, r0
    4554:	68 54       	subi	r22, 0x48	; 72
    4556:	58 43       	sbci	r21, 0x38	; 56
    4558:	20 36       	cpi	r18, 0x60	; 96
    455a:	00 01       	movw	r0, r0
    455c:	69 55       	subi	r22, 0x59	; 89
    455e:	44 52       	subi	r20, 0x24	; 36
    4560:	45 20       	and	r4, r5
    4562:	35 00       	.word	0x0035	; ????
    4564:	01 6a       	ori	r16, 0xA1	; 161
    4566:	46 45       	sbci	r20, 0x56	; 86
    4568:	20 34       	cpi	r18, 0x40	; 64
    456a:	00 01       	movw	r0, r0
    456c:	6b 44       	sbci	r22, 0x4B	; 75
    456e:	4f 52       	subi	r20, 0x2F	; 47
    4570:	20 33       	cpi	r18, 0x30	; 48
    4572:	00 01       	movw	r0, r0
    4574:	6c 50       	subi	r22, 0x0C	; 12
    4576:	45 20       	and	r4, r5
    4578:	32 00       	.word	0x0032	; ????
    457a:	01 6d       	ori	r16, 0xD1	; 209
    457c:	55 32       	cpi	r21, 0x25	; 37
    457e:	58 20       	and	r5, r8
    4580:	31 00       	.word	0x0031	; ????
    4582:	01 6e       	ori	r16, 0xE1	; 225
    4584:	4d 50       	subi	r20, 0x0D	; 13
    4586:	43 4d       	sbci	r20, 0xD3	; 211
    4588:	20 30       	cpi	r18, 0x00	; 0
    458a:	00 01       	movw	r0, r0
    458c:	71 52       	subi	r23, 0x21	; 33
    458e:	58 43       	sbci	r21, 0x38	; 56
    4590:	49 45       	sbci	r20, 0x59	; 89
    4592:	20 37       	cpi	r18, 0x70	; 112
    4594:	00 01       	movw	r0, r0
    4596:	72 54       	subi	r23, 0x42	; 66
    4598:	58 43       	sbci	r21, 0x38	; 56
    459a:	49 45       	sbci	r20, 0x59	; 89
    459c:	20 36       	cpi	r18, 0x60	; 96
    459e:	00 01       	movw	r0, r0
    45a0:	73 55       	subi	r23, 0x53	; 83
    45a2:	44 52       	subi	r20, 0x24	; 36
    45a4:	49 45       	sbci	r20, 0x59	; 89
    45a6:	20 35       	cpi	r18, 0x50	; 80
    45a8:	00 01       	movw	r0, r0
    45aa:	74 52       	subi	r23, 0x24	; 36
    45ac:	58 45       	sbci	r21, 0x58	; 88
    45ae:	4e 20       	and	r4, r14
    45b0:	34 00       	.word	0x0034	; ????
    45b2:	01 75       	andi	r16, 0x51	; 81
    45b4:	54 58       	subi	r21, 0x84	; 132
    45b6:	45 4e       	sbci	r20, 0xE5	; 229
    45b8:	20 33       	cpi	r18, 0x30	; 48
    45ba:	00 01       	movw	r0, r0
    45bc:	76 55       	subi	r23, 0x56	; 86
    45be:	43 53       	subi	r20, 0x33	; 51
    45c0:	5a 32       	cpi	r21, 0x2A	; 42
    45c2:	20 32       	cpi	r18, 0x20	; 32
    45c4:	00 01       	movw	r0, r0
    45c6:	77 52       	subi	r23, 0x27	; 39
    45c8:	58 42       	sbci	r21, 0x28	; 40
    45ca:	38 20       	and	r3, r8
    45cc:	31 00       	.word	0x0031	; ????
    45ce:	01 78       	andi	r16, 0x81	; 129
    45d0:	54 58       	subi	r21, 0x84	; 132
    45d2:	42 38       	cpi	r20, 0x82	; 130
    45d4:	20 30       	cpi	r18, 0x00	; 0
    45d6:	00 01       	movw	r0, r0
    45d8:	7b 55       	subi	r23, 0x5B	; 91
    45da:	52 53       	subi	r21, 0x32	; 50
    45dc:	45 4c       	sbci	r20, 0xC5	; 197
    45de:	20 37       	cpi	r18, 0x70	; 112
    45e0:	00 01       	movw	r0, r0
    45e2:	7c 55       	subi	r23, 0x5C	; 92
    45e4:	4d 53       	subi	r20, 0x3D	; 61
    45e6:	45 4c       	sbci	r20, 0xC5	; 197
    45e8:	20 36       	cpi	r18, 0x60	; 96
    45ea:	00 01       	movw	r0, r0
    45ec:	7d 55       	subi	r23, 0x5D	; 93
    45ee:	50 4d       	sbci	r21, 0xD0	; 208
    45f0:	31 20       	and	r3, r1
    45f2:	35 00       	.word	0x0035	; ????
    45f4:	01 7e       	andi	r16, 0xE1	; 225
    45f6:	55 50       	subi	r21, 0x05	; 5
    45f8:	4d 30       	cpi	r20, 0x0D	; 13
    45fa:	20 34       	cpi	r18, 0x40	; 64
    45fc:	00 01       	movw	r0, r0
    45fe:	7f 55       	subi	r23, 0x5F	; 95
    4600:	53 42       	sbci	r21, 0x23	; 35
    4602:	53 20       	and	r5, r3
    4604:	33 00       	.word	0x0033	; ????
    4606:	01 80       	ldd	r0, Z+1	; 0x01
    4608:	01 55       	subi	r16, 0x51	; 81
    460a:	43 53       	subi	r20, 0x33	; 51
    460c:	5a 31       	cpi	r21, 0x1A	; 26
    460e:	20 32       	cpi	r18, 0x20	; 32
    4610:	00 01       	movw	r0, r0
    4612:	81 01       	movw	r16, r2
    4614:	55 43       	sbci	r21, 0x35	; 53
    4616:	53 5a       	subi	r21, 0xA3	; 163
    4618:	30 20       	and	r3, r0
    461a:	31 00       	.word	0x0031	; ????
    461c:	01 82       	std	Z+1, r0	; 0x01
    461e:	01 55       	subi	r16, 0x51	; 81
    4620:	43 50       	subi	r20, 0x03	; 3
    4622:	4f 4c       	sbci	r20, 0xCF	; 207
    4624:	20 30       	cpi	r18, 0x00	; 0
    4626:	00 04       	cpc	r0, r0
    4628:	04 00       	.word	0x0004	; ????

Disassembly of section .debug_ranges:

00000000 <.debug_ranges>:
   0:	82 00       	.word	0x0082	; ????
   2:	00 00       	nop
   4:	82 00       	.word	0x0082	; ????
   6:	00 00       	nop
   8:	36 0b       	sbc	r19, r22
   a:	00 00       	nop
   c:	5a 0c       	add	r5, r10
	...
  16:	00 00       	nop
  18:	38 00       	.word	0x0038	; ????
  1a:	00 00       	nop
  1c:	b0 00       	.word	0x00b0	; ????
  1e:	00 00       	nop
  20:	4a 01       	movw	r8, r20
  22:	00 00       	nop
  24:	e8 01       	movw	r28, r16
  26:	00 00       	nop
  28:	ba 00       	.word	0x00ba	; ????
  2a:	00 00       	nop
  2c:	40 01       	movw	r8, r0
	...
  36:	00 00       	nop
  38:	88 00       	.word	0x0088	; ????
  3a:	00 00       	nop
  3c:	b0 00       	.word	0x00b0	; ????
  3e:	00 00       	nop
  40:	ba 00       	.word	0x00ba	; ????
  42:	00 00       	nop
  44:	2a 01       	movw	r4, r20
	...
  4e:	00 00       	nop
  50:	ba 00       	.word	0x00ba	; ????
  52:	00 00       	nop
  54:	10 01       	movw	r2, r0
  56:	00 00       	nop
  58:	18 01       	movw	r2, r16
  5a:	00 00       	nop
  5c:	2a 01       	movw	r4, r20
	...
